(lp0
((lp1
(S'392'
p2
S'431'
p3
F235.63838006223523
tp4
a(g3
S'203'
p5
F369.98613606887915
tp6
a(g5
S'414'
p7
F110.55925503297553
tp8
a(g7
S'929'
p9
F303.12038890948725
tp10
a(g9
S'842'
p11
F138.91582185729666
tp12
a(g11
S'1027'
p13
F108.42347341772006
tp14
a(g13
S'887'
p15
F487.1655712218048
tp16
aF105.22854159422393
S'2012-03-02 07:04:07'
p17
S'2012-03-02 07:05:07'
p18
I70
F1753.8090265703986
F956.222428505863
tp19
a((lp20
(S'1027'
p21
g15
F487.166479678937
tp22
a(g15
S'1189'
p23
F211.8840444636607
tp24
a(g23
S'987'
p25
F270.52965352844495
tp26
aF58.17481066026255
g18
S'2012-03-02 07:06:07'
p27
I74
F969.5801776710425
F1404.0962934083898
tp28
a((lp29
(S'1189'
p30
g25
F270.53002674972004
tp31
a(g25
S'1073'
p32
F585.3164976896943
tp33
a(g32
S'1185'
p34
F401.933419412357
tp35
a(g34
S'777'
p36
F232.78220771594508
tp37
aF89.433729094063
g27
S'2012-03-02 07:07:07'
p38
I77
F1490.5621515677165
F1276.555637961897
tp39
a((lp40
(S'1185'
p41
g36
F232.78232429736136
tp42
a(g36
S'988'
p43
F428.69502991180303
tp44
a(g43
S'1127'
p45
F152.49726409143645
tp46
a(g45
S'967'
p47
F190.65766483400054
tp48
a(g47
S'1154'
p49
F633.0663908294133
tp50
a(g49
S'1010'
p51
F507.7471347885134
tp52
a(g51
S'906'
p53
F27.06020122662467
tp54
aF3.8814003155955086
g38
S'2012-03-02 07:40:42'
p55
I74
F2172.5060099791526
F2508.8604363244503
tp56
a((lp57
(S'1010'
p58
g53
F1599.5071686740373
tp59
a(g53
S'1113'
p60
F504.1784455245772
tp61
a(g60
S'1160'
p62
F282.7294827992773
tp63
a(g62
S'1139'
p64
F999.898841596365
tp65
a(g64
S'909'
p66
F384.6361930519455
tp67
a(g66
S'817'
p68
F286.06989179438705
tp69
a(g68
S'873'
p70
F214.99477288859876
tp71
a(g70
S'936'
p72
F117.95681148015007
tp73
a(g72
S'791'
p74
F263.909236928096
tp75
a(g74
S'1107'
p76
F226.13434667854332
tp77
a(g76
S'1044'
p78
F278.424131296127
tp79
a(g78
S'778'
p80
F302.5121384580218
tp81
a(g80
S'963'
p82
F513.8652496215955
tp83
a(g82
S'778'
p84
F256.933768025895
tp85
aF52.91108897109297
g55
S'2012-03-02 07:47:46'
p86
I0
F6231.750478817617
F1358.0125214226202
tp87
a((lp88
(S'963'
p89
g84
F256.9314816403839
tp90
a(g84
S'1044'
p91
F302.5121384580218
tp92
a(g91
S'1107'
p93
F278.424131296127
tp94
a(g93
S'791'
p95
F226.13434667854332
tp96
a(g95
S'834'
p97
F344.3991517532198
tp98
a(g97
S'1068'
p99
F128.40964248009593
tp100
a(g99
S'1032'
p101
F287.5482508719534
tp102
a(g101
S'796'
p103
F361.8967412680692
tp104
a(g103
S'1082'
p105
F137.28505847111882
tp106
a(g105
S'900'
p107
F405.2662958943754
tp108
a(g107
S'967'
p109
F108.7587186218851
tp110
aF35.103908751758276
g86
S'2012-03-02 07:52:37'
p111
I20
F2837.565957433794
F2131.625541620388
tp112
a((lp113
(S'900'
p114
g114
F0.0
tp115
aF0.0
g111
S'2012-03-02 08:01:32'
p116
I50
F0.0
F283.7920920953573
tp117
a((lp118
(g114
g109
F108.75867455528928
tp119
a(g109
S'900'
p120
F217.51739317672622
tp121
a(g120
S'809'
p122
F674.794246559625
tp123
a(g122
S'900'
p124
F425.88182404848504
tp125
aF65.02566706360066
g116
S'2012-03-02 08:02:51'
p126
I14
F1426.9521383401257
F128.06658233108135
tp127
a((lp128
(S'809'
p129
g129
F0.0
tp130
aF7.73593350569524
g126
S'2012-03-02 08:03:10'
p131
I0
F40.82853794672487
F41.509095035986334
tp132
a((lp133
(g129
g124
F208.08388465787868
tp134
a(g124
g109
F217.51739317672622
tp135
a(g109
g49
F143.95907132557744
tp136
aF34.17362094961094
g131
S'2012-03-02 08:04:10'
p137
I5
F569.5603491601823
F90.94658984619353
tp138
a((lp139
(S'967'
p140
g49
F489.10731956399513
tp141
a(g49
g51
F507.7471347885134
tp142
a(g51
S'827'
p143
F266.8104465605856
tp144
a(g143
S'909'
p145
F195.12481489168132
tp146
aF43.76369147414327
g137
S'2012-03-02 08:06:10'
p147
I11
F1458.7897158047756
F966.7119956716792
tp148
a((lp149
(S'827'
p150
g145
F195.1244154104385
tp151
a(g145
g68
F286.06989179438705
tp152
a(g68
g70
F214.99477288859876
tp153
a(g70
S'1292'
p154
F5581.023855259741
tp155
a(g154
S'873'
p156
F8.5414164789072
tp157
aF40.699128896754424
g147
S'2012-03-02 08:15:26'
p158
I40
F6285.754351832073
F5896.4543157303315
tp159
a((lp160
(S'1292'
p161
g156
F5572.48243908512
tp162
a(g156
g154
F5581.023855259741
tp163
a(g154
S'1325'
p164
F459.79492426068333
tp165
a(g164
S'1235'
p166
F778.5383805800125
tp167
a(g166
S'1288'
p168
F454.1199111616725
tp169
aF502.6679808396743
g158
S'2012-03-02 08:16:58'
p170
I0
F12845.959510347231
F798.0961911464236
tp171
a((lp172
(S'1235'
p173
g173
F0.0
tp174
aF1.0605384843147934
g170
S'2012-03-02 08:18:39'
p175
I0
F29.75399636549837
F490.3660413992449
tp176
a((lp177
(g173
g168
F483.8741653060648
tp178
a(g168
S'1401'
p179
F116.77599178303146
tp180
aF30.89057950743924
g175
S'2012-03-02 08:19:49'
p181
I11
F600.6501570890963
F69.69953831365332
tp182
a((lp183
(S'1288'
p184
g179
F1205.1265235489157
tp185
a(g179
S'1298'
p186
F153.23217012342482
tp187
aF10.842774494945512
g181
S'2012-03-02 08:27:20'
p188
I18
F1358.3586936723405
F1364.8157791298795
tp189
a((lp190
(S'1401'
p191
g186
F644.9279405024416
tp192
a(g186
S'1332'
p193
F322.57608576245764
tp194
aF28.78524375664163
g188
S'2012-03-02 08:29:21'
p195
I81
F967.5040262648993
F598.4324837605761
tp196
a((lp197
(S'1298'
p198
g193
F329.1489041666406
tp199
a(g193
S'1361'
p200
F671.4389489883039
tp201
a(g200
S'1353'
p202
F982.0953103065008
tp203
a(g202
S'1394'
p204
F712.646790159864
tp205
a(g204
S'1265'
p206
F551.3303873579385
tp207
a(g206
S'1269'
p208
F579.3192391338572
tp209
a(g208
S'1249'
p210
F337.6809430955943
tp211
a(g210
S'1386'
p212
F1043.0772787454132
tp213
a(g212
S'1295'
p214
F329.92055347398576
tp215
a(g214
S'1395'
p216
F660.5954005099251
tp217
a(g216
S'1282'
p218
F260.0708738838822
tp219
aF51.20345521444683
g195
S'2012-03-02 08:36:55'
p220
I14
F6457.324629821905
F4162.1320107590545
tp221
a((lp222
(S'1395'
p223
g218
F260.0708660303539
tp224
a(g218
S'1389'
p225
F262.3624076285935
tp226
a(g225
S'1330'
p227
F194.73538406683633
tp228
aF22.6474312966037
g220
S'2012-03-02 08:38:49'
p229
I72
F717.1686577257838
F1041.2966034975047
tp230
a((lp231
(S'1389'
p232
g227
F194.7353669739261
tp233
a(g227
S'1264'
p234
F612.8101096718462
tp235
a(g234
S'1402'
p236
F228.23448105151797
tp237
a(g236
S'1284'
p238
F532.13818844487
tp239
a(g238
S'1303'
p240
F196.5245824851148
tp241
aF29.821567244404648
g229
S'2012-03-02 08:42:22'
p242
I22
F1764.442728627275
F1460.8313768089652
tp243
a((lp244
(S'1284'
p245
g240
F196.5245109622374
tp246
a(g240
S'1284'
p247
F393.0490934460226
tp248
a(g247
S'871'
p249
F333.4018934129503
tp250
aF57.28813434752341
g242
S'2012-03-02 08:43:20'
p251
I37
F922.9754978212104
F274.6387941124556
tp252
a((lp253
(g245
g249
F397.7083982767627
tp254
a(g249
S'1137'
p255
F404.8816121047468
tp256
a(g255
S'871'
p257
F78.04957422752382
tp258
aF52.838375076542
g251
S'2012-03-02 08:44:20'
p259
I40
F880.6395846090334
F510.8320993953976
tp260
a((lp261
(S'1137'
p262
g257
F326.83203787793826
tp263
a(g257
g255
F404.8816121047468
tp264
a(g255
S'1072'
p265
F413.7618398450044
tp266
aF687.2852938966137
g259
S'2012-03-02 08:44:26'
p267
I0
F1145.4754898276894
F3.0663776260531566
tp268
a((lp269
(g262
g265
F413.7603273962519
tp270
a(g265
S'1137'
p271
F827.5221670782628
tp272
a(g271
g257
F404.8816121047468
tp273
a(g257
g255
F388.1131796460947
tp274
aF457.71238940070515
g267
S'2012-03-02 08:44:42'
p275
I0
F2034.2772862253562
F59.09333961331062
tp276
a((lp277
(S'871'
p278
g255
F16.768432458825185
tp279
a(g255
S'1303'
p280
F725.1210142806609
tp281
a(g280
S'451'
p282
F11.974260737946157
tp283
aF11.49961587677439
g275
S'2012-03-02 08:48:38'
p284
I33
F753.8637074774322
F791.7804417883564
tp285
a((lp286
(S'1303'
p287
g282
F546.7558166206161
tp288
a(g282
S'99'
p289
F634.6465544405745
tp290
a(g289
S'250'
p291
F450.67830771983614
tp292
aF48.962420363430795
g284
S'2012-03-02 08:50:38'
p293
I24
F1632.0806787810266
F1634.8863444918902
tp294
a((lp295
(S'99'
p296
g291
F263.4883500666502
tp297
a(g291
S'1329'
p298
F369.9130616166849
tp299
a(g298
S'1326'
p300
F228.31950497932885
tp301
a(g300
S'1343'
p302
F335.7915781764397
tp303
a(g302
S'1239'
p304
F393.6433366208233
tp305
a(g304
S'1385'
p306
F774.24262055248
tp307
a(g306
S'1338'
p308
F390.9239723160365
tp309
a(g308
S'1324'
p310
F851.0803173901818
tp311
a(g310
S'1307'
p312
F900.6330117955955
tp313
a(g312
S'6'
p314
F493.8721802930258
tp315
a(g314
S'355'
p316
F530.2020273057371
tp317
aF44.454455044657905
g293
S'2012-03-02 08:58:06'
p318
I59
F5532.109961112983
F3731.8528784535474
tp319
a((lp320
(g314
g316
F530.1992014219444
tp321
a(g316
S'8'
p322
F770.5077146010468
tp323
a(g322
S'243'
p324
F497.6064972180614
tp325
a(g324
S'1358'
p326
F820.1452521497176
tp327
a(g326
S'1327'
p328
F197.1367679524997
tp329
a(g328
S'1399'
p330
F433.91775760016844
tp331
a(g330
S'1379'
p332
F365.18936542563927
tp333
a(g332
S'1253'
p334
F169.6879575593227
tp335
a(g334
S'1287'
p336
F215.9995211997082
tp337
a(g336
S'1236'
p338
F500.94138389154773
tp339
a(g338
S'428'
p340
F1389.6055465674801
tp341
a(g340
S'269'
p342
F877.6751615116247
tp343
a(g342
S'151'
p344
F940.7895410422839
tp345
aF53.066627161200316
g318
S'2012-03-02 09:06:49'
p346
I0
F7709.401668141045
F4253.668911128112
tp347
a((lp348
(S'269'
p349
g344
F940.7825422925129
tp350
a(g344
S'146'
p351
F821.2557690646038
tp352
a(g351
S'358'
p353
F569.3222432001658
tp354
a(g353
S'296'
p355
F271.20428853774837
tp356
a(g355
S'50'
p357
F899.0793771111934
tp358
a(g357
S'417'
p359
F998.2418783563234
tp360
a(g359
S'77'
p361
F3261.126947983037
tp362
a(g361
S'118'
p363
F622.9417052537165
tp364
a(g363
S'206'
p365
F3416.662493017941
tp366
a(g365
S'79'
p367
F340.8639244928786
tp368
a(g367
S'206'
p369
F31.49646169504257
tp370
aF35.2839931333483
g346
S'2012-03-02 09:27:31'
p371
I50
F12172.977631005162
F10460.302281648239
tp372
a((lp373
(S'79'
p374
g369
F309.36746279910363
tp375
a(g369
g367
F340.8639244928786
tp376
a(g367
S'62'
p377
F766.4395078482208
tp378
a(g377
S'328'
p379
F304.77298423724176
tp380
a(g379
S'196'
p381
F208.72880849237106
tp382
a(g381
S'461'
p383
F529.8768660045189
tp384
a(g383
S'288'
p385
F213.86956785060167
tp386
a(g385
S'46'
p387
F73.31064701454076
tp388
aF12.663287026199894
g371
S'2012-03-02 09:40:32'
p389
I0
F2747.229768739477
F1282.920459845864
tp390
a((lp391
(S'288'
p392
g387
F73.31058608450833
tp393
a(g387
S'225'
p394
F204.10192602860755
tp395
a(g394
S'76'
p396
F338.3959139553396
tp397
a(g396
S'225'
p398
F45.04992552120842
tp399
aF48.552858484138575
g389
S'2012-03-02 09:41:21'
p400
I22
F660.8583515896639
F70.41001677089571
tp401
a((lp402
(S'76'
p403
g398
F293.34598843697137
tp404
a(g398
S'46'
p405
F204.10192602860755
tp406
a(g405
S'107'
p407
F327.4845229639087
tp408
a(g407
S'131'
p409
F134.5187233537088
tp410
aF28.783534823495895
g400
S'2012-03-02 09:43:21'
p411
I12
F959.4511607831964
F935.0894308595172
tp412
a((lp413
(S'107'
p414
g409
F134.51841081920446
tp415
a(g409
S'465'
p416
F837.7247684747507
tp417
a(g416
S'312'
p418
F237.57617621375863
tp419
aF72.58916133046283
g411
S'2012-03-02 09:44:21'
p420
I20
F1209.8193555077137
F602.0235864764102
tp421
a((lp422
(S'465'
p423
g418
F237.577265029801
tp424
a(g418
S'465'
p425
F475.1534412115984
tp426
a(g425
S'222'
p427
F461.74160889843637
tp428
aF29.56713520631754
g420
S'2012-03-02 09:46:44'
p429
I50
F1174.4723151398357
F520.4422249729769
tp430
a((lp431
(g423
g427
F199.7339121284998
tp432
a(g427
S'465'
p433
F213.09852038982
tp434
aF4.32033941007544
g429
S'2012-03-02 09:52:28'
p435
I0
F412.8324325183198
F16.889380152458102
tp436
a((lp437
(S'222'
p438
g433
F448.3770006375935
tp439
a(g433
g418
F240.35988156857678
tp440
aF41.32421293237022
g435
S'2012-03-02 09:53:28'
p441
I5
F688.7368822061703
F458.12756964637333
tp442
a((lp443
(g423
g418
F234.79355967493058
tp444
a(g418
S'27'
p445
F335.3367748423742
tp446
a(g445
S'423'
p447
F360.14779166603097
tp448
a(g447
S'348'
p449
F401.7062149289834
tp450
a(g449
S'40'
p451
F200.80015368442275
tp452
aF38.587581687190706
g441
S'2012-03-02 09:55:51'
p453
I53
F1532.784494796742
F1084.0995528985904
tp454
a((lp455
(S'348'
p456
g451
F200.79947476719056
tp457
a(g451
S'400'
p458
F87.51823704022229
tp459
aF86.49531354222385
g453
S'2012-03-02 09:56:03'
p460
I0
F288.3177118074128
F35.27697080119608
tp461
a((lp462
(S'40'
p463
g458
F87.51811556625722
tp464
a(g458
S'388'
p465
F265.74008571950515
tp466
a(g465
S'227'
p467
F206.62632185671316
tp468
a(g467
S'329'
p469
F23.7439292707478
tp470
aF14.007082857917359
g460
S'2012-03-02 09:58:33'
p471
I25
F583.6284524132233
F734.135390625454
tp472
a((lp473
(S'227'
p474
g474
F0.0
tp475
aF7.303147005995144
g471
S'2012-03-02 09:59:32'
p476
I31
F119.69046482047597
F396.82210238725537
tp477
a((lp478
(g474
g469
F143.434156329709
tp479
a(g469
S'240'
p480
F279.26640940993445
tp481
a(g480
S'95'
p482
F127.80883090513126
tp483
a(g482
S'46'
p484
F169.5426482928923
tp485
a(g484
g407
F327.4845229639087
tp486
a(g407
S'46'
p487
F143.41960355909578
tp488
aF164.90162374070835
g476
S'2012-03-02 09:59:58'
p489
I0
F1190.9561714606714
F38.07051998971817
tp490
a((lp491
(g414
g487
F184.0649194120174
tp492
a(g487
S'288'
p493
F146.62123309864816
tp494
a(g493
S'448'
p495
F161.32840893425416
tp496
a(g495
S'115'
p497
F131.96675629555088
tp498
a(g497
S'448'
p499
F65.98345145874035
tp500
aF16.44949118620635
g489
S'2012-03-02 10:02:29'
p501
I31
F689.9647691992109
F446.7005246259301
tp502
a((lp503
(S'115'
p504
g499
F65.98330483756305
tp505
a(g499
g497
F131.96675629555088
tp506
a(g497
S'149'
p507
F279.2751738259168
tp508
a(g507
S'115'
p509
F139.63790898744497
tp510
aF21.560265225313714
g501
S'2012-03-02 10:04:12'
p511
I0
F616.8631439464757
F439.29026795075276
tp512
a((lp513
(S'149'
p514
g509
F139.63726484556148
tp515
a(g509
g507
F279.2751738259168
tp516
a(g507
S'388'
p517
F311.2936549950741
tp518
aF164.2963710749743
g511
S'2012-03-02 10:04:28'
p519
I0
F730.2060936665524
F17.85813573301393
tp520
a((lp521
(g514
g517
F17.266621961955934
tp522
a(g517
S'400'
p523
F265.74008571950515
tp524
a(g523
S'40'
p525
F175.03635260490466
tp526
a(g525
S'348'
p527
F401.59962843252373
tp528
a(g527
g451
F38.34356490959722
tp529
aF53.87917521770921
g519
S'2012-03-02 10:05:28'
p530
I7
F897.9862536284868
F527.1848937621317
tp531
a((lp532
(g456
g451
F363.25606352964957
tp533
a(g451
g527
F401.59962843252373
tp534
a(g527
S'160'
p535
F749.9190888032648
tp536
a(g535
S'195'
p537
F1654.504702992569
tp538
a(g537
S'323'
p539
F899.3736486026992
tp540
a(g539
S'371'
p541
F502.52151206068487
tp542
a(g541
S'1158'
p543
F343.4160234801613
tp544
a(g543
S'233'
p545
F505.9919712639641
tp546
a(g545
S'1222'
p547
F314.42150737049457
tp548
a(g547
S'1209'
p549
F529.8005662370716
tp550
a(g549
S'1104'
p551
F340.0113446486208
tp552
a(g551
S'121'
p553
F348.95206538914294
tp554
a(g553
S'915'
p555
F317.2464914021481
tp556
a(g555
S'1170'
p557
F209.34014213040564
tp558
aF192.3519794488303
g530
S'2012-03-02 10:07:48'
p559
I0
F7480.3547563434
F1995.2057182109286
tp560
a((lp561
(S'915'
p562
g557
F209.34024229024962
tp563
a(g557
S'1066'
p564
F134.29559832461862
tp565
a(g564
S'1213'
p566
F126.00604095646439
tp567
a(g566
S'959'
p568
F107.92234078242512
tp569
aF17.326926670612732
g559
S'2012-03-02 10:09:48'
p570
I48
F577.5642223537577
F1079.2677326934518
tp571
a((lp572
(S'1213'
p573
g568
F51.35120042675438
tp574
a(g568
S'1170'
p575
F135.9977572931447
tp576
a(g575
g564
F134.29559832461862
tp577
a(g564
S'923'
p578
F203.76793276645955
tp579
aF157.62374664329317
g570
S'2012-03-02 10:10:00'
p580
I14
F525.4124888109773
F14.65471347507115
tp581
a((lp582
(S'1066'
p583
g578
F203.7664193135748
tp584
a(g578
S'1066'
p585
F407.53435205726896
tp586
a(g585
S'1170'
p587
F134.29559832461862
tp588
a(g587
S'959'
p589
F135.9977572931447
tp590
a(g589
S'806'
p591
F197.56237677218394
tp592
a(g591
S'1207'
p593
F125.45436487991113
tp594
aF38.04034322023269
g580
S'2012-03-02 10:11:54'
p595
I0
F1204.610868640702
F372.4876798717652
tp596
a((lp597
(S'806'
p598
g593
F15.583372102588031
tp599
a(g593
S'799'
p600
F101.1060544565955
tp601
a(g600
S'1215'
p602
F216.60117519723585
tp603
a(g602
S'1030'
p604
F229.64658602255514
tp605
a(g604
S'860'
p606
F230.54817177966603
tp607
a(g606
S'1069'
p608
F231.70867622577373
tp609
a(g608
S'970'
p610
F300.1901722143531
tp611
a(g610
S'774'
p612
F377.3364418971982
tp613
a(g612
S'895'
p614
F268.4210662990969
tp615
a(g614
S'1229'
p616
F124.68486948402185
tp617
aF53.89268363174787
g595
S'2012-03-02 10:14:14'
p618
I27
F2095.826585679084
F739.9306804525312
tp619
a((lp620
(S'895'
p621
g616
F124.68490737910783
tp622
a(g616
S'895'
p623
F249.3697768587104
tp624
a(g623
S'774'
p625
F268.4210662990969
tp626
a(g625
S'970'
p627
F188.66843989381914
tp628
aF49.86865142584406
g618
S'2012-03-02 10:15:14'
p629
I38
F831.1441904307343
F598.3789241133017
tp630
a((lp631
(S'774'
p632
g627
F188.66800201074003
tp633
a(g627
S'1069'
p634
F150.0952898730258
tp635
aF48.78191403126228
g629
S'2012-03-02 10:15:39'
p636
I44
F338.7632918837658
F167.24459205243946
tp637
a((lp638
(S'970'
p639
g634
F150.09488234932238
tp640
a(g634
S'860'
p641
F231.70867622577373
tp642
a(g641
S'790'
p643
F108.13434072706384
tp644
a(g643
S'819'
p645
F145.5823712882947
tp646
a(g645
S'1233'
p647
F280.1051964205321
tp648
a(g647
S'886'
p649
F203.95830291726205
tp650
a(g649
S'1222'
p651
F249.0656193648121
tp652
aF447.92161831409265
g636
S'2012-03-02 10:15:50'
p653
I0
F1368.649389293061
F76.66711875673829
tp654
a((lp655
(S'886'
p656
g651
F249.06547730195334
tp657
a(g651
S'233'
p658
F314.42150737049457
tp659
a(g658
S'324'
p660
F522.2079091612247
tp661
a(g660
S'12'
p662
F348.33486400960794
tp663
a(g662
S'307'
p664
F336.87317808984017
tp665
a(g664
S'101'
p666
F516.3741780275716
tp667
a(g666
S'923'
p668
F328.6976554278027
tp669
aF52.319495387769905
g653
S'2012-03-02 10:18:50'
p670
I42
F2615.974769388495
F2032.931587021248
tp671
a((lp672
(S'101'
p673
g668
F601.6628846690544
tp674
a(g668
S'101'
p675
F930.3605400765287
tp676
a(g675
S'231'
p677
F1064.127747221737
tp678
aF3115.3814063607842
g670
S'2012-03-02 10:18:53'
p679
I0
F2596.15117196732
F0.989634847795906
tp680
a((lp681
(g673
g677
F1064.1090796797437
tp682
a(g677
S'101'
p683
F2128.2368240663845
tp684
a(g683
S'307'
p685
F516.3741780275716
tp686
a(g685
S'12'
p687
F336.87317808984017
tp688
a(g687
S'324'
p689
F348.33486400960794
tp690
a(g689
S'233'
p691
F522.2079091612247
tp692
a(g691
S'1158'
p693
F505.9919712639641
tp694
a(g693
S'371'
p695
F343.4160234801613
tp696
a(g695
S'323'
p697
F502.52151206068487
tp698
a(g697
S'195'
p699
F899.3736486026992
tp700
a(g699
S'160'
p701
F1654.504702992569
tp702
a(g701
S'206'
p703
F1488.9908982048485
tp704
aF515.546739481965
g679
S'2012-03-02 10:20:05'
p705
I0
F10310.9347896393
F871.0883262338012
tp706
a((lp707
(S'160'
p708
g703
F1488.9430066769257
tp709
a(g703
S'160'
p710
F2977.933896935319
tp711
a(g710
g537
F1654.504702992569
tp712
a(g537
g539
F899.3736486026992
tp713
a(g539
g541
F502.52151206068487
tp714
a(g541
g543
F343.4160234801613
tp715
a(g543
g545
F505.9919712639641
tp716
a(g545
g660
F522.2079091612247
tp717
a(g660
g662
F348.33486400960794
tp718
a(g662
g664
F336.87317808984017
tp719
a(g664
g666
F516.3741780275716
tp720
a(g666
g677
F2128.2368240663845
tp721
a(g677
S'37'
p722
F615.0803976398846
tp723
aF770.3875267804101
g705
S'2012-03-02 10:21:05'
p724
I85
F12839.792113006835
F1294.8508144313614
tp725
a((lp726
(S'231'
p727
g722
F615.0728286907475
tp728
a(g722
S'406'
p729
F47.964521924127965
tp730
aF19.095475697708416
g724
S'2012-03-02 10:23:10'
p731
I44
F663.0373506148755
F1377.7501993611934
tp732
a((lp733
(S'37'
p734
g734
F0.0
tp735
aF35.710330642017155
g731
S'2012-03-02 10:23:54'
p736
I42
F436.4595967357652
F436.8127894020489
tp737
a((lp738
(g734
g729
F225.4713158344646
tp739
a(g729
S'463'
p740
F523.1406006777456
tp741
a(g740
S'128'
p742
F159.2808163095237
tp743
aF29.71285307416584
g736
S'2012-03-02 10:25:44'
p744
I0
F907.892732821734
F622.9536793918827
tp745
a((lp746
(S'463'
p747
g742
F420.25986123697373
tp748
a(g742
S'268'
p749
F711.8157605305048
tp750
a(g749
S'451'
p751
F230.77345257950506
tp752
a(g751
S'1402'
p753
F391.4745659135401
tp754
a(g753
S'1264'
p755
F228.23448105151797
tp756
a(g755
S'1330'
p757
F612.8101096718462
tp758
a(g757
S'1326'
p759
F691.146827141222
tp760
a(g759
g302
F167.89596934615375
tp761
aF45.22138072326018
g744
S'2012-03-02 10:30:19'
p762
I59
F3454.411027471264
F2069.383690826698
tp763
a((lp764
(S'1326'
p765
g765
F0.0
tp766
aF16.879003418743725
g762
S'2012-03-02 10:30:52'
p767
I51
F154.7241980051508
F169.80977731258687
tp768
a((lp769
(g765
g302
F322.61980683671777
tp770
a(g302
g304
F196.82186921553054
tp771
aF133.57071669914959
g767
S'2012-03-02 10:31:06'
p772
I0
F519.4416760522483
F42.93242691533547
tp773
a((lp774
(S'1343'
p775
g304
F196.82146742289183
tp776
a(g304
S'1343'
p777
F393.6433366208233
tp778
a(g777
S'1326'
p779
F335.7915781764397
tp780
a(g779
g302
F167.89596934615375
tp781
aF49.236855820483896
g772
S'2012-03-02 10:32:26'
p782
I24
F1094.1523515663087
F355.9452245588936
tp783
a((lp784
(g765
g302
F167.89560884127812
tp785
a(g302
S'350'
p786
F824.6361411203513
tp787
aF148.87976249424443
g782
S'2012-03-02 10:32:50'
p788
I40
F992.5317499616294
F123.47124004172265
tp789
a((lp790
(g775
g786
F824.6361344456454
tp791
a(g786
S'1343'
p792
F1649.2722755654704
tp793
a(g792
g304
F393.6433366208233
tp794
a(g304
g777
F154.58110212823624
tp795
aF137.71744627261558
g788
S'2012-03-02 10:34:09'
p796
I0
F3022.132848760175
F348.1552431910839
tp797
a((lp798
(S'1239'
p799
g777
F239.06223450918904
tp800
a(g777
g779
F335.7915781764397
tp801
a(g779
g302
F167.89596934615375
tp802
aF24.989712292658105
g796
S'2012-03-02 10:35:56'
p803
I50
F742.7497820317825
F608.1419358554891
tp804
a((lp805
(g765
g302
F167.89560884127812
tp806
a(g302
g779
F335.7915781764397
tp807
a(g779
S'1330'
p808
F59.842872301688935
tp809
aF126.79426334686652
g803
S'2012-03-02 10:36:12'
p810
I0
F563.5300593194067
F48.80839974039282
tp811
a((lp812
(g765
g808
F631.3039548697757
tp813
a(g808
S'1345'
p814
F225.3777301642604
tp815
a(g814
S'99'
p816
F192.39330216902604
tp817
aF31.47224961609186
g810
S'2012-03-02 10:38:12'
p818
I31
F1049.0749872030622
F855.0246491081888
tp819
a((lp820
(S'1345'
p821
g816
F192.39329712873453
tp822
a(g816
S'451'
p823
F634.6465544405745
tp824
a(g823
S'268'
p825
F230.77345257950506
tp826
a(g825
S'128'
p827
F711.8157605305048
tp828
a(g827
S'172'
p829
F24.89225785827123
tp830
aF35.110199788778935
g818
S'2012-03-02 10:41:16'
p831
I59
F1794.52132253759
F1104.8014525236983
tp832
a((lp833
(S'128'
p834
g829
F648.9975339687427
tp835
a(g829
S'128'
p836
F673.8897918142452
tp837
a(g836
S'463'
p838
F16.572135796563614
tp839
aF267.8918923159103
g831
S'2012-03-02 10:41:34'
p840
I0
F1339.4594615795513
F36.38536137563251
tp841
a((lp842
(g834
g838
F562.9685417106608
tp843
a(g838
g742
F579.5406775008636
tp844
a(g742
g749
F711.8157605305048
tp845
a(g749
g751
F11.939596683659396
tp846
aF68.55665790951508
g840
S'2012-03-02 10:43:12'
p847
I14
F1866.2645764256883
F317.31543393501227
tp848
a((lp849
(S'268'
p850
g751
F218.83385589584623
tp851
a(g751
g753
F391.4745659135401
tp852
a(g753
g755
F228.23448105151797
tp853
a(g755
g757
F612.8101096718462
tp854
a(g757
g759
F691.146827141222
tp855
a(g759
S'1329'
p856
F114.15975311197512
tp857
aF41.44884966341537
g847
S'2012-03-02 10:46:28'
p858
I5
F2256.659592785948
F1734.02906736771
tp859
a((lp860
(g765
g856
F114.15975186736728
tp861
a(g856
g300
F228.31950497932885
tp862
a(g300
S'1396'
p863
F432.74580325485505
tp864
a(g863
S'1333'
p865
F64.71742861386046
tp866
aF167.98849774308235
g858
S'2012-03-02 10:46:46'
p867
I0
F839.9424887154116
F76.6441627790565
tp868
a((lp869
(S'1396'
p870
g865
F179.56988442735948
tp871
a(g865
S'1309'
p872
F324.0115985246878
tp873
a(g872
S'1386'
p874
F417.3579701222292
tp875
aF55.256367184456586
g867
S'2012-03-02 10:47:46'
p876
I44
F920.9394530742765
F658.7932631231747
tp877
a((lp878
(S'1309'
p879
g874
F172.2873826654976
tp880
a(g874
g214
F329.92055347398576
tp881
a(g214
g216
F660.5954005099251
tp882
a(g216
S'1377'
p883
F573.4757749753169
tp884
a(g883
S'1328'
p885
F328.35338240576175
tp886
a(g885
S'1300'
p887
F1023.4121880864786
tp888
a(g887
S'1378'
p889
F195.5525912949026
tp890
a(g889
S'1373'
p891
F1248.079896567967
tp892
a(g891
S'1292'
p893
F14.427085358397147
tp894
aF23.926864501780173
g876
S'2012-03-02 10:59:10'
p895
I66
F4546.104255338233
F3227.5546995283567
tp896
a((lp897
(S'1373'
p898
g893
F754.0185600614825
tp899
a(g893
S'1373'
p900
F768.4456454198628
tp901
a(g900
S'1378'
p902
F1248.079896567967
tp903
a(g902
S'1376'
p904
F272.91033738062805
tp905
a(g904
S'1013'
p906
F3427.8290189273157
tp907
a(g906
S'1211'
p908
F177.51333005252258
tp909
aF69.98733461483977
g895
S'2012-03-02 11:04:52'
p910
I0
F6648.796788409778
F3882.2907382960884
tp911
a((lp912
(S'1013'
p913
g908
F177.51333725597593
tp914
a(g908
S'1162'
p915
F406.8549740484425
tp916
a(g915
S'994'
p917
F214.00601497593834
tp918
aF47.90245957682141
g910
S'2012-03-02 11:05:52'
p919
I29
F798.3743262803567
F392.15748697943224
tp920
a((lp921
(S'1162'
p922
g917
F214.00554635916873
tp923
a(g917
S'1162'
p924
F428.01156131254
tp925
a(g924
S'1211'
p926
F406.8549740484425
tp927
a(g926
S'1013'
p928
F19.766854582848733
tp929
aF549.5857386701142
g919
S'2012-03-02 11:05:59'
p930
I0
F1068.6389363029998
F1.127009608559566
tp931
a((lp932
(S'1211'
p933
g928
F335.25981272554674
tp934
a(g928
g908
F355.0266673083767
tp935
a(g908
g915
F253.02349545035824
tp936
aF72.25353003709392
g930
S'2012-03-02 11:06:46'
p937
I0
F943.3099754842817
F67.13147662334612
tp938
a((lp939
(g933
g933
F0.0
tp940
aF3.8814299664147875
g937
S'2012-03-02 11:07:32'
p941
I35
F49.59604957085561
F199.8228838232345
tp942
a((lp943
(g933
g915
F203.42752818522823
tp944
a(g915
S'792'
p945
F393.5275279288238
tp946
a(g945
S'814'
p947
F350.26427291339104
tp948
a(g947
S'991'
p949
F43.007517596471196
tp950
aF54.0123734522135
g941
S'2012-03-02 11:08:38'
p951
I40
F990.2268466239142
F358.16357930227895
tp952
a((lp953
(S'814'
p954
g949
F551.5441937478915
tp955
a(g949
S'814'
p956
F594.5517113284113
tp957
a(g956
S'994'
p958
F375.362399322151
tp959
a(g958
S'963'
p960
F521.73314507341
tp961
a(g960
g84
F372.349633212226
tp962
aF144.93246496104538
g951
S'2012-03-02 11:09:38'
p963
I27
F2415.54108268409
F613.9638488614887
tp964
a((lp965
(g89
g84
F141.51561644510892
tp966
a(g84
g91
F151.25606718078186
tp967
aF45.82513308926986
g963
S'2012-03-02 11:10:01'
p968
I53
F292.7716836258908
F109.9748589956272
tp969
a((lp970
(S'778'
p971
g91
F151.2560712772991
tp972
a(g91
g80
F302.5121384580218
tp973
a(g80
S'833'
p974
F579.573448966089
tp975
a(g974
S'974'
p976
F480.1669052301094
tp977
a(g976
S'1062'
p978
F183.41867360754313
tp979
a(g978
S'1061'
p980
F442.8992981334369
tp981
a(g980
S'1185'
p982
F186.6371677035762
tp983
aF110.20091226518255
g968
S'2012-03-02 11:11:17'
p984
I0
F2326.463703376076
F1036.707577681131
tp985
a((lp986
(S'1061'
p987
g982
F186.6367659651378
tp988
a(g982
S'1073'
p989
F401.933419412357
tp990
a(g989
S'1151'
p991
F100.7773324188454
tp992
aF5.979882082088734
g984
S'2012-03-02 11:18:12'
p993
I64
F689.3475177963402
F1174.8173786413165
tp994
a((lp995
(S'1073'
p996
g991
F653.1212662091667
tp997
a(g991
S'1073'
p998
F753.8985985699695
tp999
a(g998
g34
F401.933419412357
tp1000
a(g34
S'1061'
p1001
F373.27393365369306
tp1002
a(g1001
S'937'
p1003
F218.5503709289859
tp1004
aF7.737510581546124
g993
S'2012-03-02 11:36:49'
p1005
I0
F2400.7775887741723
F539.9142986152712
tp1006
a((lp1007
(g987
g1003
F712.0486666761585
tp1008
a(g1003
S'988'
p1009
F84.85729485795852
tp1010
a(g1009
S'777'
p1011
F428.69502991180303
tp1012
a(g1011
S'1185'
p1013
F442.897125984588
tp1014
aF200.21977409166098
g1005
S'2012-03-02 11:37:19'
p1015
I0
F1668.498117430508
F62.27477205715453
tp1016
a((lp1017
(S'777'
p1018
g1013
F22.66740602661895
tp1019
a(g1013
g36
F232.78220771594508
tp1020
aF16.133659815319835
g1015
S'2012-03-02 11:38:16'
p1021
I37
F255.44961374256403
F403.35983509012334
tp1022
a((lp1023
(g41
g36
F232.78232429736136
tp1024
a(g36
g1013
F465.5645320107461
tp1025
a(g1013
g989
F401.933419412357
tp1026
a(g989
S'987'
p1027
F585.3164976896943
tp1028
a(g1027
S'1229'
p1029
F51.48528265055302
tp1030
aF60.12976347902463
g1021
S'2012-03-02 11:40:00'
p1031
I0
F1737.0820560607117
F573.5350027568503
tp1032
a((lp1033
(S'987'
p1034
g1029
F777.1204577876802
tp1035
a(g1029
S'987'
p1036
F828.6057404004235
tp1037
a(g1036
S'1189'
p1038
F541.0596802687863
tp1039
a(g1038
S'887'
p1040
F105.94205205410044
tp1041
aF144.81822410427793
g1031
S'2012-03-02 11:40:56'
p1042
I0
F2252.72793051099
F83.1345073427124
tp1043
a((lp1044
(g30
g1040
F105.9419924101466
tp1045
a(g1040
S'1027'
p1046
F12.996976913357285
tp1047
aF7.136338159410234
g1042
S'2012-03-02 11:41:56'
p1048
I40
F118.93896932350388
F716.9808337615018
tp1049
a((lp1050
(S'887'
p1051
g1046
F961.3350739481917
tp1052
a(g1046
g15
F974.3320508593303
tp1053
a(g15
g23
F211.8840444636607
tp1054
a(g23
g25
F541.0596802687863
tp1055
a(g25
g32
F585.3164976896943
tp1056
a(g32
g34
F401.933419412357
tp1057
a(g34
g36
F465.5645320107461
tp1058
a(g36
g43
F428.69502991180303
tp1059
a(g43
g45
F152.49726409143645
tp1060
a(g45
g47
F190.65766483400054
tp1061
a(g47
g49
F633.0663908294133
tp1062
a(g49
S'873'
p1063
F478.3209950181186
tp1064
aF3.9971960036887473
g1048
S'2012-03-02 13:12:22'
p1065
I31
F6024.6626433375395
F3523.5597290214
tp1066
a((lp1067
(S'1154'
p1068
g1063
F181.34320308791993
tp1069
a(g1063
g154
F5581.023855259741
tp1070
a(g154
S'1286'
p1071
F873.144134384409
tp1072
a(g1071
S'1353'
p1073
F730.9442528414769
tp1074
aF88.39746534688256
g1065
S'2012-03-02 13:17:22'
p1075
I83
F7366.455445573547
F6499.419827652016
tp1076
a((lp1077
(S'1286'
p1078
g1073
F730.9417602630338
tp1079
a(g1073
S'1297'
p1080
F453.82758397469604
tp1081
aF52.014263893363754
g1075
S'2012-03-02 13:18:44'
p1082
I64
F1184.76934423773
F1547.7271444342252
tp1083
a((lp1084
(S'1353'
p1085
g1080
F453.8268690472802
tp1086
a(g1080
S'1280'
p1087
F330.23392593544827
tp1088
a(g1087
S'1245'
p1089
F291.41203018864644
tp1090
a(g1089
S'1348'
p1091
F780.823649611878
tp1092
a(g1091
S'1285'
p1093
F296.4752350214587
tp1094
a(g1093
S'1342'
p1095
F294.5727883921871
tp1096
aF50.3453725343362
g1082
S'2012-03-02 13:21:39'
p1097
I0
F2447.3444981968987
F2097.401556945782
tp1098
a((lp1099
(S'1285'
p1100
g1095
F294.57278335289345
tp1101
a(g1095
S'1285'
p1102
F589.1455717449389
tp1103
a(g1102
S'1348'
p1104
F296.4752350214587
tp1105
a(g1104
S'1245'
p1106
F390.41187425357583
tp1107
aF245.83389877140525
g1097
S'2012-03-02 13:22:02'
p1108
I70
F1570.605464372867
F124.54980351246982
tp1109
a((lp1110
(S'1348'
p1111
g1106
F390.41177549367706
tp1112
a(g1106
g1091
F780.823649611878
tp1113
a(g1091
g1093
F296.4752350214587
tp1114
a(g1093
g1095
F16.13096367970813
tp1115
aF205.45499406554612
g1108
S'2012-03-02 13:22:28'
p1116
I0
F1483.841623806722
F71.6739711763351
tp1117
a((lp1118
(g1100
g1095
F573.0146080652527
tp1119
a(g1095
S'1323'
p1120
F1214.1386040288944
tp1121
a(g1120
S'1276'
p1122
F931.5945861203788
tp1123
a(g1122
S'1340'
p1124
F1024.605135384947
tp1125
a(g1124
S'1244'
p1126
F434.2460432841478
tp1127
a(g1126
S'1322'
p1128
F267.73326804549595
tp1129
a(g1128
S'1375'
p1130
F251.1499504038258
tp1131
a(g1130
S'1272'
p1132
F124.4496772135746
tp1133
aF46.15785835416879
g1116
S'2012-03-02 13:28:44'
p1134
I44
F4820.931872546517
F3430.495528426997
tp1135
a((lp1136
(S'1375'
p1137
g1132
F93.81553049033191
tp1138
a(g1132
S'1368'
p1139
F147.3421200313114
tp1140
a(g1139
S'1357'
p1141
F667.1271214060235
tp1142
a(g1141
S'1374'
p1143
F422.86218447973016
tp1144
a(g1143
S'1337'
p1145
F194.49226177262986
tp1146
a(g1145
S'1327'
p1147
F76.45176755523912
tp1148
aF48.06272957205798
g1134
S'2012-03-02 13:30:44'
p1149
I74
F1602.090985735266
F1469.7037544777952
tp1150
a((lp1151
(S'1337'
p1152
g1147
F314.1895369451938
tp1153
a(g1147
g330
F433.91775760016844
tp1154
a(g330
S'1366'
p1155
F395.8211378514845
tp1156
a(g1155
S'341'
p1157
F435.96538015409175
tp1158
a(g1157
S'243'
p1159
F36.053651585813924
tp1160
aF96.95684784820514
g1149
S'2012-03-02 13:31:44'
p1161
I74
F1615.9474641367524
F1051.0789283519753
tp1162
a((lp1163
(S'341'
p1164
g1164
F0.0
tp1165
aF7.102327425502944
g1161
S'2012-03-02 13:34:10'
p1166
I29
F288.0388344787305
F288.14800955730925
tp1167
a((lp1168
(g1164
g1159
F314.0313205268209
tp1169
a(g1159
g322
F497.6064972180614
tp1170
a(g322
S'355'
p1171
F770.5077146010468
tp1172
a(g1171
S'347'
p1173
F247.43115168760858
tp1174
aF29.938527556912433
g1166
S'2012-03-02 13:37:50'
p1175
I53
F1829.5766840335377
F1367.7149161862876
tp1176
a((lp1177
(S'355'
p1178
g1173
F247.43116796181658
tp1179
a(g1173
S'355'
p1180
F494.86231964904096
tp1181
a(g1180
g314
F15.620085861213731
tp1182
aF143.60467707891877
g1175
S'2012-03-02 13:38:09'
p1183
I0
F757.9135734720712
F76.47236867943795
tp1184
a((lp1185
(g1178
g314
F1044.7811425424527
tp1186
a(g314
g316
F55.35792164407643
tp1187
aF66.00834385119175
g1183
S'2012-03-02 13:39:09'
p1188
I46
F1100.1390641865291
F989.8844693254813
tp1189
a((lp1190
(g314
g316
F1005.0433068077002
tp1191
a(g316
g314
F1060.4012283836928
tp1192
a(g314
S'18'
p1193
F354.4487681265
tp1194
aF2903.8719639814713
g1188
S'2012-03-02 13:39:12'
p1195
I0
F2419.893303317893
F0.244628839019434
tp1196
a((lp1197
(g314
g1193
F1000.1012981889197
tp1198
a(g1193
g314
F1354.550066312178
tp1199
a(g314
S'1307'
p1200
F493.8721802930258
tp1201
a(g1200
S'1324'
p1202
F900.6330117955955
tp1203
a(g1202
S'1338'
p1204
F851.0803173901818
tp1205
a(g1204
S'1385'
p1206
F390.9239723160365
tp1207
a(g1206
S'1239'
p1208
F774.24262055248
tp1209
a(g1208
g777
F393.6433366208233
tp1210
a(g777
g779
F335.7915781764397
tp1211
a(g779
g856
F228.31950497932885
tp1212
a(g856
S'250'
p1213
F369.9130616166849
tp1214
a(g1213
S'99'
p1215
F357.08264510379934
tp1216
aF87.93623913456975
g1195
S'2012-03-02 13:44:17'
p1217
I0
F7450.1535933454925
F3309.3313132273465
tp1218
a((lp1219
(S'250'
p1220
g1220
F0.0
tp1221
aF0.0
g1217
S'2012-03-02 13:45:04'
p1222
I40
F0.0
F319.57792625383235
tp1223
a((lp1224
(g1220
g1215
F357.08401268994385
tp1225
a(g1215
S'172'
p1226
F420.5017683308278
tp1227
aF46.65514686124631
g1222
S'2012-03-02 13:46:04'
p1228
I40
F777.5857810207717
F720.1272318397118
tp1229
a((lp1230
(g296
g1226
F550.1276253087011
tp1231
a(g1226
S'99'
p1232
F970.6293936388311
tp1233
a(g1232
g823
F634.6465544405745
tp1234
a(g823
g753
F195.73727341438163
tp1235
aF141.0684508081493
g1228
S'2012-03-02 13:47:04'
p1236
I38
F2351.1408468024883
F485.1118528462046
tp1237
a((lp1238
(S'451'
p1239
g753
F195.73729249951427
tp1240
a(g753
S'451'
p1241
F391.4745659135401
tp1242
a(g1241
g825
F115.38672988799838
tp1243
aF2529.35491788379
g1236
S'2012-03-02 13:47:05'
p1244
I0
F702.5985883010528
F0.8358372438549311
tp1245
a((lp1246
(g1239
g825
F115.38672269158579
tp1247
a(g825
g827
F711.8157605305048
tp1248
a(g827
g829
F91.14836623522923
tp1249
aF8.81616815479027
g1244
S'2012-03-02 13:53:20'
p1250
I0
F918.3508494573198
F103.95621353593229
tp1251
a((lp1252
(g834
g834
F0.0
tp1253
aF0.10405018093880307
g1250
S'2012-03-02 13:53:21'
p1254
I0
F0.028902828038556407
F0.2446288383121109
tp1255
a((lp1256
(g834
g829
F582.770328448961
tp1257
a(g829
g836
F673.8897918142452
tp1258
a(g836
g749
F466.79993372054844
tp1259
aF387.77851214634484
g1254
S'2012-03-02 13:53:37'
p1260
I0
F1723.4600539837547
F31.912410328522434
tp1261
a((lp1262
(g834
g749
F245.0158268113316
tp1263
a(g749
g751
F230.77345257950506
tp1264
a(g751
S'1303'
p1265
F558.7300773543896
tp1266
a(g1265
S'1137'
p1267
F725.1210142806609
tp1268
a(g1267
g265
F46.6642692153911
tp1269
aF43.06421658853379
g1260
S'2012-03-02 13:56:08'
p1270
I14
F1806.3046402412783
F1430.8698442500488
tp1271
a((lp1272
(g262
g265
F780.8578978976345
tp1273
a(g265
S'271'
p1274
F145.11526125056932
tp1275
aF46.29865795741019
g1270
S'2012-03-02 13:57:20'
p1276
I31
F925.9731591482039
F814.7757376004453
tp1277
a((lp1278
(S'1072'
p1279
g1274
F310.023614130731
tp1280
a(g1274
S'336'
p1281
F145.7434125243181
tp1282
a(g1281
S'5'
p1283
F276.60213113766173
tp1284
a(g1283
S'336'
p1285
F138.301062532923
tp1286
aF89.55465123349377
g1276
S'2012-03-02 13:57:55'
p1287
I44
F870.6702203256339
F315.9185837523093
tp1288
a((lp1289
(g1283
g1285
F138.30106860481882
tp1290
a(g1285
g1283
F276.60213113766173
tp1291
a(g1283
S'231'
p1292
F373.65454097386885
tp1293
a(g1292
g683
F2128.2368240663845
tp1294
a(g683
g668
F930.3605400765287
tp1295
a(g668
S'888'
p1296
F159.02761812082116
tp1297
aF109.25952880854774
g1287
S'2012-03-02 14:00:07'
p1298
I0
F4006.182722980084
F2124.5821995560036
tp1299
a((lp1300
(S'923'
p1301
g1296
F159.02793089417165
tp1302
a(g1296
S'1213'
p1303
F398.42229143270566
tp1304
a(g1303
S'1066'
p1305
F126.00604095646439
tp1306
a(g1305
g587
F134.29559832461862
tp1307
a(g587
S'1020'
p1308
F201.74042609344684
tp1309
a(g1308
S'1145'
p1310
F138.3852165812993
tp1311
a(g1310
S'1104'
p1312
F725.1024325879025
tp1313
a(g1312
S'1209'
p1314
F340.0113446486208
tp1315
a(g1314
S'1222'
p1316
F264.89961452195024
tp1317
aF82.929696534706
g1298
S'2012-03-02 14:01:55'
p1318
I0
F2487.89089604118
F856.9769981845726
tp1319
a((lp1320
(S'1209'
p1321
g1316
F264.90095175928997
tp1322
a(g1316
S'886'
p1323
F498.13109666342655
tp1324
a(g1323
S'1233'
p1325
F203.95830291726205
tp1326
a(g1325
S'820'
p1327
F255.3750506846333
tp1328
a(g1327
S'887'
p1329
F1042.7797147525323
tp1330
a(g1329
S'989'
p1331
F108.6889780461137
tp1332
aF33.38204195845207
g1318
S'2012-03-02 14:06:11'
p1333
I31
F2373.834094823258
F2269.3902000947633
tp1334
a((lp1335
(g1051
g1331
F582.2273603605342
tp1336
a(g1331
S'1230'
p1337
F396.62742466432553
tp1338
a(g1337
S'812'
p1339
F176.24844159783433
tp1340
aF69.30619359736166
g1333
S'2012-03-02 14:07:11'
p1341
I42
F1155.1032266226941
F514.314921508772
tp1342
a((lp1343
(S'1230'
p1344
g1339
F176.24913595514033
tp1345
a(g1339
S'1230'
p1346
F352.49757753977093
tp1347
a(g1346
S'989'
p1348
F396.62742466432553
tp1349
a(g1348
S'887'
p1350
F690.9163383539549
tp1351
a(g1350
g23
F211.8840444636607
tp1352
a(g23
g25
F270.52965352844495
tp1353
aF5.091196110659752
g1341
S'2012-03-02 14:31:55'
p1354
I46
F2098.7041745052975
F532.9189618724247
tp1355
a((lp1356
(g30
g25
F270.53002674972004
tp1357
a(g25
g1038
F541.0596802687863
tp1358
a(g1038
g1040
F211.8840444636607
tp1359
a(g1040
S'820'
p1360
F521.3918988810026
tp1361
aF347.59477133171316
g1354
S'2012-03-02 14:32:11'
p1362
I0
F1544.8656503631696
F59.55261713142488
tp1363
a((lp1364
(g1051
g1360
F521.3878162028419
tp1365
a(g1360
S'1233'
p1366
F255.3750506846333
tp1367
a(g1366
g649
F203.95830291726205
tp1368
a(g649
g651
F498.13109666342655
tp1369
a(g651
g549
F11.928881917178861
tp1370
aF20.328833841618305
g1362
S'2012-03-02 14:36:35'
p1371
I25
F1490.7811483853425
F1372.400823114396
tp1372
a((lp1373
(S'1222'
p1374
g549
F517.8716843239011
tp1375
a(g549
g551
F340.0113446486208
tp1376
a(g551
S'1145'
p1377
F725.1024325879025
tp1378
a(g1377
S'1028'
p1379
F210.6065185280842
tp1380
a(g1379
S'772'
p1381
F230.208379433524
tp1382
a(g1381
S'819'
p1383
F61.55077004609179
tp1384
aF113.74642524917041
g1371
S'2012-03-02 14:37:41'
p1385
I29
F2085.351129568124
F385.1892742456808
tp1386
a((lp1387
(S'772'
p1388
g1383
F170.48772587835433
tp1389
a(g1383
g647
F140.052458302599
tp1390
aF85.99574331164862
g1385
S'2012-03-02 14:37:54'
p1391
I7
F310.54018418095336
F3.8005429510644837
tp1392
a((lp1393
(S'819'
p1394
g647
F140.05273812434007
tp1395
a(g647
g649
F203.95830291726205
tp1396
a(g649
g651
F498.13109666342655
tp1397
a(g651
g658
F157.21078570864503
tp1398
aF39.97411693654695
g1391
S'2012-03-02 14:39:24'
p1399
I0
F999.3529234136737
F333.1784791573718
tp1400
a((lp1401
(g1374
g658
F157.21072166279825
tp1402
a(g658
g547
F314.42150737049457
tp1403
a(g547
g1323
F317.2814381160223
tp1404
aF59.16852503619864
g1399
S'2012-03-02 14:40:12'
p1405
I0
F788.9136671493151
F69.00129711170878
tp1406
a((lp1407
(g1374
g1323
F180.84965855048512
tp1408
a(g1323
g1325
F203.95830291726205
tp1409
a(g1325
g1327
F255.3750506846333
tp1410
a(g1327
S'970'
p1411
F123.86886871137345
tp1412
aF25.948931802919947
g1405
S'2012-03-02 14:41:58'
p1413
I22
F764.0518808637539
F414.5265979047647
tp1414
a((lp1415
(S'820'
p1416
g1411
F123.8689732074665
tp1417
a(g1411
g634
F300.1901722143531
tp1418
a(g634
g641
F231.70867622577373
tp1419
a(g641
S'1030'
p1420
F230.54817177966603
tp1421
a(g1420
S'1215'
p1422
F114.82341001656353
tp1423
aF124.27937422061251
g1413
S'2012-03-02 14:42:27'
p1424
I0
F1001.139403443823
F52.43027313672758
tp1425
a((lp1426
(S'1030'
p1427
g1422
F114.82317600956684
tp1428
a(g1422
S'1111'
p1429
F235.85216675763905
tp1430
a(g1429
S'1046'
p1431
F224.7758530051457
tp1432
a(g1431
S'869'
p1433
F78.08605947708458
tp1434
aF39.21223531496617
g1424
S'2012-03-02 14:43:27'
p1435
I14
F653.5372552494362
F252.11059114245182
tp1436
a((lp1437
(S'1046'
p1438
g1433
F78.08607554007757
tp1439
a(g1433
S'1046'
p1440
F156.17213501704404
tp1441
a(g1440
S'1069'
p1442
F233.21024744024461
tp1443
a(g1442
g610
F175.76823071049492
tp1444
aF13.08278010931243
g1435
S'2012-03-02 14:46:24'
p1445
I14
F643.2366887078612
F852.4219796320756
tp1446
a((lp1447
(S'1069'
p1448
g610
F124.42194151172663
tp1449
a(g610
g612
F377.3364418971982
tp1450
a(g612
g614
F268.4210662990969
tp1451
a(g614
S'1016'
p1452
F364.23495779569595
tp1453
a(g1452
S'895'
p1454
F182.11747952052085
tp1455
aF78.9919132214543
g1445
S'2012-03-02 14:47:24'
p1456
I12
F1316.5318870242384
F256.7201948498243
tp1457
a((lp1458
(S'1016'
p1459
g1454
F182.11747827519673
tp1460
a(g1454
g1452
F182.11747827519673
tp1461
aF35.439076853551796
g1456
S'2012-03-02 14:48:01'
p1462
I7
F364.23495655039346
F36.24643090144836
tp1463
a((lp1464
(g621
g1452
F182.11747952052085
tp1465
a(g1452
g1454
F364.23495779569595
tp1466
a(g1454
g625
F268.4210662990969
tp1467
a(g625
S'986'
p1468
F231.65758300061262
tp1469
aF58.86174862214587
g1462
S'2012-03-02 14:49:05'
p1470
I18
F1046.4310866159265
F294.8210510483106
tp1471
a((lp1472
(g632
g1468
F231.65772823205882
tp1473
a(g1468
S'774'
p1474
F463.31531120431856
tp1475
a(g1474
g614
F268.4210662990969
tp1476
a(g614
g616
F249.3697768587104
tp1477
a(g616
g623
F124.68490737910783
tp1478
aF80.24692739839756
g1470
S'2012-03-02 14:50:05'
p1479
I0
F1337.4487899732926
F11.859785468422938
tp1480
a((lp1481
(S'1229'
p1482
g623
F124.68486948402185
tp1483
a(g623
S'973'
p1484
F222.1783217364848
tp1485
aF24.974149767876483
g1479
S'2012-03-02 14:50:55'
p1486
I0
F346.8631912205067
F55.09314893842491
tp1487
a((lp1488
(g621
g1484
F222.17837349862467
tp1489
a(g1484
S'895'
p1490
F444.35669521011835
tp1491
a(g1490
g616
F249.3697768587104
tp1492
a(g616
g623
F124.68490737910783
tp1493
aF39.43287484850127
g1486
S'2012-03-02 14:52:30'
p1494
I25
F1040.5897529465612
F391.0070337045838
tp1495
a((lp1496
(g1482
g623
F124.68486948402185
tp1497
a(g623
g625
F268.4210662990969
tp1498
a(g625
g1468
F463.31531120431856
tp1499
a(g1468
S'1218'
p1500
F358.14186459779336
tp1501
aF72.87378669511384
g1494
S'2012-03-02 14:53:30'
p1502
I40
F1214.5631115852307
F761.7386885158622
tp1503
a((lp1504
(S'986'
p1505
g1500
F65.20519686318764
tp1506
a(g1500
S'1045'
p1507
F380.2508287917065
tp1508
a(g1507
S'844'
p1509
F161.05814139702346
tp1510
a(g1509
S'955'
p1511
F135.70247565144197
tp1512
a(g1511
S'813'
p1513
F56.66466961496389
tp1514
a(g1513
S'921'
p1515
F182.17650096521103
tp1516
a(g1515
S'927'
p1517
F195.5482192140499
tp1518
a(g1517
S'959'
p1519
F106.9390388791336
tp1520
a(g1519
g575
F135.9977572931447
tp1521
a(g575
g564
F134.29559832461862
tp1522
a(g564
g578
F5.848001506815009
tp1523
aF26.737481631450798
g1502
S'2012-03-02 14:57:00'
p1524
I38
F1559.6864285012966
F1419.974075559215
tp1525
a((lp1526
(g583
g578
F401.6863505516333
tp1527
a(g578
g675
F930.3605400765287
tp1528
a(g675
g685
F17.939580174300538
tp1529
aF55.861509136653616
g1524
S'2012-03-02 14:58:27'
p1530
I27
F1349.9864708024625
F787.3523003090768
tp1531
a((lp1532
(g673
g685
F498.4345978589696
tp1533
a(g685
S'121'
p1534
F355.28771301773605
tp1535
a(g1534
S'307'
p1536
F177.64391791538793
tp1537
aF106.08338353290107
g1530
S'2012-03-02 14:59:02'
p1538
I0
F1031.3662287920936
F66.26087809926813
tp1539
a((lp1540
(S'121'
p1541
g1536
F177.64379510438962
tp1542
a(g1536
g687
F336.87317808984017
tp1543
a(g687
g689
F348.33486400960794
tp1544
a(g689
g691
F522.2079091612247
tp1545
a(g691
g693
F505.9919712639641
tp1546
a(g693
g695
F343.4160234801613
tp1547
a(g695
g697
F502.52151206068487
tp1548
a(g697
g699
F899.3736486026992
tp1549
a(g699
g701
F1654.504702992569
tp1550
a(g701
S'348'
p1551
F749.9190888032648
tp1552
a(g1551
g535
F374.95941736789916
tp1553
aF192.47238332808917
g1538
S'2012-03-02 15:01:02'
p1554
I40
F6415.746110936305
F1704.4189195993606
tp1555
a((lp1556
(g456
g456
F0.0
tp1557
aF0.0
g1554
S'2012-03-02 15:01:03'
p1558
I0
F0.0
F0.8799105979087741
tp1559
a((lp1560
(g456
g535
F374.95967144438504
tp1561
a(g535
g1551
F749.9190888032648
tp1562
a(g1551
S'423'
p1563
F401.7062149289834
tp1564
a(g1563
S'27'
p1565
F360.14779166603097
tp1566
a(g1565
S'107'
p1567
F137.07008971795565
tp1568
aF99.80397648792098
g1558
S'2012-03-02 15:02:16'
p1569
I0
F2023.8028565606198
F475.75218297735967
tp1570
a((lp1571
(S'27'
p1572
g1567
F1240.8713854988682
tp1573
a(g1567
S'27'
p1574
F1377.9414749341843
tp1575
a(g1574
g447
F360.14779166603097
tp1576
a(g447
S'87'
p1577
F361.77675397957495
tp1578
aF364.4440806631264
g1569
S'2012-03-02 15:02:49'
p1579
I0
F3340.7374060786588
F53.68984741127509
tp1580
a((lp1581
(S'423'
p1582
g1577
F361.7796028329469
tp1583
a(g1577
S'423'
p1584
F723.5563566983903
tp1585
a(g1584
g1565
F360.14779166603097
tp1586
a(g1565
S'312'
p1587
F335.3367748423742
tp1588
a(g1587
g425
F475.1534412115984
tp1589
a(g425
S'131'
p1590
F418.863787732488
tp1591
aF25.340568205109957
g1579
S'2012-03-02 15:09:09'
p1592
I33
F2674.8377549838287
F1169.1098281007053
tp1593
a((lp1594
(g423
g423
F0.0
tp1595
aF0.0
g1592
S'2012-03-02 15:10:09'
p1596
I0
F0.0
F7.838053079284042
tp1597
a((lp1598
(g423
g1590
F418.86098091513503
tp1599
a(g1590
g416
F837.7247684747507
tp1600
a(g416
g427
F462.01737465791564
tp1601
aF475.9208651209296
g1596
S'2012-03-02 15:10:22'
p1602
I0
F1718.6031240478014
F0.8355955715041296
tp1603
a((lp1604
(g423
g427
F199.45814636901014
tp1605
a(g427
g433
F198.35340031405778
tp1606
aF7.269652629741343
g1602
S'2012-03-02 15:13:39'
p1607
I0
F397.81154668306795
F7.69594323652195
tp1608
a((lp1609
(g438
g433
F463.1221207128261
tp1610
a(g433
g427
F464.4436161344745
tp1611
aF20.486114433437315
g1607
S'2012-03-02 15:16:22'
p1612
I0
F927.5657368473005
F6.801653353744372
tp1613
a((lp1614
(g423
g427
F197.03190489235877
tp1615
a(g427
g433
F661.4755210137
tp1616
a(g433
g1590
F272.5917416679029
tp1617
aF5.525043423699135
g1612
S'2012-03-02 15:28:39'
p1618
I0
F1131.0991675739617
F531.4108859760793
tp1619
a((lp1620
(g423
g1590
F565.1330269587498
tp1621
a(g1590
S'107'
p1622
F269.0371341692761
tp1623
a(g1622
g487
F163.7419963427963
tp1624
aF59.874729448249326
g1618
S'2012-03-02 15:29:39'
p1625
I66
F997.9121574708222
F687.686438645218
tp1626
a((lp1627
(g414
g487
F163.74252662849955
tp1628
a(g487
g493
F146.62123309864816
tp1629
a(g493
g495
F161.32840893425416
tp1630
a(g495
g497
F0.5395521652416461
tp1631
aF21.795310191998933
g1625
S'2012-03-02 15:30:57'
p1632
I24
F472.23172082664354
F451.79998993558496
tp1633
a((lp1634
(S'448'
p1635
g497
F131.4272041304521
tp1636
a(g497
g499
F131.96675629555088
tp1637
a(g499
S'288'
p1638
F161.32840893425416
tp1639
a(g1638
g387
F146.62123309864816
tp1640
a(g387
g493
F86.06330310368351
tp1641
aF76.34402774275225
g1632
S'2012-03-02 15:31:28'
p1642
I0
F657.4069055625888
F52.87915377503873
tp1643
a((lp1644
(S'46'
p1645
g493
F60.557929995379276
tp1646
a(g493
S'461'
p1647
F213.86956785060167
tp1648
a(g1647
S'76'
p1649
F209.84399480520491
tp1650
a(g1649
S'328'
p1651
F346.3200101709634
tp1652
aF24.917745084664478
g1642
S'2012-03-02 15:33:28'
p1653
I20
F830.5915028221493
F647.619468969284
tp1654
a((lp1655
(g403
g1651
F218.23106964481426
tp1656
a(g1651
g381
F208.72880849237106
tp1657
a(g381
g383
F529.8768660045189
tp1658
a(g383
g385
F213.86956785060167
tp1659
a(g385
g495
F161.32840893425416
tp1660
a(g495
g497
F131.96675629555088
tp1661
a(g497
g499
F65.98345145874035
tp1662
aF77.57670060916992
g1653
S'2012-03-02 15:34:39'
p1663
I18
F1529.984928680851
F346.7624361480981
tp1664
a((lp1665
(g504
g499
F65.98330483756305
tp1666
a(g499
S'95'
p1667
F157.70765821180296
tp1668
a(g1667
S'240'
p1669
F127.80883090513126
tp1670
a(g1669
S'329'
p1671
F139.63295758179322
tp1672
aF55.25243454783268
g1663
S'2012-03-02 15:35:11'
p1673
I0
F491.13275153629047
F39.19595465213677
tp1674
a((lp1675
(S'240'
p1676
g1671
F139.63345183483727
tp1677
a(g1671
g480
F279.26640940993445
tp1678
a(g480
g482
F127.80883090513126
tp1679
a(g482
g484
F169.5426482928923
tp1680
a(g484
g493
F73.31058608450833
tp1681
aF8.827400420802153
g1673
S'2012-03-02 15:40:33'
p1682
I24
F789.5619265273036
F183.30604378332944
tp1683
a((lp1684
(g1645
g493
F73.31064701454076
tp1685
a(g493
g495
F161.32840893425416
tp1686
a(g495
g497
F131.96675629555088
tp1687
a(g497
g499
F65.98345145874035
tp1688
aF86.51785274061722
g1682
S'2012-03-02 15:40:51'
p1689
I0
F432.5892637030861
F32.23034346275071
tp1690
a((lp1691
(g504
g504
F0.0
tp1692
aF0.0
g1689
S'2012-03-02 15:41:27'
p1693
I31
F0.0
F213.45740457264662
tp1694
a((lp1695
(g504
g499
F65.98330483756305
tp1696
a(g499
g1638
F161.32840893425416
tp1697
a(g1638
g1647
F213.86956785060167
tp1698
a(g1647
g1649
F209.84399480520491
tp1699
a(g1649
S'39'
p1700
F384.48890299753157
tp1701
a(g1700
S'85'
p1702
F233.82885610286075
tp1703
a(g1702
S'456'
p1704
F200.88497800248174
tp1705
a(g1704
S'444'
p1706
F253.90359723676275
tp1707
aF59.11308379773466
g1693
S'2012-03-02 15:43:12'
p1708
I42
F1724.1316107672608
F1034.2196808850504
tp1709
a((lp1710
(S'456'
p1711
g1706
F131.59045996431192
tp1712
a(g1706
S'249'
p1713
F192.01126587807087
tp1714
a(g1713
S'105'
p1715
F575.8476902730262
tp1716
a(g1715
S'157'
p1717
F366.4817423643772
tp1718
a(g1717
S'66'
p1719
F986.920472794794
tp1720
a(g1719
S'177'
p1721
F280.97647332925493
tp1722
a(g1721
S'238'
p1723
F601.6634620718969
tp1724
a(g1723
S'123'
p1725
F297.8794616636202
tp1726
a(g1725
S'436'
p1727
F18.248903139765787
tp1728
aF65.05671075039176
g1708
S'2012-03-02 15:46:23'
p1729
I66
F3451.619931479118
F3161.0691019923793
tp1730
a((lp1731
(S'123'
p1732
g1727
F356.36987006487993
tp1733
a(g1727
S'123'
p1734
F374.6187732028866
tp1735
a(g1734
S'257'
p1736
F496.1147848574999
tp1737
a(g1736
S'197'
p1738
F723.3936380880388
tp1739
a(g1738
S'192'
p1740
F177.82283624340278
tp1741
aF107.91481195555139
g1729
S'2012-03-02 15:47:34'
p1742
I0
F2128.319902456708
F939.0146400209926
tp1743
a((lp1744
(S'197'
p1745
g1740
F177.8218359334325
tp1746
a(g1740
S'404'
p1747
F432.40466215617846
tp1748
aF18.00668355018524
g1742
S'2012-03-02 15:49:36'
p1749
I64
F610.2264980896109
F1110.193798308259
tp1750
a((lp1751
(S'192'
p1752
g1747
F1526.401104065566
tp1753
a(g1747
S'63'
p1754
F674.0824370101584
tp1755
aF132.02901246454346
g1749
S'2012-03-02 15:50:36'
p1756
I42
F2200.483541075724
F1122.1451458464799
tp1757
a((lp1758
(S'404'
p1759
g1759
F0.0
tp1760
aF27.57377690286013
g1756
S'2012-03-02 15:51:36'
p1761
I48
F459.5629483810021
F629.5194695008956
tp1762
a((lp1763
(g1759
g1759
F0.0
tp1764
aF11.565249554245785
g1761
S'2012-03-02 15:52:09'
p1765
I50
F106.01478758058636
F114.5592387874008
tp1766
a((lp1767
(g1759
g1754
F1027.6429021159904
tp1768
a(g1754
S'163'
p1769
F776.5288468757814
tp1770
a(g1769
S'50'
p1771
F342.83629405796165
tp1772
a(g1771
S'163'
p1773
F171.41824013855907
tp1774
aF46.36852566376586
g1765
S'2012-03-02 15:55:09'
p1775
I38
F2318.426283188293
F1691.1335413213594
tp1776
a((lp1777
(S'50'
p1778
g1773
F171.4180539223534
tp1779
a(g1773
S'63'
p1780
F776.5288468757814
tp1781
a(g1780
S'404'
p1782
F1348.1771778466043
tp1783
a(g1782
S'192'
p1784
F979.3945767178745
tp1785
aF43.352452791564005
g1775
S'2012-03-02 15:59:41'
p1786
I0
F3275.5186553626136
F1795.0101807140773
tp1787
a((lp1788
(g1759
g1784
F979.4111901972366
tp1789
a(g1784
g1747
F1958.8057646923883
tp1790
a(g1747
g1754
F1348.1771778466043
tp1791
a(g1754
g1769
F776.5288468757814
tp1792
a(g1769
g1771
F342.83629405796165
tp1793
a(g1771
S'296'
p1794
F899.0793771111934
tp1795
a(g1794
S'358'
p1796
F271.20428853774837
tp1797
a(g1796
S'146'
p1798
F569.3222432001658
tp1799
a(g1798
S'428'
p1800
F1975.1112733847385
tp1801
a(g1800
S'1236'
p1802
F1389.6055465674801
tp1803
a(g1802
S'1287'
p1804
F500.94138389154773
tp1805
a(g1804
S'1253'
p1806
F215.9995211997082
tp1807
a(g1806
S'1379'
p1808
F169.6879575593227
tp1809
a(g1808
S'1399'
p1810
F365.18936542563927
tp1811
a(g1810
S'1327'
p1812
F433.91775760016844
tp1813
a(g1812
S'1358'
p1814
F197.1367679524997
tp1815
a(g1814
S'243'
p1816
F820.1452521497176
tp1817
a(g1816
g322
F497.6064972180614
tp1818
a(g322
g1171
F770.5077146010468
tp1819
a(g1171
S'367'
p1820
F720.0000486655169
tp1821
a(g1820
S'119'
p1822
F713.9276386045469
tp1823
a(g1822
S'18'
p1824
F613.0875607873952
tp1825
a(g1824
S'75'
p1826
F607.417478032252
tp1827
a(g1826
S'158'
p1828
F1096.7354764412723
tp1829
a(g1828
S'398'
p1830
F16.320857744858415
tp1831
aF217.53421128887902
g1786
S'2012-03-02 16:04:43'
p1832
I35
F18248.703280344853
F2600.2547412930194
tp1833
a((lp1834
(S'158'
p1835
g1830
F964.2283479107818
tp1836
a(g1830
S'340'
p1837
F558.1102590589925
tp1838
aF70.26178186014344
g1832
S'2012-03-02 16:06:01'
p1839
I0
F1522.3386069697744
F810.4236978834247
tp1840
a((lp1841
(S'398'
p1842
g1837
F558.1150884934332
tp1843
a(g1837
S'398'
p1844
F1116.2253471445076
tp1845
a(g1844
S'294'
p1846
F581.9794787312672
tp1847
a(g1846
S'1385'
p1848
F847.6105871905463
tp1849
aF62.0786100311951
g1839
S'2012-03-02 16:09:01'
p1850
I53
F3103.9305015597547
F281.1308890361404
tp1851
a((lp1852
(S'294'
p1853
g1848
F847.6106734825771
tp1854
a(g1848
g1208
F774.24262055248
tp1855
a(g1208
g777
F393.6433366208233
tp1856
a(g777
g779
F335.7915781764397
tp1857
a(g779
g808
F691.146827141222
tp1858
a(g808
g234
F612.8101096718462
tp1859
a(g234
g236
F228.23448105151797
tp1860
a(g236
g1241
F391.4745659135401
tp1861
a(g1241
g289
F63.67426206497893
tp1862
aF50.711241678024464
g1850
S'2012-03-02 16:14:09'
p1863
I55
F4338.628454675426
F3141.2254383328454
tp1864
a((lp1865
(g1239
g289
F570.9722924024561
tp1866
a(g289
g823
F634.6465544405745
tp1867
a(g823
g1265
F8.863312371818452
tp1868
aF53.97698485399329
g1863
S'2012-03-02 16:15:30'
p1869
I0
F1214.482159214849
F74.3549115957354
tp1870
a((lp1871
(g1239
g1265
F549.8667649856586
tp1872
a(g1265
g1267
F124.18931808554214
tp1873
aF40.44336498427205
g1869
S'2012-03-02 16:16:30'
p1874
I40
F674.0560830712008
F673.5753193364453
tp1875
a((lp1876
(g287
g1267
F600.9316962578779
tp1877
a(g1267
g265
F72.23297694223601
tp1878
aF24.47871538909505
g1874
S'2012-03-02 16:18:09'
p1879
I51
F673.1646732001138
F617.8380578523289
tp1880
a((lp1881
(g262
g265
F755.2891901880398
tp1882
a(g265
g1274
F455.13887535379115
tp1883
a(g1274
g1281
F145.7434125243181
tp1884
a(g1281
g1283
F276.60213113766173
tp1885
a(g1283
S'26'
p1886
F77.60702672891983
tp1887
aF43.98121635255593
g1879
S'2012-03-02 16:20:29'
p1888
I37
F1710.3806359327307
F1153.5850386585414
tp1889
a((lp1890
(g1283
g1886
F181.7495622575191
tp1891
a(g1886
g1283
F259.35658898200876
tp1892
a(g1283
g1292
F373.65454097386885
tp1893
a(g1292
g683
F2128.2368240663845
tp1894
a(g683
g668
F930.3605400765287
tp1895
a(g668
g585
F203.7664193135748
tp1896
aF108.72331935119692
g1888
S'2012-03-02 16:22:44'
p1897
I38
F4077.1244756698848
F2078.2519336456335
tp1898
a((lp1899
(g1301
g585
F203.76793276645955
tp1900
a(g585
g587
F134.29559832461862
tp1901
a(g587
S'915'
p1902
F418.6803844186766
tp1903
a(g1902
S'121'
p1904
F158.62328613807864
tp1905
aF131.81287703728805
g1897
S'2012-03-02 16:23:09'
p1906
I0
F915.3672016478336
F36.868340482988664
tp1907
a((lp1908
(g562
g1904
F158.62320526527418
tp1909
a(g1904
g555
F317.2464914021481
tp1910
a(g555
g557
F418.6803844186766
tp1911
a(g557
g589
F135.9977572931447
tp1912
a(g589
S'927'
p1913
F106.9390388791336
tp1914
a(g1913
S'1135'
p1915
F240.4485615059529
tp1916
a(g1915
S'982'
p1917
F260.3284916704843
tp1918
aF71.92378231177234
g1906
S'2012-03-02 16:24:31'
p1919
I0
F1638.2639304348145
F612.6398812939507
tp1920
a((lp1921
(S'1135'
p1922
g1917
F260.32987108772363
tp1923
a(g1917
S'1135'
p1924
F520.658362716069
tp1925
a(g1924
S'927'
p1926
F240.4485615059529
tp1927
a(g1926
S'921'
p1928
F195.5482192140499
tp1929
a(g1928
S'806'
p1930
F107.48268907765393
tp1931
a(g1930
S'1020'
p1932
F121.04821923111128
tp1933
aF1734.6191073990728
g1919
S'2012-03-02 16:24:34'
p1934
I0
F1445.5159228325606
F1.703483585689505
tp1935
a((lp1936
(g598
g1932
F16.461407883167503
tp1937
a(g1932
S'806'
p1938
F137.50962711414766
tp1939
a(g1938
g593
F141.0377369821515
tp1940
a(g593
S'806'
p1941
F70.51891718618961
tp1942
aF6.782988046373004
g1934
S'2012-03-02 16:27:48'
p1943
I0
F365.5276891656563
F571.883504072268
tp1944
a((lp1945
(S'1207'
p1946
g1941
F70.51881979679669
tp1947
a(g1941
S'921'
p1948
F107.48268907765393
tp1949
a(g1948
g1517
F195.5482192140499
tp1950
a(g1517
g1915
F240.4485615059529
tp1951
a(g1915
g1917
F260.3284916704843
tp1952
aF52.45960687589627
g1943
S'2012-03-02 16:28:48'
p1953
I25
F874.3267812649378
F325.1883298928548
tp1954
a((lp1955
(g1922
g1917
F260.32987108772363
tp1956
a(g1917
g1924
F520.658362716069
tp1957
a(g1924
g1926
F240.4485615059529
tp1958
a(g1926
g1519
F106.9390388791336
tp1959
a(g1519
g575
F135.9977572931447
tp1960
a(g575
g1902
F151.69099929714702
tp1961
aF12.938661235545725
g1953
S'2012-03-02 16:35:22'
p1962
I11
F1416.0645907791709
F692.1808194295087
tp1963
a((lp1964
(S'1170'
p1965
g1902
F266.9893851233244
tp1966
a(g1902
g557
F418.6803844186766
tp1967
a(g557
g564
F134.29559832461862
tp1968
a(g564
g578
F375.2281016500351
tp1969
aF195.5771131936344
g1962
S'2012-03-02 16:35:44'
p1970
I0
F1195.1934695166547
F49.30334433840854
tp1971
a((lp1972
(g583
g578
F32.30625041376993
tp1973
a(g578
g1296
F318.05554901056104
tp1974
a(g1296
S'923'
p1975
F159.02793089417165
tp1976
aF19.9326416211588
g1970
S'2012-03-02 16:37:16'
p1977
I25
F509.38973031850264
F178.7434422602431
tp1978
a((lp1979
(S'888'
p1980
g1975
F159.02761812082116
tp1981
a(g1975
g585
F407.53435205726896
tp1982
a(g585
g587
F134.29559832461862
tp1983
a(g587
g1902
F418.6803844186766
tp1984
a(g1902
g1904
F158.62328613807864
tp1985
aF353.95234312415926
g1977
S'2012-03-02 16:37:29'
p1986
I0
F1278.161239059464
F69.32149668670262
tp1987
a((lp1988
(g562
g1904
F158.62320526527418
tp1989
a(g1904
g1536
F355.28771301773605
tp1990
a(g1536
g666
F516.3741780275716
tp1991
a(g666
g677
F2.008184790648477
tp1992
aF97.7962055780113
g1986
S'2012-03-02 16:38:07'
p1993
I37
F1032.2932811012304
F258.9399644527532
tp1994
a((lp1995
(g673
g677
F2126.2286392865694
tp1996
a(g677
g683
F2128.2368240663845
tp1997
a(g683
g685
F258.18637125569205
tp1998
aF174.68329682356048
g1993
S'2012-03-02 16:39:40'
p1999
I0
F4512.651834608646
F926.0524986550015
tp2000
a((lp2001
(g673
g685
F258.18780681327013
tp2002
a(g685
g687
F336.87317808984017
tp2003
a(g687
g689
F348.33486400960794
tp2004
a(g689
g691
F522.2079091612247
tp2005
a(g691
g693
F505.9919712639641
tp2006
a(g693
g695
F343.4160234801613
tp2007
a(g695
g697
F502.52151206068487
tp2008
a(g697
S'200'
p2009
F216.856779656646
tp2010
aF91.03170133606197
g1999
S'2012-03-02 16:41:40'
p2011
I50
F3034.3900445353993
F1931.5108975521534
tp2012
a((lp2013
(S'323'
p2014
g2009
F421.2491347523211
tp2015
a(g2009
S'190'
p2016
F65.9676834156334
tp2017
a(g2016
S'1'
p2018
F133.23962227802784
tp2019
a(g2018
S'392'
p2020
F486.71141839657247
tp2021
aF66.43007153055329
g2011
S'2012-03-02 16:42:40'
p2022
I62
F1107.1678588425548
F1013.4227148617687
tp2023
a((lp2024
(g2018
g2020
F588.3034459423919
tp2025
a(g2020
g3
F457.83618440901
tp2026
a(g3
S'140'
p2027
F334.7646258643055
tp2028
a(g2027
S'263'
p2029
F435.87853113202175
tp2030
a(g2029
S'1115'
p2031
F472.4206568274532
tp2032
a(g2031
S'989'
p2033
F1111.3964106739522
tp2034
a(g2033
S'1036'
p2035
F786.7860140536283
tp2036
a(g2035
S'1151'
p2037
F499.30418929770127
tp2038
a(g2037
S'1232'
p2039
F572.8013873462398
tp2040
a(g2039
S'1031'
p2041
F536.64824962327
tp2042
a(g2041
S'824'
p2043
F464.2330654185904
tp2044
a(g2043
S'1031'
p2045
F418.0001545391168
tp2046
aF5.848246775592228
g2022
S'2012-03-02 17:51:11'
p2047
I64
F6678.372915127681
F4485.378782657818
tp2048
a((lp2049
(S'824'
p2050
g2045
F46.2329108899059
tp2051
a(g2045
g2043
F22.957600250082525
tp2052
aF9.225401485331792
g2047
S'2012-03-02 17:51:38'
p2053
I14
F69.19051113998843
F24.220335848836285
tp2054
a((lp2055
(S'1031'
p2056
g2043
F441.27546517404784
tp2057
a(g2043
g2045
F464.2330654185904
tp2058
a(g2045
S'1232'
p2059
F346.0474352349812
tp2060
aF56.32001846224287
g2053
S'2012-03-02 17:52:58'
p2061
I0
F1251.5559658276193
F369.05792292571005
tp2062
a((lp2063
(g2056
g2056
F0.0
tp2064
aF1.5099618516255862
g2061
S'2012-03-02 17:54:35'
p2065
I0
F40.68508322435607
F40.69023277889068
tp2066
a((lp2067
(g2056
g2056
F0.0
tp2068
aF7.03802002633368
g2065
S'2012-03-02 17:55:04'
p2069
I12
F56.69516132324353
F56.682244469797
tp2070
a((lp2071
(g2056
g2059
F93.2205698836985
tp2072
a(g2059
S'901'
p2073
F500.4166198457959
tp2074
a(g2073
S'1157'
p2075
F164.71879650241303
tp2076
aF195.0058250310619
g2069
S'2012-03-02 17:55:18'
p2077
I11
F758.3559862319074
F11.843350089454146
tp2078
a((lp2079
(S'901'
p2080
g2075
F164.71978913128245
tp2081
a(g2075
S'901'
p2082
F329.43858562166434
tp2083
a(g2082
S'1232'
p2084
F500.4166198457959
tp2085
a(g2084
S'1151'
p2086
F214.52023039497908
tp2087
aF44.87363721626184
g2077
S'2012-03-02 17:56:55'
p2088
I0
F1209.0952249937218
F237.90123571336414
tp2089
a((lp2090
(S'1232'
p2091
g2086
F358.28115695946644
tp2092
a(g2086
g998
F175.22190343037397
tp2093
aF16.005091811695213
g2088
S'2012-03-02 17:58:55'
p2094
I25
F533.5030603898404
F412.9782464545545
tp2095
a((lp2096
(S'1151'
p2097
g998
F578.6766952290294
tp2098
a(g998
g34
F401.933419412357
tp2099
a(g34
g1001
F186.6367659651378
tp2100
aF40.019893049366544
g2094
S'2012-03-02 18:00:40'
p2101
I16
F1167.2468806065242
F488.20335235702754
tp2102
a((lp2103
(g41
g41
F0.0
tp2104
aF0.0
g2101
S'2012-03-02 18:02:54'
p2105
I0
F0.0
F71.19014139008905
tp2106
a((lp2107
(g41
g1001
F186.6371677035762
tp2108
a(g1001
g982
F373.27393365369306
tp2109
a(g982
g989
F401.933419412357
tp2110
a(g989
g1027
F585.3164976896943
tp2111
a(g1027
g1038
F270.53002674972004
tp2112
aF109.06146271254244
g2105
S'2012-03-02 18:03:54'
p2113
I11
F1817.6910452090406
F566.6631960393178
tp2114
a((lp2115
(g1034
g1034
F0.0
tp2116
aF0.0
g2113
S'2012-03-02 18:05:04'
p2117
I1
F0.0
F27.38862379826084
tp2118
a((lp2119
(g1034
g1034
F0.0
tp2120
aF212.38795505824376
g2117
S'2012-03-02 18:05:08'
p2121
I24
F235.98661673138196
F37.26165778279031
tp2122
a((lp2123
(g1034
g1038
F506.51627025214316
tp2124
a(g1038
g1040
F211.8840444636607
tp2125
a(g1040
g1360
F1042.7797147525323
tp2126
a(g1360
g1329
F464.69356175746054
tp2127
aF55.64683978064492
g2121
S'2012-03-02 18:07:32'
p2128
I35
F2225.8735912257966
F836.963657131792
tp2129
a((lp2130
(g1416
g1329
F578.0861533226107
tp2131
a(g1329
g1360
F1042.7797147525323
tp2132
a(g1360
g1411
F116.33538335172821
tp2133
aF37.90257275840447
g2128
S'2012-03-02 18:10:17'
p2134
I0
F1737.2012514268713
F342.14646995096837
tp2135
a((lp2136
(g1416
g1411
F131.4024585671406
tp2137
a(g1411
S'820'
p2138
F247.7378419176489
tp2139
a(g2138
g1329
F168.86627932304663
tp2140
aF14.722564830658284
g2134
S'2012-03-02 18:12:31'
p2141
I12
F548.006579807836
F29.81874151554473
tp2142
a((lp2143
(g1416
g1329
F873.9134356094875
tp2144
a(g1329
g1360
F1042.7797147525323
tp2145
a(g1360
g1411
F247.7378419176489
tp2146
a(g1411
g634
F150.0952898730258
tp2147
aF416.61473078748503
g2141
S'2012-03-02 18:12:51'
p2148
I0
F2314.5262821526944
F25.633007213536796
tp2149
a((lp2150
(g639
g634
F150.09488234932238
tp2151
a(g634
g641
F231.70867622577373
tp2152
a(g641
g643
F108.13434072706384
tp2153
a(g643
g645
F145.5823712882947
tp2154
a(g645
g647
F280.1051964205321
tp2155
a(g647
g649
F101.97916629582802
tp2156
aF81.40837066454517
g2148
S'2012-03-02 18:13:36'
p2157
I5
F1017.6046333068147
F121.32400636851793
tp2158
a((lp2159
(S'1233'
p2160
g649
F101.97913662171872
tp2161
a(g649
g1325
F203.95830291726205
tp2162
a(g1325
g1327
F255.3750506846333
tp2163
a(g1327
g1329
F355.65471360894674
tp2164
aF34.74823088207599
g2157
S'2012-03-02 18:15:11'
p2165
I0
F916.9672038325608
F264.284950873942
tp2166
a((lp2167
(g1416
g1329
F687.1250014415663
tp2168
a(g1329
g1331
F345.4568716550513
tp2169
aF61.95491238579706
g2165
S'2012-03-02 18:16:11'
p2170
I22
F1032.5818730966175
F452.4092998963336
tp2171
a((lp2172
(g1051
g1331
F345.4594667980335
tp2173
a(g1331
g1350
F690.9163383539549
tp2174
a(g1350
g23
F211.8840444636607
tp2175
a(g23
g25
F270.52965352844495
tp2176
aF497.05838284715804
g2170
S'2012-03-02 18:16:22'
p2177
I3
F1518.789503144094
F2.093486744178176
tp2178
a((lp2179
(g30
g25
F270.53002674972004
tp2180
a(g25
g1038
F541.0596802687863
tp2181
a(g1038
g1040
F211.8840444636607
tp2182
a(g1040
g23
F49.711971113996555
tp2183
aF64.39114335576981
g2177
S'2012-03-02 18:17:22'
p2184
I0
F1073.1857225961635
F3.206393468830574
tp2185
a((lp2186
(g1051
g23
F162.17207335011057
tp2187
a(g23
g1040
F211.8840444636607
tp2188
a(g1040
g1360
F212.50040275096575
tp2189
aF35.19339123388422
g2184
S'2012-03-02 18:18:22'
p2190
I0
F586.556520564737
F18.847827987935847
tp2191
a((lp2192
(g1051
g1360
F830.2793122167369
tp2193
a(g1360
g1329
F1042.7797147525323
tp2194
a(g1329
g1331
F345.4568716550513
tp2195
aF26.533744966935394
g2190
S'2012-03-02 18:23:23'
p2196
I0
F2218.5158986243205
F151.9403016682446
tp2197
a((lp2198
(g1051
g1051
F0.0
tp2199
aF0.0
g2196
S'2012-03-02 18:24:04'
p2200
I5
F0.0
F21.66780819108701
tp2201
a((lp2202
(g1051
g1331
F345.4594667980335
tp2203
a(g1331
g1350
F690.9163383539549
tp2204
a(g1350
g23
F211.8840444636607
tp2205
a(g23
g25
F541.0596802687863
tp2206
a(g25
g32
F585.3164976896943
tp2207
a(g32
g34
F401.933419412357
tp2208
a(g34
g36
F465.5645320107461
tp2209
a(g36
S'903'
p2210
F350.9006773558848
tp2211
a(g2210
S'1032'
p2212
F252.7311593741106
tp2213
aF57.68648723590844
g2200
S'2012-03-02 18:28:04'
p2214
I9
F3845.7658157272285
F2154.486811067599
tp2215
a.