(lp0
((lp1
(S'1133'
p2
S'1177'
p3
F198.93760357090034
tp4
a(g3
S'969'
p5
F138.997608395793
tp6
aF20.276112718001603
S'2012-03-02 08:15:28'
p7
S'2012-03-02 08:16:28'
p8
I46
F337.9352119666934
F339.5127023448496
tp9
a((lp10
(S'1177'
p11
g5
F709.8734767407152
tp12
a(g5
S'884'
p13
F285.86287869163914
tp14
aF59.74418132594126
g8
S'2012-03-02 08:17:28'
p15
I33
F995.7363554323543
F563.0544191909503
tp16
a((lp17
(S'969'
p18
g13
F285.8630809492558
tp19
a(g13
S'969'
p20
F571.7259596354602
tp21
a(g20
S'1177'
p22
F848.8710851126325
tp23
a(g22
S'1133'
p24
F272.1325597882723
tp25
aF7.474222106766249
g15
S'2012-03-02 08:33:21'
p26
I29
F1978.592685485621
F267.7626204167517
tp27
a((lp28
(g11
g11
F0.0
tp29
aF0.0
g26
S'2012-03-02 08:34:42'
p30
I16
F0.0
F378.1637760198336
tp31
a((lp32
(g11
g24
F272.1323385959024
tp33
a(g24
S'960'
p34
F313.9016806177561
tp35
a(g34
S'821'
p36
F300.73395278664674
tp37
a(g36
S'960'
p38
F297.32458358873714
tp39
aF14.904661538883051
g30
S'2012-03-02 08:39:28'
p40
I11
F1184.0925555890424
F851.1814061763855
tp41
a((lp42
(S'821'
p43
g38
F3.4093691979830396
tp44
a(g38
S'932'
p45
F325.1238765614434
tp46
a(g45
S'843'
p47
F496.3588671175418
tp48
a(g47
S'932'
p49
F248.17837921465824
tp50
aF53.65352460458132
g40
S'2012-03-02 08:40:40'
p51
I18
F1073.0704920916264
F677.9992959701493
tp52
a((lp53
(S'843'
p54
g49
F248.180487942348
tp55
a(g49
g47
F496.3588671175418
tp56
a(g47
S'993'
p57
F149.27181884897354
tp58
aF10.907526190074266
g51
S'2012-03-02 08:45:35'
p59
I0
F893.8111739088635
F722.2281763603852
tp60
a((lp61
(g54
g57
F149.2717042929511
tp62
a(g57
S'1114'
p63
F865.1525280555261
tp64
a(g63
S'809'
p65
F639.1126192225747
tp66
a(g65
S'900'
p67
F674.794246559625
tp68
a(g67
S'1082'
p69
F405.2662958943754
tp70
a(g69
S'796'
p71
F68.64253555349875
tp72
aF84.06719788735656
g59
S'2012-03-02 08:47:35'
p73
I18
F2802.2399295785517
F1710.9702350941195
tp74
a((lp75
(S'1082'
p76
g71
F68.64252291770168
tp77
a(g71
S'988'
p78
F37.46020309095503
tp79
a(g78
S'777'
p80
F428.69502991180303
tp81
a(g80
S'1185'
p82
F103.08198938797172
tp83
aF38.27278471850588
g73
S'2012-03-02 08:48:35'
p84
I59
F637.8797453084314
F974.6195400596644
tp85
a((lp86
(S'777'
p87
g82
F362.4825426245263
tp88
a(g82
S'1073'
p89
F401.933419412357
tp90
a(g89
S'987'
p91
F109.77027283697544
tp92
aF52.45117409243152
g84
S'2012-03-02 08:49:35'
p93
I62
F874.1862348738587
F873.9484791553303
tp94
a((lp95
(S'1073'
p96
g91
F475.54622485985436
tp97
a(g91
S'1189'
p98
F541.0596802687863
tp99
a(g98
S'887'
p100
F211.8840444636607
tp101
a(g100
S'1027'
p102
F974.3320508593303
tp103
a(g102
S'842'
p104
F108.42347341772006
tp105
a(g104
S'929'
p106
F138.91582185729666
tp107
a(g106
S'414'
p108
F303.12038890948725
tp109
a(g108
S'203'
p110
F110.55925503297553
tp111
a(g110
S'431'
p112
F284.53886796195246
tp113
aF39.08333554300631
g93
S'2012-03-02 08:54:25'
p114
I59
F3148.3798076310636
F3138.802750980687
tp115
a((lp116
(S'203'
p117
g112
F85.44726811622645
tp118
a(g112
S'203'
p119
F369.98613606887915
tp120
a(g119
S'393'
p121
F126.8415116158981
tp122
a(g121
S'263'
p123
F161.42153589465283
tp124
aF52.496220119693405
g114
S'2012-03-02 08:55:16'
p125
I0
F743.6964516956566
F123.63606528147476
tp126
a((lp127
(S'393'
p128
g123
F284.37688456929743
tp129
a(g123
S'1115'
p130
F472.4206568274532
tp131
a(g130
S'989'
p132
F405.2911083607274
tp133
aF0.8529091007394334
g125
S'2012-03-02 10:17:01'
p134
I18
F1162.088649757478
F1356.895726547223
tp135
a((lp136
(S'1115'
p137
g132
F706.1053023210877
tp138
a(g132
S'1036'
p139
F786.7860140536283
tp140
a(g139
S'1151'
p141
F249.65204655763606
tp142
aF52.27630088797057
g134
S'2012-03-02 10:19:01'
p143
I38
F1742.5433629323522
F1482.3308944796026
tp144
a((lp145
(S'1036'
p146
g141
F249.65214274233847
tp147
a(g141
S'1073'
p148
F753.8985985699695
tp149
a(g148
S'1185'
p150
F200.96654104178072
tp151
aF29.905256665342897
g143
S'2012-03-02 10:21:26'
p152
I5
F1204.5172823540888
F761.7351698793101
tp153
a((lp154
(g96
g150
F200.96687837675643
tp155
a(g150
g89
F401.933419412357
tp156
a(g89
g91
F585.3164976896943
tp157
a(g91
g98
F541.0596802687863
tp158
a(g98
g100
F211.8840444636607
tp159
a(g100
S'989'
p160
F690.9163383539549
tp161
a(g160
S'1115'
p162
F555.6982853501218
tp163
aF29.885391974206232
g152
S'2012-03-02 10:27:50'
p164
I0
F3187.7751439153317
F1098.3307040145842
tp165
a((lp166
(S'989'
p167
g162
F555.6981253322997
tp168
a(g162
S'263'
p169
F472.4206568274532
tp170
a(g169
S'140'
p171
F435.87853113202175
tp172
a(g171
S'431'
p173
F334.7646258643055
tp174
a(g173
S'392'
p175
F457.83618440901
tp176
a(g175
S'270'
p177
F95.85961614434376
tp178
a(g177
S'433'
p179
F330.3168336032497
tp180
a(g179
S'372'
p181
F585.0976094380715
tp182
a(g181
S'97'
p183
F63.758701035611004
tp184
a(g183
S'413'
p185
F1079.6824743926077
tp186
a(g185
S'182'
p187
F501.6805211022033
tp188
a(g187
S'413'
p189
F29.966276276239416
tp190
aF3.010430817121756
g164
S'2012-03-02 12:06:21'
p191
I50
F4942.960155557416
F5132.272677938109
tp192
a((lp193
(S'182'
p194
g189
F471.71424482627486
tp195
a(g189
S'97'
p196
F1079.6824743926077
tp197
a(g196
S'372'
p198
F63.758701035611004
tp199
a(g198
S'433'
p200
F585.0976094380715
tp201
a(g200
S'270'
p202
F330.3168336032497
tp203
a(g202
S'392'
p204
F95.85961614434376
tp205
a(g204
S'431'
p206
F457.83618440901
tp207
a(g206
S'140'
p208
F334.7646258643055
tp209
a(g208
S'263'
p210
F435.87853113202175
tp211
a(g210
g130
F472.4206568274532
tp212
a(g130
g132
F1111.3964106739522
tp213
a(g132
g139
F786.7860140536283
tp214
a(g139
g141
F499.30418929770127
tp215
a(g141
S'1232'
p216
F572.8013873462398
tp217
a(g216
S'901'
p218
F500.4166198457959
tp219
a(g218
S'1157'
p220
F329.43858562166434
tp221
a(g220
S'1075'
p222
F42.87757714138974
tp223
a(g222
S'1159'
p224
F653.229543764915
tp225
a(g224
S'763'
p226
F12.65872730361995
tp227
a(g226
S'793'
p228
F807.7571788598872
tp229
a(g228
S'1187'
p230
F936.9634855721417
tp231
a(g230
S'1164'
p232
F539.6604647224013
tp233
a(g232
S'822'
p234
F297.58031311490504
tp235
a(g234
S'1182'
p236
F298.5349557647092
tp237
a(g236
S'1133'
p238
F12.743405002588746
tp239
a(g238
g3
F544.2648983785294
tp240
a(g3
g24
F14.11118128492804
tp241
aF8.678884813717678
g191
S'2012-03-02 13:31:18'
p242
I33
F12287.854415421945
F10883.224089613715
tp243
a((lp244
(g11
g24
F530.1537170941656
tp245
a(g24
S'1182'
p246
F12.743405002588746
tp247
a(g246
S'822'
p248
F298.5349557647092
tp249
a(g248
S'1164'
p250
F53.057965340224804
tp251
aF53.6694025921013
g242
S'2012-03-02 13:32:18'
p252
I38
F894.4900432016883
F893.5733949661355
tp253
a((lp254
(S'822'
p255
g250
F244.52234777496628
tp256
a(g250
S'1187'
p257
F539.6604647224013
tp258
a(g257
S'933'
p259
F62.361946624317454
tp260
a(g259
S'1152'
p261
F252.16482039578787
tp262
a(g261
S'926'
p263
F650.4667330892765
tp264
a(g263
S'793'
p265
F76.72492873221454
tp266
aF16.474296914336517
g252
S'2012-03-02 13:38:57'
p267
I31
F1825.901241338964
F1694.6918252889545
tp268
a((lp269
(S'926'
p270
g265
F76.72477049954665
tp271
a(g265
S'763'
p272
F807.7571788598872
tp273
a(g272
S'1159'
p274
F12.65872730361995
tp275
a(g274
S'1075'
p276
F653.229543764915
tp277
a(g276
S'1157'
p278
F42.87757714138974
tp279
a(g278
S'809'
p280
F755.0004704445299
tp281
a(g280
g67
F375.48429980084
tp282
aF163.4239540688837
g267
S'2012-03-02 13:39:57'
p283
I14
F2723.732567814728
F1005.5750099368073
tp284
a((lp285
(S'809'
p286
g67
F299.3099468550202
tp287
a(g67
g69
F405.2662958943754
tp288
a(g69
g71
F137.28505847111882
tp289
a(g71
S'1032'
p290
F361.8967412680692
tp291
a(g290
S'1068'
p292
F287.5482508719534
tp293
a(g292
S'883'
p294
F115.05830496594493
tp295
a(g294
S'852'
p296
F329.28489559744986
tp297
a(g296
S'883'
p298
F164.6423995778619
tp299
aF26.34512479653818
g283
S'2012-03-02 13:44:44'
p300
I70
F2100.2918935017938
F1801.1413431819797
tp301
a((lp302
(S'852'
p303
g298
F164.6424960297569
tp304
a(g298
g296
F329.28489559744986
tp305
a(g296
S'1107'
p306
F264.7955081021066
tp307
a(g306
S'1044'
p308
F278.424131296127
tp309
a(g308
S'778'
p310
F302.5121384580218
tp311
a(g310
S'1044'
p312
F141.01789086324115
tp313
aF96.91704394996601
g300
S'2012-03-02 13:45:39'
p314
I25
F1480.677060346703
F305.3147685452678
tp315
a((lp316
(S'778'
p317
g312
F161.49424759484532
tp318
a(g312
g310
F302.5121384580218
tp319
a(g310
S'833'
p320
F579.573448966089
tp321
a(g320
S'974'
p322
F480.1669052301094
tp323
a(g322
S'991'
p324
F656.1638760738123
tp325
a(g324
S'814'
p326
F297.27595043695527
tp327
aF64.6222582633
g314
S'2012-03-02 13:47:57'
p328
I0
F2477.186566759833
F944.2319358355662
tp329
a((lp330
(S'991'
p331
g326
F297.27576095129604
tp332
a(g326
S'1007'
p333
F399.2836900504582
tp334
a(g333
S'1009'
p335
F681.3552137071262
tp336
a(g335
S'1124'
p337
F343.5463299595581
tp338
a(g337
S'1135'
p339
F864.7731774810748
tp340
a(g339
S'927'
p341
F240.4485615059529
tp342
a(g341
S'959'
p343
F106.9390388791336
tp344
a(g343
S'1213'
p345
F159.27354120793285
tp346
a(g345
S'1066'
p347
F63.003045058211704
tp348
aF40.57583604172385
g328
S'2012-03-02 13:52:37'
p349
I0
F3155.898358800744
F2617.986292351154
tp350
a((lp351
(S'1213'
p352
g347
F63.0029958985286
tp353
a(g347
S'923'
p354
F407.53435205726896
tp355
a(g354
S'101'
p356
F229.10186550687922
tp357
aF23.53926325668819
g349
S'2012-03-02 13:54:24'
p358
I51
F699.6392134626767
F448.7976736492306
tp359
a((lp360
(S'923'
p361
g356
F701.2586745861685
tp362
a(g356
S'307'
p363
F516.3741780275716
tp364
a(g363
S'12'
p365
F336.87317808984017
tp366
a(g365
S'324'
p367
F348.33486400960794
tp368
a(g367
S'233'
p369
F522.2079091612247
tp370
a(g369
S'1158'
p371
F505.9919712639641
tp372
a(g371
S'371'
p373
F343.4160234801613
tp374
a(g373
S'323'
p375
F502.52151206068487
tp376
a(g375
S'195'
p377
F899.3736486026992
tp378
a(g377
S'160'
p379
F1654.504702992569
tp380
a(g379
S'348'
p381
F749.9190888032648
tp382
a(g381
S'40'
p383
F401.59962843252373
tp384
a(g383
S'400'
p385
F175.03635260490466
tp386
a(g385
S'359'
p387
F368.9484986175782
tp388
a(g387
S'461'
p389
F575.8753506220564
tp390
a(g389
S'76'
p391
F209.84399480520491
tp392
a(g391
S'39'
p393
F384.48890299753157
tp394
a(g393
S'85'
p395
F116.91466436493089
tp396
aF106.10297252114225
g358
S'2012-03-02 13:59:40'
p397
I44
F9313.483143522486
F3339.657708400797
tp398
a((lp399
(S'39'
p400
g395
F116.91419174215319
tp401
a(g395
S'291'
p402
F239.2848293153371
tp403
a(g402
S'143'
p404
F116.46470154580534
tp405
aF28.359823356197737
g397
S'2012-03-02 14:00:40'
p406
I33
F472.66372260329564
F590.020712492052
tp407
a((lp408
(S'291'
p409
g404
F116.4649825270322
tp410
a(g404
S'39'
p411
F296.1322850478427
tp412
a(g411
S'143'
p413
F148.0662566220425
tp414
aF51.75355607971545
g406
S'2012-03-02 14:01:19'
p415
I0
F560.6635241969174
F31.237648938561588
tp416
a((lp417
(g400
g413
F148.0660284288498
tp418
a(g413
S'291'
p419
F232.92968406904774
tp420
a(g419
S'85'
p421
F239.2848293153371
tp422
a(g421
S'456'
p423
F200.88497800248174
tp424
a(g423
S'444'
p425
F13.387973847734306
tp426
aF214.59946979917302
g415
S'2012-03-02 14:01:33'
p427
I14
F834.5534936634507
F16.136985331416312
tp428
a((lp429
(S'456'
p430
g425
F372.10608333875143
tp431
a(g425
S'249'
p432
F192.01126587807087
tp433
a(g432
S'223'
p434
F158.54371200493
tp435
a(g434
S'85'
p436
F186.91338092701662
tp437
a(g436
S'39'
p438
F233.82885610286075
tp439
a(g438
S'76'
p440
F384.48890299753157
tp441
a(g440
S'461'
p442
F209.84399480520491
tp443
a(g442
S'288'
p444
F213.86956785060167
tp445
a(g444
S'448'
p446
F161.32840893425416
tp447
a(g446
S'115'
p448
F65.98330483756305
tp449
aF58.53808148982408
g427
S'2012-03-02 14:03:47'
p450
I0
F2178.917477676785
F719.8130384333393
tp451
a((lp452
(S'448'
p453
g453
F0.0
tp454
aF0.0
g450
S'2012-03-02 14:05:40'
p455
I48
F0.0
F715.7631765583081
tp456
a((lp457
(g453
g448
F65.98345145874035
tp458
a(g448
S'149'
p459
F279.2751738259168
tp460
a(g459
S'359'
p461
F214.5001502809245
tp462
a(g461
S'400'
p463
F327.98084468645453
tp464
aF99.87070727835406
g455
S'2012-03-02 14:06:12'
p465
I44
F887.739620252036
F297.9663985482082
tp466
a((lp467
(S'359'
p468
g468
F0.0
tp469
aF51.662531004215595
g465
S'2012-03-02 14:06:22'
p470
I0
F143.50703056726553
F80.6588783744977
tp471
a((lp472
(g468
g463
F184.4746845030991
tp473
a(g463
S'40'
p474
F175.03635260490466
tp475
a(g474
S'348'
p476
F401.59962843252373
tp477
a(g476
S'423'
p478
F401.7062149289834
tp479
a(g478
S'87'
p480
F723.5563566983903
tp481
a(g480
S'423'
p482
F387.61741628749365
tp483
aF57.650467270700155
g470
S'2012-03-02 14:08:44'
p484
I44
F2273.9906534553947
F977.6047525416354
tp485
a((lp486
(S'87'
p487
g482
F335.93894052453174
tp488
a(g482
g480
F723.5563566983903
tp489
a(g480
S'322'
p490
F661.5915995108642
tp491
a(g490
S'114'
p492
F293.16190634917444
tp493
a(g492
S'69'
p494
F138.59080145535074
tp495
aF101.9766128465516
g484
S'2012-03-02 14:10:00'
p496
I0
F2152.8396045383115
F1024.8316816204483
tp497
a((lp498
(S'114'
p499
g499
F0.0
tp500
aF0.0
g496
S'2012-03-02 14:11:00'
p501
I53
F0.0
F649.3633375826558
tp502
a((lp503
(g499
g494
F138.59090513124823
tp504
a(g494
S'209'
p505
F560.4047888183237
tp506
a(g505
S'219'
p507
F348.12509298251837
tp508
a(g507
S'117'
p509
F439.0234501785394
tp510
a(g509
S'333'
p511
F172.715636685259
tp512
a(g511
S'117'
p513
F55.678211641872835
tp514
aF51.43614256313285
g501
S'2012-03-02 14:13:00'
p515
I46
F1714.5380854377615
F954.2089885584703
tp516
a((lp517
(S'333'
p518
g513
F117.03742504354868
tp519
a(g513
S'219'
p520
F439.0234501785394
tp521
a(g520
S'209'
p522
F174.06260196845184
tp523
aF105.13778071543776
g515
S'2012-03-02 14:13:25'
p524
I3
F730.1234771905399
F21.148692333806252
tp525
a((lp526
(S'219'
p527
g522
F174.06249102613245
tp528
a(g522
g507
F348.12509298251837
tp529
a(g507
g509
F439.0234501785394
tp530
a(g509
g511
F172.715636685259
tp531
a(g511
S'413'
p532
F10.642510030586715
tp533
aF242.37935595593703
g524
S'2012-03-02 14:13:42'
p534
I0
F1144.5691809030359
F59.11030479586275
tp535
a((lp536
(g518
g532
F1397.0681225156882
tp537
a(g532
g196
F1079.6824743926077
tp538
a(g196
g198
F63.758701035611004
tp539
a(g198
g200
F585.0976094380715
tp540
a(g200
g202
F330.3168336032497
tp541
a(g202
g204
F95.85961614434376
tp542
a(g204
g206
F457.83618440901
tp543
a(g206
g208
F334.7646258643055
tp544
a(g208
g210
F435.87853113202175
tp545
a(g210
g130
F472.4206568274532
tp546
a(g130
g132
F1111.3964106739522
tp547
a(g132
g139
F786.7860140536283
tp548
a(g139
g141
F499.30418929770127
tp549
a(g141
g216
F572.8013873462398
tp550
a(g216
g218
F500.4166198457959
tp551
a(g218
g220
F329.43858562166434
tp552
a(g220
g222
F42.87757714138974
tp553
a(g222
S'1099'
p554
F21.39264993143606
tp555
aF2.6013750052617115
g534
S'2012-03-02 17:43:59'
p556
I27
F9117.09678927417
F6205.172405904356
tp557
a((lp558
(S'1075'
p559
g554
F21.392662390615975
tp560
a(g554
S'1157'
p561
F10.623947141242395
tp562
a(g561
g280
F755.0004704445299
tp563
a(g280
g67
F337.39885379462476
tp564
aF67.46495602626078
g556
S'2012-03-02 17:44:59'
p565
I7
F1124.415933771013
F590.0561332973573
tp566
a((lp567
(g286
g67
F337.39539286240483
tp568
a(g67
S'809'
p569
F674.794246559625
tp570
a(g569
S'1114'
p571
F319.5562158237791
tp572
aF299.642817430307
g565
S'2012-03-02 17:45:15'
p573
I0
F1331.7458552458088
F59.437585889439795
tp574
a((lp575
(g286
g571
F319.5564034044567
tp576
a(g571
g65
F639.1126192225747
tp577
a(g65
g67
F674.794246559625
tp578
a(g67
S'1101'
p579
F1058.824251630271
tp580
a(g579
S'996'
p581
F644.2201614015652
tp582
aF100.09523046655478
g573
S'2012-03-02 17:47:15'
p583
I22
F3336.507682218493
F859.9817526094785
tp584
a((lp585
(S'1101'
p586
g581
F644.2214941319131
tp587
a(g581
S'1101'
p588
F1288.4416554530242
tp589
a(g588
S'900'
p590
F1058.824251630271
tp591
a(g590
g569
F674.794246559625
tp592
a(g569
g571
F639.1126192225747
tp593
a(g571
S'993'
p594
F865.1525280555261
tp595
a(g594
S'843'
p596
F149.2717042929511
tp597
aF319.1891099607531
g583
S'2012-03-02 17:48:15'
p598
I20
F5319.818499345885
F551.3835821155269
tp599
a((lp600
(S'993'
p601
g596
F149.27181884897354
tp602
a(g596
S'999'
p603
F193.0033242499445
tp604
aF20.536508585935085
g598
S'2012-03-02 17:49:15'
p605
I33
F342.2751430989181
F373.9257506169374
tp606
a((lp607
(g54
g603
F193.00381368915248
tp608
a(g603
S'918'
p609
F301.7988616334008
tp610
a(g609
S'1141'
p611
F198.67869357628678
tp612
aF41.6088821339304
g605
S'2012-03-02 17:50:15'
p613
I3
F693.4813688988401
F191.47939212347345
tp614
a((lp615
(S'918'
p616
g611
F135.24631915538453
tp617
a(g611
S'918'
p618
F166.96268838258965
tp619
aF8.917642845382844
g613
S'2012-03-02 17:52:17'
p620
I29
F302.2090075379742
F403.89255999488495
tp621
a((lp622
(S'1141'
p623
g618
F166.96232434940242
tp624
a(g618
g611
F333.92501272121706
tp625
a(g611
S'821'
p626
F272.9196924326181
tp627
a(g626
g38
F300.73395278664674
tp628
a(g38
S'1133'
p629
F313.9016806177561
tp630
a(g629
g3
F272.1323385959024
tp631
aF22.223308570307637
g620
S'2012-03-02 17:56:46'
p632
I0
F1660.5750015035428
F321.5152100658269
tp633
a((lp634
(g2
g3
F272.1325597882723
tp635
a(g3
g5
F424.4349870184419
tp636
aF16.829819922846788
g632
S'2012-03-02 17:59:15'
p637
I24
F696.5675468067143
F795.8084166082882
tp638
a((lp639
(g11
g5
F424.43609813764004
tp640
a(g5
g13
F285.86287869163914
tp641
aF42.61793860975675
g637
S'2012-03-02 18:00:15'
p642
I18
F710.2989768292791
F441.3237485156568
tp643
a.