(lp0
((lp1
(S'1154'
p2
S'873'
p3
F213.80368363078816
tp4
a(g3
S'1292'
p5
F5581.023855259741
tp6
a(g5
S'1286'
p7
F302.5773001788548
tp8
aF73.1688580688326
S'2012-03-02 10:12:41'
p9
S'2012-03-02 10:17:41'
p10
I77
F6097.404839069384
F6090.2802941020045
tp11
a((lp12
(S'1292'
p13
g7
F570.566834377423
tp14
a(g7
S'1250'
p15
F204.88150175530103
tp16
a(g15
S'1261'
p17
F299.5365199052857
tp18
a(g17
S'1247'
p19
F226.45178246546035
tp20
aF69.92793878526108
g10
S'2012-03-02 10:18:48'
p21
I66
F1301.43663850347
F551.7142134350719
tp22
a((lp23
(S'1261'
p24
g19
F226.45240412009932
tp25
a(g19
S'1401'
p26
F442.52612965343826
tp27
aF26.177420886790603
g21
S'2012-03-02 10:20:20'
p28
I12
F668.9785337735376
F476.523849871256
tp29
a((lp30
(S'1247'
p31
g26
F442.52859504839626
tp32
a(g26
S'1298'
p33
F798.1601105279849
tp34
a(g33
S'1332'
p35
F651.7249898921416
tp36
a(g35
S'1278'
p37
F443.0096384527584
tp38
a(g37
S'1261'
p39
F286.1937784490775
tp40
aF147.46596257083266
g28
S'2012-03-02 10:21:24'
p41
I24
F2621.6171123703584
F565.1430684311819
tp42
a((lp43
(S'1278'
p44
g39
F570.2294971028973
tp45
a(g39
S'1278'
p46
F856.423275392782
tp47
a(g46
S'1332'
p48
F221.50453146047911
tp49
aF98.8894382373695
g41
S'2012-03-02 10:22:24'
p50
I0
F1648.1573039561583
F5.008981342470848
tp51
a((lp52
(g44
g48
F221.50510700366007
tp53
a(g48
g37
F443.0096384527584
tp54
a(g37
g39
F856.423275392782
tp55
a(g39
S'1250'
p56
F95.74613475631755
tp57
aF72.75078700224832
g50
S'2012-03-02 10:23:44'
p58
I0
F1616.684155605518
F606.9019875605962
tp59
a((lp60
(g24
g56
F203.79038515205477
tp61
a(g56
S'1286'
p62
F204.88150175530103
tp63
a(g62
S'1292'
p64
F873.144134384409
tp65
a(g64
S'873'
p66
F2790.5438426946735
tp67
aF115.43697252245023
g58
S'2012-03-02 10:25:51'
p68
I42
F4072.3598639864385
F1007.2202309021321
tp69
a((lp70
(g13
g66
F2790.4800623446363
tp71
a(g66
S'936'
p72
F117.95681148015007
tp73
a(g72
S'791'
p74
F263.909236928096
tp75
a(g74
S'834'
p76
F344.3991517532198
tp77
a(g76
S'1068'
p78
F128.40964248009593
tp79
a(g78
S'834'
p80
F64.20481964419149
tp81
aF30.487888147647034
g68
S'2012-03-02 10:33:09'
p82
I0
F3709.3597246303893
F5771.897448382921
tp83
a((lp84
(S'1068'
p85
g80
F64.20482283592388
tp86
a(g80
S'791'
p87
F344.3991517532198
tp88
a(g87
g76
F89.68643811151574
tp89
aF137.98811428633644
g82
S'2012-03-02 10:33:22'
p90
I0
F498.29041270065943
F70.2763424930918
tp91
a((lp92
(S'791'
p93
g76
F254.7127136505598
tp94
a(g76
g78
F128.40964248009593
tp95
a(g78
S'1032'
p96
F287.5482508719534
tp97
a(g96
S'796'
p98
F361.8967412680692
tp99
a(g98
S'1082'
p100
F137.28505847111882
tp101
a(g100
S'1127'
p102
F6.8306029289612695
tp103
a(g102
S'967'
p104
F95.32878660503597
tp105
aF38.16035388827383
g90
S'2012-03-02 10:35:22'
p106
I38
F1272.0117962757945
F859.0583777969525
tp107
a((lp108
(S'1127'
p109
g104
F95.32887822975243
tp110
a(g104
S'1127'
p111
F190.65766483400054
tp112
a(g111
S'988'
p113
F152.49726409143645
tp114
a(g113
S'937'
p115
F84.85729485795852
tp116
a(g115
S'1061'
p117
F38.03297872082315
tp118
aF6.804534311926923
g106
S'2012-03-02 10:40:19'
p119
I0
F561.3740807339711
F128.03564144139844
tp120
a((lp121
(S'937'
p122
g117
F892.5660588082974
tp123
a(g117
S'937'
p124
F930.5990375079346
tp125
a(g124
S'796'
p126
F117.72042469973982
tp127
a(g126
S'937'
p128
F58.86023953587936
tp129
aF423.47557282274494
g119
S'2012-03-02 10:40:36'
p130
I0
F1999.7457605518512
F68.00170063797394
tp131
a((lp132
(S'796'
p133
g128
F58.86018516433739
tp134
a(g128
S'901'
p135
F654.3387647481585
tp136
a(g135
S'1232'
p137
F500.4166198457959
tp138
a(g137
S'1151'
p139
F286.4008585376268
tp140
aF45.000492848877556
g130
S'2012-03-02 10:42:36'
p141
I33
F1500.0164282959186
F869.3486098738397
tp142
a((lp143
(S'1232'
p144
g139
F286.4005288174328
tp145
a(g139
S'1232'
p146
F572.8013873462398
tp147
a(g146
S'1031'
p148
F536.64824962327
tp149
a(g148
S'824'
p150
F232.11631470971224
tp151
aF97.67798882979929
g141
S'2012-03-02 10:43:36'
p152
I22
F1627.9664804966549
F492.5279371471792
tp153
a((lp154
(S'1031'
p155
g150
F232.11675073755046
tp156
a(g150
S'1031'
p157
F464.2330654185904
tp158
a(g157
S'1232'
p159
F46.15707041320437
tp160
aF297.00275462773806
g152
S'2012-03-02 10:43:45'
p161
I0
F742.5068865693452
F1.234263686108017
tp162
a((lp163
(g155
g159
F490.4911792241765
tp164
a(g159
g148
F536.64824962327
tp165
a(g148
g150
F15.719250059342718
tp166
aF220.8406614155554
g161
S'2012-03-02 10:44:02'
p167
I0
F1042.8586789067892
F61.781802859048504
tp168
a((lp169
(g155
g150
F448.5138153631488
tp170
a(g150
g157
F464.2330654185904
tp171
a(g157
g159
F536.64824962327
tp172
a(g159
g139
F572.8013873462398
tp173
a(g139
S'1036'
p174
F499.30418929770127
tp175
a(g174
S'987'
p176
F700.189491494048
tp177
a(g176
S'1073'
p178
F292.6580334691347
tp179
aF3.9860282404674474
g167
S'2012-03-02 11:36:56'
p180
I25
F3514.348232012133
F1653.1923625523027
tp181
a((lp182
(S'987'
p183
g178
F292.6584642322717
tp184
a(g178
S'987'
p185
F585.3164976896943
tp186
a(g185
S'1229'
p187
F828.6057404004235
tp188
a(g187
S'895'
p189
F249.3697768587104
tp190
a(g189
S'973'
p191
F444.35669521011835
tp192
a(g191
S'1191'
p193
F228.2127574881823
tp194
aF48.776658529720834
g180
S'2012-03-02 11:40:10'
p195
I0
F2628.5199318794007
F1780.622700072468
tp196
a((lp197
(S'973'
p198
g193
F184.1963761807874
tp199
a(g193
S'1218'
p200
F264.7542280364345
tp201
a(g200
S'986'
p202
F423.3470614498756
tp203
a(g202
S'1218'
p204
F369.94636280414494
tp205
aF95.15060643609516
g195
S'2012-03-02 11:40:57'
p206
I20
F1242.2440284712425
F145.271684104881
tp207
a((lp208
(S'986'
p209
g204
F53.400698655104634
tp210
a(g204
S'1191'
p211
F264.7542280364345
tp212
a(g211
g200
F37.96772788046309
tp213
aF14.736109844358712
g206
S'2012-03-02 11:42:24'
p214
I16
F356.1226545720022
F62.95861270167648
tp215
a((lp216
(S'1191'
p217
g200
F226.78650015598177
tp218
a(g200
S'1045'
p219
F380.2508287917065
tp220
a(g219
S'844'
p221
F161.05814139702346
tp222
a(g221
S'955'
p223
F135.70247565144197
tp224
a(g223
S'813'
p225
F56.66466961496389
tp226
a(g225
S'921'
p227
F182.17650096521103
tp228
a(g227
S'806'
p229
F107.48268907765393
tp230
a(g229
S'1020'
p231
F89.17262260415288
tp232
aF40.17883284774406
g214
S'2012-03-02 11:44:24'
p233
I33
F1339.2944282581354
F1185.8607007356281
tp234
a((lp235
(S'806'
p236
g231
F48.337004510182176
tp237
a(g231
S'1170'
p238
F201.74042609344684
tp239
a(g238
S'1066'
p240
F134.29559832461862
tp241
a(g240
S'923'
p242
F203.76793276645955
tp243
aF211.7307462100946
g233
S'2012-03-02 11:44:34'
p244
I1
F588.1409616947072
F13.582299213827376
tp245
a((lp246
(S'1066'
p247
g242
F203.7664193135748
tp248
a(g242
S'1066'
p249
F407.53435205726896
tp250
a(g249
S'1170'
p251
F134.29559832461862
tp252
a(g251
S'1020'
p253
F201.74042609344684
tp254
a(g253
S'806'
p255
F68.75480325342474
tp256
aF23.908037624525505
g244
S'2012-03-02 11:47:07'
p257
I0
F1016.0915990423339
F364.8619161040738
tp258
a((lp259
(S'1020'
p260
g255
F68.75482386085511
tp261
a(g255
S'959'
p262
F197.56237677218394
tp263
a(g262
S'1170'
p264
F135.9977572931447
tp265
a(g264
g240
F134.29559832461862
tp266
a(g240
g242
F203.76793276645955
tp267
aF59.23027912138095
g257
S'2012-03-02 11:47:52'
p268
I31
F740.3784890172619
F258.8055275279876
tp269
a((lp270
(g247
g242
F203.7664193135748
tp271
a(g242
g249
F407.53435205726896
tp272
a(g249
g251
F134.29559832461862
tp273
a(g251
g253
F201.74042609344684
tp274
a(g253
S'1145'
p275
F138.3852165812993
tp276
a(g275
S'1028'
p277
F210.6065185280842
tp278
a(g277
S'772'
p279
F230.208379433524
tp280
a(g279
S'819'
p281
F232.03849592151013
tp282
a(g281
S'1233'
p283
F246.1127573590343
tp284
aF30.196139702947693
g268
S'2012-03-02 11:51:51'
p285
I0
F2004.688163612361
F972.3305501008277
tp286
a((lp287
(S'819'
p288
g283
F33.99243906413608
tp289
a(g283
S'820'
p290
F255.3750506846333
tp291
a(g290
S'887'
p292
F1042.7797147525323
tp293
a(g292
S'1189'
p294
F211.8840444636607
tp295
a(g294
S'987'
p296
F270.52965352844495
tp297
aF34.201147900399306
g285
S'2012-03-02 11:55:02'
p298
I31
F1814.5609024934074
F1243.2079538773128
tp299
a((lp300
(S'1189'
p301
g296
F270.53002674972004
tp302
a(g296
S'1189'
p303
F541.0596802687863
tp304
a(g303
S'887'
p305
F211.8840444636607
tp306
a(g305
g294
F105.9419924101466
tp307
aF67.76494463353882
g298
S'2012-03-02 11:56:02'
p308
I44
F1129.4157438923137
F696.2962737549522
tp309
a((lp310
(S'887'
p311
g294
F105.94205205410044
tp312
a(g294
g296
F541.0596802687863
tp313
a(g296
S'1036'
p314
F700.189491494048
tp315
a(g314
S'1151'
p316
F499.30418929770127
tp317
a(g316
g146
F572.8013873462398
tp318
a(g146
S'901'
p319
F500.4166198457959
tp320
a(g319
S'1157'
p321
F329.43858562166434
tp322
a(g321
S'1075'
p323
F42.87757714138974
tp324
a(g323
S'1159'
p325
F653.229543764915
tp326
a(g325
S'763'
p327
F12.65872730361995
tp328
a(g327
S'793'
p329
F807.7571788598872
tp330
a(g329
S'926'
p331
F153.4496992306447
tp332
a(g331
S'1039'
p333
F982.0642774990637
tp334
aF88.51783514591787
g308
S'2012-03-02 12:00:02'
p335
I70
F5901.189009727857
F3217.4499989243122
tp336
a.