(lp0
((lp1
(S'1099'
p2
g2
F0.0
tp3
aF0.0
S'2012-03-02 08:03:08'
p4
S'2012-03-02 08:03:29'
p5
I14
F0.0
F29.85772886562774
tp6
a((lp7
(g2
S'1157'
p8
F5.311973515228703
tp9
a(g8
S'1075'
p10
F21.438790187803328
tp11
aF0.8447609590431168
g5
S'2012-03-02 08:05:23'
p12
I0
F26.75076370303203
F41.52008042010586
tp13
a((lp14
(S'1157'
p15
g10
F21.438786953608957
tp16
a(g10
S'1157'
p17
F42.87757714138974
tp18
a(g17
S'901'
p19
F329.43858562166434
tp20
a(g19
S'1232'
p21
F250.20837820573567
tp22
aF66.2362280148753
g12
S'2012-03-02 08:05:58'
p23
I0
F643.9633279223987
F36.81664021159503
tp24
a((lp25
(S'901'
p26
g26
F0.0
tp27
aF6.6284614818206125
g23
S'2012-03-02 08:07:57'
p28
I16
F219.10747676018136
F516.2065340626169
tp29
a((lp30
(g26
g21
F31.100764883245184
tp31
a(g21
S'1151'
p32
F572.8013873462398
tp33
a(g32
S'1036'
p34
F249.65214274233847
tp35
aF25.606628849154706
g28
S'2012-03-02 08:09:57'
p36
I25
F853.5542949718235
F558.2776235784719
tp37
a((lp38
(S'1151'
p39
g34
F249.65204655763606
tp40
a(g34
S'1151'
p41
F499.30418929770127
tp42
a(g41
S'1073'
p43
F137.48048651658405
tp44
aF29.547890745730715
g36
S'2012-03-02 08:11:45'
p45
I7
F886.4367223719214
F141.37888609761683
tp46
a((lp47
(g39
g43
F616.418112128126
tp48
a(g43
S'1185'
p49
F401.933419412357
tp50
a(g49
S'1061'
p51
F186.6367659651378
tp52
aF20.270831172991755
g45
S'2012-03-02 08:15:19'
p53
I0
F1204.988297505621
F581.8223129129774
tp54
a((lp55
(S'1185'
p56
g51
F186.6371677035762
tp57
a(g51
S'1062'
p58
F442.8992981334369
tp59
a(g58
S'1150'
p60
F194.7563084101235
tp61
a(g60
S'1016'
p62
F476.5728920163904
tp63
a(g62
S'895'
p64
F364.23495779569595
tp65
a(g64
S'1229'
p66
F249.3697768587104
tp67
a(g66
S'987'
p68
F238.6427752402061
tp69
aF77.51207434169301
g53
S'2012-03-02 08:16:59'
p70
I16
F2153.113176158139
F594.889525826073
tp71
a((lp72
(S'1229'
p73
g68
F589.962965293349
tp74
a(g68
S'1189'
p75
F270.53002674972004
tp76
aF16.30407774397394
g70
S'2012-03-02 08:20:09'
p77
I0
F860.4929920430691
F383.0506065247822
tp78
a((lp79
(S'987'
p80
g75
F270.52965352844495
tp81
a(g75
S'987'
p82
F541.0596802687863
tp83
a(g82
S'1036'
p84
F350.09319913211567
tp85
aF261.3785699091031
g77
S'2012-03-02 08:20:25'
p86
I0
F1161.682532929347
F64.32172179640185
tp87
a((lp88
(g80
g84
F350.0962924670838
tp89
a(g84
S'987'
p90
F700.189491494048
tp91
a(g90
g75
F541.0596802687863
tp92
a(g75
S'887'
p93
F211.8840444636607
tp94
a(g93
S'1027'
p95
F487.166479678937
tp96
aF137.42375930235096
g86
S'2012-03-02 08:21:25'
p97
I37
F2290.3959883725156
F508.00256818092595
tp98
a((lp99
(S'887'
p100
g95
F487.1655712218048
tp101
a(g95
S'887'
p102
F974.3320508593303
tp103
a(g102
S'820'
p104
F51.70109584267724
tp105
aF58.57543424221208
g97
S'2012-03-02 08:22:58'
p106
I53
F1513.1987179238122
F282.45914281686146
tp107
a((lp108
(g100
g104
F991.0786189724458
tp109
a(g104
S'887'
p110
F1042.7797147525323
tp111
a(g110
g95
F974.3320508593303
tp112
a(g95
S'842'
p113
F108.42347341772006
tp114
a(g113
S'929'
p115
F138.91582185729666
tp116
a(g115
S'414'
p117
F303.12038890948725
tp118
a(g117
S'203'
p119
F110.55925503297553
tp120
a(g119
S'431'
p121
F213.3597105313139
tp122
aF51.38694310146753
g106
S'2012-03-02 08:27:30'
p123
I0
F3882.569034333102
F1895.0944740969446
tp124
a((lp125
(S'203'
p126
g121
F156.6264255503081
tp127
a(g121
S'140'
p128
F167.38210388707625
tp129
aF29.90847964037394
g123
S'2012-03-02 08:28:09'
p130
I27
F324.00852943738437
F141.17285555471219
tp131
a((lp132
(S'431'
p133
g128
F167.38252198820078
tp134
a(g128
S'431'
p135
F334.7646258643055
tp136
a(g135
S'203'
p137
F369.98613606887915
tp138
a(g137
S'414'
p139
F55.279614860150026
tp140
aF2.7822386963446064
g130
S'2012-03-02 08:48:09'
p141
I0
F927.4128987815354
F289.1493214539919
tp142
a((lp143
(g126
g139
F55.27964017295327
tp144
a(g139
S'929'
p145
F303.12038890948725
tp146
a(g145
S'842'
p147
F138.91582185729666
tp148
a(g147
S'1027'
p149
F108.42347341772006
tp150
a(g149
g102
F296.30878672083395
tp151
aF37.32612873427412
g141
S'2012-03-02 08:49:36'
p152
I38
F902.0481110782912
F1012.1839794087375
tp153
a((lp154
(S'1027'
p155
g102
F678.0232641735915
tp156
a(g102
g104
F1042.7797147525323
tp157
a(g104
S'970'
p158
F247.7378419176489
tp159
a(g158
S'1069'
p160
F300.1901722143531
tp161
a(g160
S'1046'
p162
F233.21024744024461
tp163
a(g162
S'1111'
p164
F224.7758530051457
tp165
a(g164
S'844'
p166
F216.35782443809995
tp167
a(g166
S'955'
p168
F135.70247565144197
tp169
a(g168
S'1135'
p170
F207.71700266283523
tp171
a(g170
S'982'
p172
F260.3284916704843
tp173
aF35.17510302075746
g152
S'2012-03-02 08:55:39'
p174
I0
F3546.8228879263775
F2539.827591141092
tp175
a((lp176
(S'1135'
p177
g172
F260.32987108772363
tp178
a(g172
S'804'
p179
F140.04113628613734
tp180
a(g179
S'888'
p181
F436.4498289725836
tp182
a(g181
S'1213'
p183
F398.42229143270566
tp184
a(g183
S'959'
p185
F31.72939702629618
tp186
aF152.03670297665357
g174
S'2012-03-02 08:56:09'
p187
I14
F1266.9725248054465
F109.42172748107933
tp188
a((lp189
(S'1213'
p190
g185
F127.544144182597
tp191
a(g185
S'806'
p192
F197.56237677218394
tp193
a(g192
S'1020'
p194
F137.50962711414766
tp195
a(g194
S'806'
p196
F68.75480325342474
tp197
aF17.233652475319566
g187
S'2012-03-02 08:58:00'
p198
I0
F531.3709513223533
F457.89364255054204
tp199
a((lp200
(S'1020'
p201
g196
F68.75482386085511
tp202
a(g196
g194
F137.50962711414766
tp203
a(g194
S'1145'
p204
F138.3852165812993
tp205
a(g204
S'1028'
p206
F210.6065185280842
tp207
a(g206
S'772'
p208
F230.208379433524
tp209
a(g208
S'819'
p210
F232.03849592151013
tp211
a(g210
S'1233'
p212
F280.1051964205321
tp213
a(g212
S'820'
p214
F255.3750506846333
tp215
a(g214
g158
F123.86886871137345
tp216
aF31.116844526399245
g198
S'2012-03-02 09:01:14'
p217
I0
F1676.8521772559593
F825.1380161075939
tp218
a((lp219
(S'820'
p220
g158
F123.8689732074665
tp221
a(g158
S'820'
p222
F247.7378419176489
tp223
a(g222
S'1233'
p224
F255.3750506846333
tp225
a(g224
S'886'
p226
F203.95830291726205
tp227
a(g226
S'1222'
p228
F164.81035075097236
tp229
aF50.488758734094915
g217
S'2012-03-02 09:02:25'
p230
I0
F995.7505194779831
F450.3106608683922
tp231
a((lp232
(S'886'
p233
g228
F333.32074591540345
tp234
a(g228
S'233'
p235
F157.21078570864503
tp236
aF147.15945948721455
g230
S'2012-03-02 09:02:37'
p237
I5
F490.5315316240485
F2.1522602318285324
tp238
a((lp239
(S'1222'
p240
g235
F157.21072166279825
tp241
a(g235
S'1222'
p242
F314.42150737049457
tp243
a(g242
S'886'
p244
F498.13109666342655
tp245
a(g244
S'1233'
p246
F203.95830291726205
tp247
a(g246
S'819'
p248
F280.1051964205321
tp249
a(g248
S'790'
p250
F72.79117674842068
tp251
aF25.32638159639891
g237
S'2012-03-02 09:06:14'
p252
I0
F1526.6180017829342
F674.2445779592963
tp253
a((lp254
(S'819'
p255
g250
F72.79119453999549
tp256
a(g250
S'860'
p257
F108.13434072706384
tp258
a(g257
S'1069'
p259
F231.70867622577373
tp260
a(g259
S'970'
p261
F300.1901722143531
tp262
a(g261
S'774'
p263
F377.3364418971982
tp264
a(g263
S'895'
p265
F134.2105295502064
tp266
aF51.25275440182008
g252
S'2012-03-02 09:07:40'
p267
I46
F1224.3713551545907
F552.9041586899564
tp268
a((lp269
(S'774'
p270
g265
F134.21053674898258
tp271
a(g265
S'774'
p272
F268.4210662990969
tp273
a(g272
S'986'
p274
F463.31531120431856
tp275
a(g274
S'869'
p276
F313.4132600262387
tp277
a(g276
S'1045'
p278
F443.17745880440634
tp279
a(g278
S'1218'
p280
F190.12539550114917
tp281
aF79.58032808418405
g267
S'2012-03-02 09:09:02'
p282
I0
F1812.6630285841923
F883.6614885354217
tp283
a((lp284
(S'1045'
p285
g280
F190.12543329123957
tp286
a(g280
S'1191'
p287
F264.7542280364345
tp288
a(g287
S'1124'
p289
F271.78486316707097
tp290
aF43.5998714696847
g282
S'2012-03-02 09:10:02'
p291
I22
F726.664524494745
F380.9765853992435
tp292
a((lp293
(S'1191'
p294
g289
F76.87919308239243
tp295
a(g289
S'1191'
p296
F348.66405624127844
tp297
a(g296
S'867'
p298
F360.6074231124015
tp299
a(g298
S'920'
p300
F204.42103199643964
tp301
aF59.43430226595073
g291
S'2012-03-02 09:11:02'
p302
I33
F990.5717044325121
F119.04400572215916
tp303
a((lp304
(S'867'
p305
g300
F204.42107961437014
tp306
a(g300
S'867'
p307
F408.84211159134935
tp308
a(g307
S'1191'
p309
F360.6074231124015
tp310
a(g309
S'1218'
p311
F132.37711583648567
tp312
aF94.82123401325201
g302
S'2012-03-02 09:11:44'
p313
I0
F1106.2477301546066
F192.68474605020913
tp314
a((lp315
(g294
g311
F132.37711219999466
tp316
a(g311
S'1045'
p317
F380.2508287917065
tp318
a(g317
S'844'
p319
F161.05814139702346
tp320
a(g319
g168
F135.70247565144197
tp321
a(g168
S'813'
p322
F56.66466961496389
tp323
a(g322
S'921'
p324
F182.17650096521103
tp325
a(g324
S'806'
p326
F107.48268907765393
tp327
a(g326
g194
F68.75482386085511
tp328
aF20.03673668005392
g313
S'2012-03-02 09:15:24'
p329
I0
F1224.4672415588507
F1126.898680081232
tp330
a((lp331
(S'806'
p332
g194
F68.75480325342474
tp333
a(g194
g196
F137.50962711414766
tp334
a(g196
S'921'
p335
F107.48268907765393
tp336
a(g335
S'927'
p337
F195.5482192140499
tp338
a(g337
S'1135'
p339
F240.4485615059529
tp340
a(g339
g172
F211.3428433556045
tp341
aF40.23153810087211
g329
S'2012-03-02 09:16:50'
p342
I0
F961.0867435208336
F301.8583524442364
tp343
a((lp344
(g177
g172
F309.31551940093465
tp345
a(g172
S'1009'
p346
F754.638799327876
tp347
a(g346
S'1007'
p348
F681.3552137071262
tp349
a(g348
S'814'
p350
F399.2836900504582
tp351
a(g350
S'792'
p352
F350.26427291339104
tp353
a(g352
S'1013'
p354
F441.0365406997711
tp355
a(g354
S'1376'
p356
F3427.8290189273157
tp357
a(g356
S'1300'
p358
F113.53211655898392
tp359
aF48.57941378689393
g342
S'2012-03-02 09:24:50'
p360
I48
F6477.255171585857
F4156.849906588882
tp361
a((lp362
(S'1376'
p363
g363
F0.0
tp364
aF2.6718881942235684
g360
S'2012-03-02 09:26:27'
p365
I0
F71.99254301102393
F517.6962219001418
tp366
a((lp367
(g363
g358
F185.52446174982018
tp368
a(g358
S'1257'
p369
F909.1318739707772
tp370
a(g369
S'1355'
p371
F136.3734626977237
tp372
aF20.144123974117978
g365
S'2012-03-02 09:30:07'
p373
I29
F1231.029798418321
F1101.3782458525218
tp374
a((lp375
(S'1257'
p376
g376
F0.0
tp377
aF0.0
g373
S'2012-03-02 09:30:11'
p378
I14
F0.0
F24.721655221899468
tp379
a((lp380
(g376
g371
F136.37346259279164
tp381
a(g371
S'1257'
p382
F272.74692529051407
tp383
a(g382
S'1300'
p384
F909.1318739707772
tp385
a(g384
S'1376'
p386
F227.06403529613826
tp387
a(g386
S'1013'
p388
F1713.9014917311686
tp389
aF78.22122693315335
g378
S'2012-03-02 09:32:41'
p390
I24
F3259.2177888813894
F907.9983333446577
tp391
a((lp392
(g363
g363
F0.0
tp393
aF78.46673661076727
g390
S'2012-03-02 09:33:41'
p394
I29
F1307.778943512788
F646.8082152133167
tp395
a((lp396
(g363
g363
F0.0
tp397
aF7.5624989588855245
g394
S'2012-03-02 09:34:15'
p398
I0
F71.4236012783633
F71.86178088077017
tp399
a((lp400
(g363
g388
F2950.2828739470156
tp401
a(g388
S'1211'
p402
F355.0266673083767
tp403
a(g402
S'1162'
p404
F255.46620907884198
tp405
aF32.784636064458425
g398
S'2012-03-02 09:40:46'
p406
I38
F3560.775750334234
F3273.2779245948136
tp407
a((lp408
(S'1211'
p409
g404
F151.38876498756713
tp410
a(g404
S'1211'
p411
F406.8549740484425
tp412
a(g411
S'1013'
p413
F355.0266673083767
tp414
a(g413
g402
F345.5416790133237
tp415
aF283.2327192054848
g406
S'2012-03-02 09:41:02'
p416
I29
F1258.8120853577102
F36.36855873793343
tp417
a((lp418
(S'1013'
p419
g419
F0.0
tp420
aF0.0
g416
S'2012-03-02 09:43:02'
p421
I0
F0.0
F0.0
tp422
a((lp423
(g419
g419
F0.0
tp424
aF0.0
g421
S'2012-03-02 09:44:02'
p425
I0
F0.0
F0.0
tp426
a((lp427
(g419
g402
F9.484988295059399
tp428
a(g402
g413
F341.95973200440585
tp429
aF8.434673287187167
g425
S'2012-03-02 09:46:32'
p430
I0
F351.44472029946525
F437.83622571277476
tp431
a((lp432
(g409
g413
F13.066935303981492
tp433
a(g413
S'792'
p434
F441.0365406997711
tp435
a(g434
S'814'
p436
F350.26427291339104
tp437
a(g436
S'1007'
p438
F399.2836900504582
tp439
a(g438
S'1009'
p440
F681.3552137071262
tp441
a(g440
S'1124'
p442
F343.5463299595581
tp443
a(g442
S'1135'
p444
F432.3866428741164
tp445
aF21.053588245780762
g430
S'2012-03-02 09:54:07'
p446
I16
F2660.939625508402
F1317.122638980574
tp447
a((lp448
(S'1124'
p449
g444
F432.3865346114144
tp450
a(g444
S'1124'
p451
F864.7731774810748
tp452
a(g451
S'1009'
p453
F343.5463299595581
tp454
a(g453
S'982'
p455
F32.0493305357195
tp456
aF602.191934131596
g446
S'2012-03-02 09:54:17'
p457
I3
F1672.7553725877667
F0.4892576773315449
tp458
a((lp459
(S'1009'
p460
g455
F722.5894687934343
tp461
a(g455
S'1135'
p462
F520.658362716069
tp463
a(g462
S'955'
p464
F207.71700266283523
tp465
a(g464
S'844'
p466
F135.70247565144197
tp467
a(g466
S'1045'
p468
F161.05814139702346
tp469
a(g468
g280
F380.2508287917065
tp470
a(g280
S'986'
p471
F211.67350826537785
tp472
aF67.92531643387417
g457
S'2012-03-02 09:56:21'
p473
I0
F2339.649788277888
F334.4197374582231
tp474
a((lp475
(S'1218'
p476
g471
F211.67355320611276
tp477
a(g471
S'1218'
p478
F423.3470614498756
tp479
a(g478
g317
F190.12543329123957
tp480
aF60.62297495122491
g473
S'2012-03-02 09:57:10'
p481
I0
F825.1460479472279
F342.8643185862078
tp482
a((lp483
(g476
g317
F190.12539550114917
tp484
a(g317
g319
F80.52908055539564
tp485
aF19.487122276071226
g481
S'2012-03-02 09:58:00'
p486
I0
F270.6544760565448
F231.85549219557822
tp487
a((lp488
(g285
g319
F80.52906084177697
tp489
a(g319
S'799'
p490
F240.77579445686675
tp491
a(g490
S'1207'
p492
F101.1060544565955
tp493
a(g492
S'806'
p494
F13.36860974882088
tp495
aF22.411518145923093
g486
S'2012-03-02 09:59:10'
p496
I0
F435.7795195040601
F528.6477772308131
tp497
a((lp498
(S'1207'
p499
g494
F127.66912723363669
tp500
a(g494
S'1207'
p501
F141.0377369821515
tp502
a(g501
S'1145'
p503
F71.49713233278443
tp504
aF7.952820698538061
g496
S'2012-03-02 10:01:44'
p505
I0
F340.2039965485726
F700.5768889913146
tp506
a((lp507
(g499
g503
F71.49711370062931
tp508
a(g503
S'1104'
p509
F725.1024325879025
tp510
a(g509
S'1209'
p511
F340.0113446486208
tp512
a(g511
S'1222'
p513
F529.8005662370716
tp514
a(g513
g235
F157.21078570864503
tp515
aF56.11145362716521
g505
S'2012-03-02 10:03:41'
p516
I24
F1823.6222428828692
F560.072943809943
tp517
a((lp518
(g240
g235
F157.21072166279825
tp519
a(g235
g242
F314.42150737049457
tp520
a(g242
g244
F498.13109666342655
tp521
a(g244
g246
F203.95830291726205
tp522
a(g246
g214
F255.3750506846333
tp523
a(g214
g110
F1042.7797147525323
tp524
a(g110
S'1189'
p525
F105.9419924101466
tp526
aF52.72810335943556
g516
S'2012-03-02 10:06:37'
p527
I0
F2577.818386461294
F1294.76441109486
tp528
a((lp529
(g100
g525
F105.94205205410044
tp530
a(g525
g82
F13.91507239979876
tp531
aF7.191427467233953
g527
S'2012-03-02 10:07:37'
p532
I31
F119.8571244538992
F580.6191490581176
tp533
a((lp534
(S'1189'
p535
g82
F527.1446078698787
tp536
a(g82
S'1073'
p537
F36.82230156012897
tp538
aF18.127507803107388
g532
S'2012-03-02 10:09:29'
p539
I40
F563.9669094300076
F562.0583616512057
tp540
a((lp541
(g80
g537
F548.4941961323249
tp542
a(g537
S'1151'
p543
F753.8985985699695
tp544
a(g543
S'1232'
p545
F572.8013873462398
tp546
a(g545
S'1031'
p547
F536.64824962327
tp548
a(g547
S'1049'
p549
F617.9391928603037
tp550
a(g549
S'1231'
p551
F180.8477487444839
tp552
aF61.15484520526841
g539
S'2012-03-02 10:12:38'
p553
I40
F3210.6293732765917
F915.4297584590454
tp554
a((lp555
(S'1049'
p556
g551
F180.8479492346334
tp557
a(g551
S'824'
p558
F629.9590270266575
tp559
a(g558
S'1159'
p560
F590.0411371143654
tp561
a(g560
S'763'
p562
F12.65872730361995
tp563
a(g562
S'793'
p564
F807.7571788598872
tp565
a(g564
S'1187'
p566
F936.9634855721417
tp567
a(g566
S'1164'
p568
F539.6604647224013
tp569
a(g568
S'1141'
p570
F317.58215417110415
tp571
a(g570
S'821'
p572
F272.9196924326181
tp573
a(g572
S'999'
p574
F328.92127087434676
tp575
a(g574
S'843'
p576
F193.00381368915248
tp577
aF6.704271639025684
g553
S'2012-03-02 10:55:41'
p578
I16
F4810.314901000928
F3778.2958000289
tp579
a((lp580
(S'999'
p581
g576
F193.0033242499445
tp582
a(g576
S'999'
p583
F386.00713792245193
tp584
a(g583
S'821'
p585
F328.92127087434676
tp586
a(g585
S'960'
p587
F150.36696590160864
tp588
aF63.49792193690112
g578
S'2012-03-02 10:56:41'
p589
I37
F1058.298698948352
F419.9523407836855
tp590
a((lp591
(S'821'
p592
g587
F150.3669868853373
tp593
a(g587
S'932'
p594
F325.1238765614434
tp595
a(g594
S'843'
p596
F496.3588671175418
tp597
a(g596
S'993'
p598
F298.54352314033923
tp599
a(g598
S'1114'
p600
F865.1525280555261
tp601
a(g600
S'809'
p602
F639.1126192225747
tp603
a(g602
S'900'
p604
F674.794246559625
tp605
a(g604
S'1101'
p606
F1058.824251630271
tp607
a(g606
S'996'
p608
F1288.4416554530242
tp609
a(g608
S'906'
p610
F351.7195587049921
tp611
aF368.90628679984053
g589
S'2012-03-02 10:57:41'
p612
I27
F6148.438113330675
F1082.855917289204
tp613
a((lp614
(S'996'
p615
g610
F547.2913637486266
tp616
a(g610
S'1113'
p617
F504.1784455245772
tp618
a(g617
S'1160'
p619
F141.36476668318906
tp620
aF37.0190040814053
g612
S'2012-03-02 10:59:37'
p621
I35
F1192.8345759563929
F1488.170944027911
tp622
a((lp623
(S'1113'
p624
g619
F141.36471611676043
tp625
a(g619
S'1113'
p626
F282.7294827992773
tp627
a(g626
S'906'
p628
F504.1784455245772
tp629
a(g628
S'830'
p630
F1055.3265253741486
tp631
a(g630
S'942'
p632
F565.0355820413071
tp633
a(g632
S'1056'
p634
F259.19830405018683
tp635
a(g634
S'942'
p636
F214.16385410127222
tp637
aF67.57260171445408
g621
S'2012-03-02 11:02:18'
p638
I0
F3021.9969100075296
F1071.9274004462784
tp639
a((lp640
(S'1056'
p641
g636
F45.03444994891574
tp642
a(g636
S'894'
p643
F169.45083057557812
tp644
aF6.434558415734816
g638
S'2012-03-02 11:04:18'
p645
I9
F214.48528052449387
F309.0103970841706
tp646
a((lp647
(S'942'
p648
g643
F169.45083723419
tp649
a(g643
S'942'
p650
F338.90166780966075
tp651
a(g650
g634
F259.19830405018683
tp652
a(g634
S'1179'
p653
F135.2207080739132
tp654
aF135.41572757519262
g645
S'2012-03-02 11:04:42'
p655
I20
F902.7715171679507
F63.335778136101986
tp656
a((lp657
(g641
g641
F0.0
tp658
aF0.0
g655
S'2012-03-02 11:08:25'
p659
I0
F0.0
F20.049098453095503
tp660
a((lp661
(g641
g641
F0.0
tp662
aF0.0
g659
S'2012-03-02 11:08:56'
p663
I0
F0.0
F0.0
tp664
a((lp665
(g641
g653
F135.22068894831858
tp666
a(g653
S'1056'
p667
F270.4413970166197
tp668
a(g667
g636
F259.19830405018683
tp669
a(g636
S'830'
p670
F565.0355820413071
tp671
a(g670
g632
F368.5459727523763
tp672
aF274.01861911008143
g663
S'2012-03-02 11:09:17'
p673
I0
F1598.4419448088083
F15.336774970047317
tp674
a((lp675
(S'830'
p676
g676
F0.0
tp677
aF0.0
g673
S'2012-03-02 11:15:17'
p678
I0
F0.0
F0.0
tp679
a((lp680
(g676
g676
F0.0
tp681
aF0.0
g678
S'2012-03-02 11:16:11'
p682
I0
F0.0
F0.0
tp683
a((lp684
(g676
g632
F196.48960933600955
tp685
a(g632
g670
F565.0355820413071
tp686
a(g670
S'1192'
p687
F66.39144518350734
tp688
aF175.32352303640977
g682
S'2012-03-02 11:16:28'
p689
I0
F827.9166365608239
F12.822545299154257
tp690
a((lp691
(g676
g687
F698.8445897210123
tp692
a(g687
S'908'
p693
F22.012310628725935
tp694
a(g693
S'894'
p695
F381.46114351867436
tp696
a(g695
g650
F338.90166780966075
tp697
a(g650
g634
F259.19830405018683
tp698
a(g634
g653
F270.4413970166197
tp699
a(g653
g667
F135.22068894831858
tp700
aF62.66023443054145
g689
S'2012-03-02 11:18:29'
p701
I0
F2106.0801016931987
F5.956348442061551
tp702
a((lp703
(S'1179'
p704
g704
F0.0
tp705
aF0.0
g701
S'2012-03-02 11:19:29'
p706
I0
F0.0
F0.0
tp707
a((lp708
(g704
g704
F0.0
tp709
aF0.0
g706
S'2012-03-02 11:21:29'
p710
I0
F0.0
F0.0
tp711
a((lp712
(g704
g704
F0.0
tp713
aF0.0
g710
S'2012-03-02 11:23:29'
p714
I0
F0.0
F0.0
tp715
a((lp716
(g704
g704
F0.0
tp717
aF0.0
g714
S'2012-03-02 11:35:59'
p718
I0
F0.0
F16.176033715945177
tp719
a((lp720
(g704
g667
F135.2207080739132
tp721
a(g667
g636
F46.783451095869566
tp722
aF10.920249550186966
g718
S'2012-03-02 11:36:59'
p723
I0
F182.00415916978275
F55.38804185938218
tp724
a((lp725
(g641
g636
F212.4148529543185
tp726
a(g636
g634
F259.19830405018683
tp727
a(g634
g653
F135.2207080739132
tp728
aF36.410031904705114
g723
S'2012-03-02 11:37:59'
p729
I12
F606.8338650784185
F217.9933343287958
tp730
a((lp731
(g641
g641
F0.0
tp732
aF0.0
g729
S'2012-03-02 11:39:20'
p733
I14
F0.0
F57.485249193027926
tp734
a((lp735
(g641
g641
F0.0
tp736
aF0.0
g733
S'2012-03-02 11:40:39'
p737
I9
F0.0
F80.38324731238045
tp738
a((lp739
(g641
g653
F135.22068894831858
tp740
a(g653
g667
F270.4413970166197
tp741
a(g667
g636
F259.19830405018683
tp742
a(g636
g670
F565.0355820413071
tp743
a(g670
S'906'
p744
F1055.3265253741486
tp745
a(g744
g617
F504.1784455245772
tp746
a(g617
g628
F252.0890413053084
tp747
aF58.55274836009454
g737
S'2012-03-02 11:43:46'
p748
I14
F3041.4899842604664
F1110.4605433024071
tp749
a((lp750
(g624
g628
F252.08940425577936
tp751
a(g628
S'1010'
p752
F1626.56736988427
tp753
a(g752
S'1154'
p754
F507.7471347885134
tp755
a(g754
S'967'
p756
F633.0663908294133
tp757
a(g756
S'1127'
p758
F190.65766483400054
tp759
a(g758
S'988'
p760
F152.49726409143645
tp761
a(g760
S'937'
p762
F84.85729485795852
tp763
a(g762
S'901'
p764
F654.3387647481585
tp765
a(g764
S'1157'
p766
F329.43858562166434
tp767
a(g766
g10
F42.87757714138974
tp768
a(g10
S'1159'
p769
F653.229543764915
tp770
a(g769
g562
F12.65872730361995
tp771
a(g562
S'1223'
p772
F550.130110661309
tp773
aF39.167420646303526
g748
S'2012-03-02 11:52:29'
p774
I29
F5690.155832782429
F4021.4751600485297
tp775
a((lp776
(S'763'
p777
g772
F550.1339037946854
tp778
a(g772
S'851'
p779
F332.6593684405945
tp780
a(g779
S'1022'
p781
F9.466048592386668
tp782
a(g781
S'764'
p783
F270.94464723307203
tp784
a(g783
S'1204'
p785
F91.21371031604693
tp786
a(g785
S'1037'
p787
F224.55970761266173
tp788
a(g787
S'990'
p789
F266.1921548616623
tp790
a(g789
S'1136'
p791
F135.04144523402175
tp792
a(g791
S'947'
p793
F32.73970213569625
tp794
a(g793
S'1143'
p795
F284.0437022092005
tp796
a(g795
S'825'
p797
F97.16530260901972
tp798
a(g797
S'1058'
p799
F120.77548351237422
tp800
a(g799
S'983'
p801
F95.51069131900859
tp802
a(g801
S'913'
p803
F241.23314707151005
tp804
a(g803
S'1012'
p805
F30.664172337768047
tp806
a(g805
S'1119'
p807
F92.08155921796548
tp808
a(g807
S'1210'
p809
F90.33332868743783
tp810
a(g809
S'979'
p811
F10.184827144432433
tp812
a(g811
S'1180'
p813
F95.24614496962238
tp814
a(g813
S'965'
p815
F10.149466896719915
tp816
a(g815
S'1081'
p817
F193.09529427250305
tp818
a(g817
S'1000'
p819
F100.53832984034985
tp820
a(g819
S'1165'
p821
F170.48008485233476
tp822
a(g821
S'849'
p823
F226.49549717781233
tp824
a(g823
S'914'
p825
F75.63542868676824
tp826
a(g825
S'1197'
p827
F33.497940476658606
tp828
a(g827
S'1048'
p829
F406.44012359094836
tp830
a(g829
S'754'
p831
F158.5792239893994
tp832
a(g831
S'771'
p833
F109.71461350125357
tp834
a(g833
S'1021'
p835
F381.89225344649685
tp836
a(g835
S'784'
p837
F127.65023940042988
tp838
a(g837
S'379'
p839
F555.0586733771449
tp840
a(g839
S'4'
p841
F137.96900101176072
tp842
a(g841
S'399'
p843
F149.94959264284023
tp844
a(g843
S'378'
p845
F8.778825909137257
tp846
a(g845
S'365'
p847
F200.2245040941856
tp848
a(g847
S'270'
p849
F1366.258565726773
tp850
a(g849
S'392'
p851
F89.39587970550993
tp852
aF2.1613680073924435
g774
S'2012-03-02 15:22:41'
p853
I75
F7571.992585898193
F4913.835748661406
tp854
a((lp855
(S'270'
p856
g851
F6.463736438847954
tp857
a(g851
S'270'
p858
F47.92982535677327
tp859
aF4.166315371579499
g853
S'2012-03-02 15:23:28'
p860
I35
F54.393561795621224
F425.21938560586136
tp861
a((lp862
(S'392'
p863
g858
F47.929790787715774
tp864
a(g858
g851
F95.85961614434376
tp865
a(g851
S'431'
p866
F457.83618440901
tp867
a(g866
g137
F369.98613606887915
tp868
a(g137
g139
F110.55925503297553
tp869
a(g139
g145
F303.12038890948725
tp870
a(g145
g147
F138.91582185729666
tp871
a(g147
g149
F108.42347341772006
tp872
a(g149
g102
F974.3320508593303
tp873
a(g102
g525
F211.8840444636607
tp874
a(g525
g82
F270.52965352844495
tp875
aF77.2344103869716
g860
S'2012-03-02 15:25:52'
p876
I0
F3089.376415478864
F2069.1553788300457
tp877
a((lp878
(g535
g82
F270.53002674972004
tp879
a(g82
g537
F585.3164976896943
tp880
a(g537
g49
F401.933419412357
tp881
a(g49
S'777'
p882
F465.5645320107461
tp883
a(g882
S'988'
p884
F428.69502991180303
tp885
a(g884
S'1127'
p886
F152.49726409143645
tp887
a(g886
S'967'
p888
F190.65766483400054
tp889
a(g888
S'900'
p890
F217.51739317672622
tp891
a(g890
g606
F137.7360027241217
tp892
aF56.69399000089601
g876
S'2012-03-02 15:28:53'
p893
I66
F2850.447830600605
F3213.9318433922876
tp894
a((lp895
(S'900'
p896
g606
F921.0882489186873
tp897
a(g606
S'900'
p898
F1058.824251630271
tp899
a(g898
S'967'
p900
F217.51739317672622
tp901
a(g900
g758
F95.32887822975243
tp902
aF687.827631586631
g893
S'2012-03-02 15:29:05'
p903
I5
F2292.7587719554367
F0.4892576773315449
tp904
a((lp905
(S'967'
p906
g758
F95.32878660503597
tp907
a(g758
g888
F190.65766483400054
tp908
a(g888
S'1154'
p909
F156.0365306856889
tp910
aF27.917240976298444
g903
S'2012-03-02 15:30:02'
p911
I0
F442.0229821247254
F56.97834609002838
tp912
a((lp913
(g906
g909
F477.0298602073122
tp914
a(g909
g756
F633.0663908294133
tp915
a(g756
g890
F217.51739317672622
tp916
a(g890
S'809'
p917
F337.39539286240483
tp918
aF66.60036148303425
g911
S'2012-03-02 15:31:32'
p919
I27
F1665.0090370758564
F68.9317041597006
tp920
a((lp921
(g896
g917
F337.39885379462476
tp922
a(g917
g604
F292.8022962234811
tp923
aF2.5577498760599564
g919
S'2012-03-02 15:46:19'
p924
I0
F630.2011500181059
F393.18754891647063
tp925
a((lp926
(S'809'
p927
g604
F381.9919504319181
tp928
a(g604
g606
F1058.824251630271
tp929
a(g606
g608
F167.27764319594075
tp930
aF96.48563071548779
g924
S'2012-03-02 15:47:19'
p931
I59
F1608.0938452581297
F960.0276013726955
tp932
a((lp933
(S'1101'
p934
g608
F1121.164012293508
tp935
a(g608
S'1101'
p936
F1288.4416554530242
tp937
a(g936
g898
F1058.824251630271
tp938
a(g898
g917
F674.794246559625
tp939
a(g917
S'1114'
p940
F639.1126192225747
tp941
a(g940
S'993'
p942
F865.1525280555261
tp943
a(g942
S'843'
p944
F149.2717042929511
tp945
aF237.1402234434878
g931
S'2012-03-02 15:48:47'
p946
I50
F5796.76101750748
F111.42243192478962
tp947
a((lp948
(S'993'
p949
g944
F149.27181884897354
tp950
a(g944
g598
F298.54352314033923
tp951
a(g598
g600
F865.1525280555261
tp952
a(g600
g602
F639.1126192225747
tp953
a(g602
g604
F674.794246559625
tp954
a(g604
g606
F1058.824251630271
tp955
a(g606
g608
F320.0850131006944
tp956
aF758.9906527373059
g946
S'2012-03-02 15:49:06'
p957
I25
F4005.7840005580038
F41.47795498493332
tp958
a((lp959
(g934
g608
F968.3566424124849
tp960
a(g608
g610
F899.010922256264
tp961
a(g610
g752
F1626.56736988427
tp962
a(g752
S'827'
p963
F218.73762306572112
tp964
aF100.4933925370486
g957
S'2012-03-02 15:51:19'
p965
I0
F3712.67255761874
F1185.5659038250506
tp966
a((lp967
(S'1010'
p968
g968
F0.0
tp969
aF5.58538245182162
g965
S'2012-03-02 15:52:14'
p970
I29
F85.33223190283032
F173.74300877986397
tp971
a((lp972
(g968
g963
F133.4050554004001
tp973
a(g963
S'1010'
p974
F266.8104465605856
tp975
a(g974
g754
F507.7471347885134
tp976
a(g754
g756
F633.0663908294133
tp977
a(g756
g890
F217.51739317672622
tp978
a(g890
g606
F294.06669270421725
tp979
aF43.72430300861231
g970
S'2012-03-02 15:55:03'
p980
I38
F2052.613113459856
F1049.620839731377
tp981
a((lp982
(g896
g896
F0.0
tp983
aF0.0
g980
S'2012-03-02 15:55:08'
p984
I0
F0.0
F0.0
tp985
a((lp986
(g896
g606
F764.7575589482416
tp987
a(g606
g898
F1058.824251630271
tp988
a(g898
g900
F108.7587186218851
tp989
aF695.6425905121431
g984
S'2012-03-02 15:55:18'
p990
I0
F1932.3405292003974
F29.835897499599234
tp991
a((lp992
(g896
g900
F108.75867455528928
tp993
a(g900
g758
F190.65766483400054
tp994
a(g758
g760
F152.49726409143645
tp995
a(g760
S'777'
p996
F428.69502991180303
tp997
a(g996
S'903'
p998
F350.9006773558848
tp999
a(g998
S'1158'
p1000
F3486.0167626901602
tp1001
a(g1000
S'371'
p1002
F343.4160234801613
tp1003
a(g1002
S'1'
p1004
F725.2487623614271
tp1005
a(g1004
S'333'
p1006
F975.8745201557714
tp1007
a(g1006
S'117'
p1008
F172.715636685259
tp1009
a(g1008
S'132'
p1010
F2691.837296797234
tp1011
a(g1010
S'434'
p1012
F580.6966154789958
tp1013
aF8.84814200390819
g990
S'2012-03-02 17:04:31'
p1014
I5
F10207.314928397422
F9621.834984621513
tp1015
a((lp1016
(S'132'
p1017
g1012
F580.6903030039562
tp1018
a(g1012
S'132'
p1019
F1161.3869181685393
tp1020
a(g1019
S'117'
p1021
F1345.9182662574758
tp1022
aF8.180120496503234
g1014
S'2012-03-02 17:27:10'
p1023
I74
F3087.995487429971
F315.5170684894924
tp1024
a((lp1025
(g1017
g1021
F1345.9190306379467
tp1026
a(g1021
S'333'
p1027
F172.715636685259
tp1028
a(g1027
S'413'
p1029
F1407.7106325202305
tp1030
a(g1029
S'182'
p1031
F501.6805211022033
tp1032
a(g1031
S'88'
p1033
F525.1808022738813
tp1034
aF118.59619869658565
g1023
S'2012-03-02 17:29:10'
p1035
I72
F3953.206623219521
F2322.1566490443083
tp1036
a.