(lp0
((lp1
(S'793'
p2
S'893'
p3
F548.5646442157064
tp4
a(g3
S'925'
p5
F466.7943128830156
tp6
a(g5
S'1193'
p7
F61.26708917803399
tp8
a(g7
S'975'
p9
F281.194959427312
tp10
a(g9
S'1152'
p11
F710.774286764286
tp12
a(g11
S'1114'
p13
F1003.2970238685477
tp14
a(g13
S'809'
p15
F639.1126192225747
tp16
a(g15
S'900'
p17
F334.1847263270907
tp18
aF177.59369247306878
S'2012-03-02 08:44:56'
p19
S'2012-03-02 08:46:18'
p20
I0
F4045.1896618865667
F821.2534019136398
tp21
a((lp22
(S'809'
p23
g17
F340.6095203300017
tp24
a(g17
S'967'
p25
F217.51739317672622
tp26
a(g25
S'1127'
p27
F95.32887822975243
tp28
aF20.635446054836226
g20
S'2012-03-02 08:48:12'
p29
I24
F653.4557917364805
F262.791245920354
tp30
a((lp31
(S'967'
p32
g27
F95.32878660503597
tp33
a(g27
S'988'
p34
F152.49726409143645
tp35
a(g34
S'777'
p36
F428.69502991180303
tp37
a(g36
S'1185'
p38
F465.5645320107461
tp39
a(g38
S'1073'
p40
F401.933419412357
tp41
a(g40
S'987'
p42
F292.6584642322717
tp43
aF36.73354992527301
g29
S'2012-03-02 08:51:12'
p44
I20
F1836.6774962636503
F1935.7997886915336
tp45
a((lp46
(S'1073'
p47
g42
F292.6580334691347
tp48
a(g42
S'1189'
p49
F541.0596802687863
tp50
a(g49
S'887'
p51
F211.8840444636607
tp52
a(g51
S'1027'
p53
F974.3320508593303
tp54
a(g53
S'842'
p55
F54.21176934563721
tp56
aF62.22436735219648
g44
S'2012-03-02 08:53:12'
p57
I55
F2074.1455784065492
F2059.7632786221657
tp58
a((lp59
(S'1027'
p60
g55
F54.21170407237851
tp61
a(g55
S'929'
p62
F138.91582185729666
tp63
a(g62
S'414'
p64
F303.12038890948725
tp65
a(g64
S'203'
p66
F93.70950330230113
tp67
aF17.698722544243907
g57
S'2012-03-02 08:55:12'
p68
I55
F589.9574181414636
F1000.434041828022
tp69
a((lp70
(S'414'
p71
g66
F16.849751730742085
tp72
a(g66
S'414'
p73
F110.55925503297553
tp74
a(g73
S'371'
p75
F739.6760747221767
tp76
a(g75
S'1'
p77
F725.2487623614271
tp78
a(g77
S'190'
p79
F66.61976943586441
tp80
aF0.5196409125397606
g68
S'2012-03-02 12:06:45'
p81
I9
F1658.9536132831859
F814.7068764436128
tp82
a((lp83
(g77
g79
F66.61985284286571
tp84
a(g79
S'200'
p85
F65.9676834156334
tp86
a(g85
S'323'
p87
F638.105914332198
tp88
a(g87
S'195'
p89
F449.68824717774197
tp90
aF73.22290186610634
g81
S'2012-03-02 12:07:45'
p91
I70
F1220.3816977684392
F1083.2320635925348
tp92
a((lp93
(S'323'
p94
g89
F449.68540163712623
tp95
a(g89
S'141'
p96
F288.679793805085
tp97
a(g96
S'349'
p98
F144.75772780934173
tp99
a(g98
S'141'
p100
F72.37892445400122
tp101
aF57.33011086233325
g91
S'2012-03-02 12:08:45'
p102
I68
F955.5018477055542
F1255.1450497071962
tp103
a((lp104
(S'349'
p105
g100
F72.37880335626024
tp106
a(g100
S'195'
p107
F288.679793805085
tp108
a(g107
S'160'
p109
F1654.504702992569
tp110
a(g109
S'206'
p111
F1488.9908982048485
tp112
aF210.27325190152575
g102
S'2012-03-02 12:09:45'
p113
I74
F3504.5541983587627
F1221.4232012299271
tp114
a((lp115
(S'160'
p116
g111
F1488.9430066769257
tp117
a(g111
S'79'
p118
F340.8639244928786
tp119
a(g118
S'62'
p120
F766.4395078482208
tp121
a(g120
S'79'
p122
F108.73352038369188
tp123
aF81.1493987820515
g113
S'2012-03-02 12:11:45'
p124
I68
F2704.9799594017168
F2448.9032755633293
tp125
a((lp126
(S'62'
p127
g122
F657.7059875309842
tp128
a(g122
S'206'
p129
F340.8639244928786
tp130
a(g129
S'118'
p131
F3416.662493017941
tp132
a(g131
S'77'
p133
F622.9417052537165
tp134
a(g133
S'417'
p135
F3261.126947983037
tp136
a(g135
S'50'
p137
F25.433318794754957
tp138
aF55.3956446533529
g124
S'2012-03-02 12:20:46'
p139
I61
F8324.734377073311
F8057.408517944637
tp140
a((lp141
(S'417'
p142
g137
F972.8085595910057
tp143
a(g137
S'417'
p144
F998.2418783563234
tp145
a(g144
S'334'
p146
F301.3332941089707
tp147
aF77.17529656040263
g139
S'2012-03-02 12:22:32'
p148
I24
F2272.3837320563
F160.50539916255386
tp149
a((lp150
(g142
g146
F48.19170566923005
tp151
a(g146
S'63'
p152
F178.2721027153018
tp153
a(g152
S'334'
p154
F2.6046641804062878
tp155
aF13.300750019899635
g148
S'2012-03-02 12:23:34'
p156
I0
F229.06847256493813
F69.11993087593433
tp157
a((lp158
(S'63'
p159
g154
F175.66743853502916
tp160
a(g154
S'417'
p161
F116.91840534827169
tp162
aF526.6545189899416
g156
S'2012-03-02 12:23:36'
p163
I0
F292.58584388330087
F0.4892576773315449
tp164
a((lp165
(S'334'
p166
g161
F232.60659443031358
tp167
a(g161
g146
F230.84698657692184
tp168
aF5.542966417362284
g163
S'2012-03-02 12:28:37'
p169
I0
F463.4535810072354
F6.7686958461977085
tp170
a((lp171
(g142
g146
F118.67801320166942
tp172
a(g146
g161
F118.05238478085327
tp173
aF7.101911939475681
g169
S'2012-03-02 12:30:37'
p174
I0
F236.73039798252267
F8.498926607864087
tp175
a((lp176
(g166
g161
F231.4726149977359
tp177
a(g161
g146
F233.89879818996496
tp178
aF9.256006008153166
g174
S'2012-03-02 12:33:38'
p179
I0
F465.37141318770085
F3.2163110379165705
tp180
a((lp181
(g142
g146
F115.62620158861567
tp182
a(g146
g161
F349.5249997777408
tp183
a(g161
g137
F175.9499073394459
tp184
aF19.23303326117407
g179
S'2012-03-02 12:35:38'
p185
I0
F641.1011087058024
F1.3013471869089832
tp186
a((lp187
(g142
g137
F822.2919711890746
tp188
a(g137
S'163'
p189
F342.83629405796165
tp190
a(g189
S'63'
p191
F776.5288468757814
tp192
a(g191
g154
F178.2721027153018
tp193
a(g154
g152
F174.50262060899718
tp194
aF137.66591012682701
g185
S'2012-03-02 12:36:38'
p195
I0
F2294.431835447117
F5.119574906270632
tp196
a((lp197
(g166
g166
F0.0
tp198
aF0.6950491939897051
g195
S'2012-03-02 12:36:59'
p199
I0
F4.054453631606613
F4.327879333268104
tp200
a((lp201
(g166
g152
F7.82393573808411
tp202
a(g152
g154
F178.2721027153018
tp203
a(g154
g161
F136.83715511983488
tp204
aF46.5023798745438
g199
S'2012-03-02 12:37:24'
p205
I0
F322.9331935732208
F19.34493442593909
tp206
a((lp207
(g166
g161
F212.6878446588082
tp208
a(g161
g146
F349.5249997777408
tp209
a(g146
g152
F178.2721027153018
tp210
a(g152
S'163'
p211
F776.5288468757814
tp212
a(g211
S'353'
p213
F393.0365880891845
tp214
aF43.7973336026786
g205
S'2012-03-02 12:40:01'
p215
I9
F1910.0503821168165
F625.229996272092
tp216
a((lp217
(S'163'
p218
g213
F393.03392133164743
tp219
a(g213
S'163'
p220
F786.0705092772172
tp221
a(g220
S'50'
p222
F342.83629405796165
tp223
a(g222
S'296'
p224
F899.0793771111934
tp225
a(g224
S'358'
p226
F271.20428853774837
tp227
a(g226
S'146'
p228
F569.3222432001658
tp229
a(g228
S'428'
p230
F141.66818194754433
tp231
aF68.06429630926957
g215
S'2012-03-02 12:43:01'
p232
I44
F3403.214815463478
F2276.7792170585853
tp233
a((lp234
(S'146'
p235
g230
F1833.4430915898847
tp236
a(g230
S'1236'
p237
F1389.6055465674801
tp238
a(g237
S'1287'
p239
F500.94138389154773
tp240
a(g239
S'1253'
p241
F215.9995211997082
tp242
a(g241
S'1379'
p243
F169.6879575593227
tp244
a(g243
S'1399'
p245
F365.18936542563927
tp246
a(g245
S'1327'
p247
F433.91775760016844
tp248
a(g247
S'1358'
p249
F197.1367679524997
tp250
a(g249
S'243'
p251
F820.1452521497176
tp252
a(g251
S'8'
p253
F497.6064972180614
tp254
a(g253
S'216'
p255
F797.9260092782116
tp256
a(g255
S'346'
p257
F620.135264855302
tp258
a(g257
S'216'
p259
F310.0667156165125
tp260
aF244.55403392712168
g232
S'2012-03-02 12:45:01'
p261
I70
F8151.801130904056
F736.442302421286
tp262
a((lp263
(S'346'
p264
g259
F310.0685493097044
tp265
a(g259
S'258'
p266
F703.8007348693166
tp267
a(g266
S'22'
p268
F33.93066396769834
tp269
aF24.980661015418473
g261
S'2012-03-02 12:47:32'
p270
I62
F1047.7999481467193
F1225.8715814236598
tp271
a((lp272
(S'258'
p273
g268
F585.602286840935
tp274
a(g268
S'438'
p275
F560.1033063072914
tp276
a(g275
S'186'
p277
F623.8055974915787
tp278
a(g277
S'376'
p279
F811.117454793447
tp280
a(g279
S'75'
p281
F636.9774124918713
tp282
a(g281
S'158'
p283
F1096.7354764412723
tp284
a(g283
S'398'
p285
F188.42759129447398
tp286
aF48.972715566100106
g270
S'2012-03-02 12:53:03'
p287
I0
F4502.7691256608705
F2878.0779434897736
tp288
a((lp289
(S'158'
p290
g285
F792.1216145148566
tp291
a(g285
S'340'
p292
F1116.2253471445076
tp293
a(g292
S'235'
p294
F1103.42528522692
tp295
a(g294
S'406'
p296
F1280.716757645314
tp297
a(g296
S'37'
p298
F709.895434390015
tp299
a(g298
S'231'
p300
F1230.1532257749107
tp301
a(g300
S'101'
p302
F2128.2368240663845
tp303
a(g302
S'307'
p304
F516.3741780275716
tp305
a(g304
S'12'
p306
F336.87317808984017
tp307
a(g306
S'324'
p308
F348.33486400960794
tp309
a(g308
S'233'
p310
F522.2079091612247
tp311
a(g310
S'1158'
p312
F505.9919712639641
tp313
a(g312
S'371'
p314
F343.4160234801613
tp315
a(g314
S'323'
p316
F502.52151206068487
tp317
a(g316
g89
F899.3736486026992
tp318
a(g89
g109
F1654.504702992569
tp319
a(g109
S'348'
p320
F749.9190888032648
tp321
a(g320
S'40'
p322
F401.59962843252373
tp323
a(g322
S'400'
p324
F175.03635260490466
tp325
a(g324
S'359'
p326
F368.9484986175782
tp327
a(g326
S'220'
p328
F423.40012907983873
tp329
a(g328
S'196'
p330
F611.7560822228065
tp331
a(g330
S'328'
p332
F208.72880849237106
tp333
a(g332
S'196'
p334
F104.36427714974283
tp335
aF145.6599791702502
g287
S'2012-03-02 13:00:04'
p336
I37
F17034.125341854262
F5426.9595985177875
tp337
a((lp338
(S'328'
p339
g334
F104.36453134539046
tp340
a(g334
S'220'
p341
F611.7560822228065
tp342
a(g341
S'359'
p343
F423.40012907983873
tp344
a(g343
S'400'
p345
F368.9484986175782
tp346
a(g345
S'40'
p347
F175.03635260490466
tp348
a(g347
S'348'
p349
F401.59962843252373
tp350
a(g349
S'160'
p351
F749.9190888032648
tp352
a(g351
S'195'
p353
F308.90298641542194
tp354
aF94.31781892565188
g336
S'2012-03-02 13:02:04'
p355
I75
F3143.927297521729
F2445.506315767237
tp356
a((lp357
(g116
g353
F1345.601717403788
tp358
a(g353
S'323'
p359
F899.3736486026992
tp360
a(g359
S'371'
p361
F502.52151206068487
tp362
a(g361
S'414'
p363
F739.6760747221767
tp364
a(g363
S'393'
p365
F82.01156142123234
tp366
a(g365
S'203'
p367
F63.42078105971044
tp368
aF0.8228389267585131
g355
S'2012-03-02 17:26:57'
p369
I72
F3632.605295270291
F3689.797030462296
tp370
a((lp371
(S'393'
p372
g367
F63.420730556472776
tp373
a(g367
g73
F110.55925503297553
tp374
a(g73
g75
F369.8395121005169
tp375
aF63.153231989802414
g369
S'2012-03-02 17:27:28'
p376
I0
F543.8194976899651
F30.618302170768864
tp377
a((lp378
(g71
g75
F369.83656274331497
tp379
a(g75
g363
F739.6760747221767
tp380
a(g363
g66
F110.55925503297553
tp381
a(g66
S'431'
p382
F369.98613606887915
tp383
a(g382
S'392'
p384
F457.83618440901
tp385
a(g384
S'270'
p386
F47.92982535677327
tp387
aF125.74944229998778
g376
S'2012-03-02 17:28:28'
p388
I12
F2095.8240383331295
F300.47475898648753
tp389
a((lp390
(S'392'
p391
g391
F0.0
tp392
aF1.2779716654871127
g388
S'2012-03-02 17:29:33'
p393
I55
F23.074488404628426
F231.45593509382533
tp394
a((lp395
(g391
g386
F24.855302383094298
tp396
a(g386
S'392'
p397
F95.85961614434376
tp398
a(g397
S'431'
p399
F457.83618440901
tp400
a(g399
S'203'
p401
F369.98613606887915
tp402
a(g401
g73
F110.55925503297553
tp403
a(g73
S'929'
p404
F303.12038890948725
tp405
a(g404
S'842'
p406
F138.91582185729666
tp407
a(g406
S'1027'
p408
F108.42347341772006
tp409
a(g408
S'887'
p410
F974.3320508593303
tp411
a(g410
S'1189'
p412
F211.8840444636607
tp413
a(g412
S'987'
p414
F541.0596802687863
tp415
a(g414
S'1073'
p416
F585.3164976896943
tp417
a(g416
S'1185'
p418
F401.933419412357
tp419
a(g418
S'777'
p420
F465.5645320107461
tp421
a(g420
S'903'
p422
F350.9006773558848
tp423
a(g422
S'1128'
p424
F276.93091669774793
tp425
a(g424
S'833'
p426
F304.26348633257396
tp427
a(g426
S'778'
p428
F579.573448966089
tp429
a(g428
S'963'
p430
F513.8652496215955
tp431
a(g430
S'994'
p432
F279.4121669133581
tp433
aF3.1465482882509144
g393
S'2012-03-02 19:44:50'
p434
I11
F7094.592348814631
F5808.006165097718
tp435
a((lp436
(S'963'
p437
g432
F242.32097817716178
tp438
a(g432
S'1162'
p439
F428.01156131254
tp440
a(g439
S'792'
p441
F51.23466009532452
tp442
aF43.294031975101575
g434
S'2012-03-02 19:45:50'
p443
I46
F721.5671995850263
F314.4757023473412
tp444
a((lp445
(S'1162'
p446
g441
F342.2928678335623
tp447
a(g441
S'1162'
p448
F393.5275279288238
tp449
a(g448
S'994'
p450
F321.3984120950533
tp451
aF62.393241119455446
g443
S'2012-03-02 19:46:51'
p452
I0
F1057.2188078574395
F40.47743783400123
tp453
a((lp454
(g446
g450
F106.61314923442956
tp455
a(g450
S'963'
p456
F521.73314507341
tp457
a(g456
S'778'
p458
F513.8652496215955
tp459
a(g458
S'1044'
p460
F302.5121384580218
tp461
a(g460
S'1107'
p462
F139.21205723574772
tp463
aF95.03614437739228
g452
S'2012-03-02 19:47:51'
p464
I24
F1583.9357396232047
F543.4298522984375
tp465
a((lp466
(S'1044'
p467
g462
F139.212074066518
tp468
a(g462
S'791'
p469
F226.13434667854332
tp470
a(g469
S'852'
p471
F161.04467816393296
tp472
aF7.895866483634915
g464
S'2012-03-02 19:51:51'
p473
I22
F526.3910989089943
F720.1603469295118
tp474
a((lp475
(S'791'
p476
g471
F91.5383442146994
tp477
a(g471
S'791'
p478
F252.5830223782035
tp479
a(g478
S'1107'
p480
F113.06740599588973
tp481
aF31.054331723012332
g473
S'2012-03-02 19:52:44'
p482
I27
F457.18877258879263
F316.62203987644955
tp483
a((lp484
(g476
g480
F113.06694068653535
tp485
a(g480
S'852'
p486
F264.7955081021066
tp487
a(g486
S'883'
p488
F147.94132796836186
tp489
aF86.04061801478244
g482
S'2012-03-02 19:53:06'
p490
I0
F525.8037767570038
F45.19682752717173
tp491
a((lp492
(S'852'
p493
g488
F181.34356763904307
tp494
a(g488
S'1068'
p495
F115.05830496594493
tp496
a(g495
S'1032'
p497
F287.5482508719534
tp498
a(g497
S'796'
p499
F180.94861069968616
tp500
aF45.89392405059765
g490
S'2012-03-02 19:54:06'
p501
I18
F764.8987341766275
F266.5920345159002
tp502
a((lp503
(S'1032'
p504
g499
F180.9481305821896
tp505
a(g499
S'988'
p506
F37.46020309095503
tp507
a(g506
S'937'
p508
F42.42864657398181
tp509
aF5.943121068921869
g501
S'2012-03-02 19:56:44'
p510
I33
F260.83698024712646
F995.8048202609169
tp511
a((lp512
(S'988'
p513
g508
F42.42864828415052
tp514
a(g508
S'988'
p515
F84.85729485795852
tp516
a(g515
g36
F428.69502991180303
tp517
a(g36
g38
F232.78232429736136
tp518
aF19.996815989187215
g510
S'2012-03-02 19:59:06'
p519
I33
F788.7632973512734
F364.0030313388106
tp520
a.