(lp0
((lp1
(S'1232'
p2
S'901'
p3
F440.5803122375677
tp4
a(g3
S'1157'
p5
F329.43858562166434
tp6
a(g5
S'1075'
p7
F42.87757714138974
tp8
a(g7
S'1099'
p9
F21.39264993143606
tp10
aF50.057347495923466
S'2012-03-02 07:01:51'
p11
S'2012-03-02 07:02:51'
p12
I33
F834.2891249320578
F459.3088721721926
tp13
a((lp14
(S'1075'
p15
g9
F21.392662390615975
tp16
a(g9
S'1157'
p17
F10.623947141242395
tp18
a(g17
S'901'
p19
F329.43858562166434
tp20
a(g19
S'937'
p21
F654.3387647481585
tp22
a(g21
S'796'
p23
F117.72042469973982
tp24
a(g23
S'1032'
p25
F180.9481305821896
tp26
aF78.86775091101663
g12
S'2012-03-02 07:03:51'
p27
I37
F1314.4625151836105
F491.7572159528437
tp28
a((lp29
(S'796'
p30
g25
F180.94861069968616
tp31
a(g25
S'796'
p32
F361.8967412680692
tp33
a(g32
S'1082'
p34
F137.28505847111882
tp35
a(g34
S'1127'
p36
F6.8306029289612695
tp37
a(g36
S'967'
p38
F190.65766483400054
tp39
a(g38
S'900'
p40
F108.75867455528928
tp41
aF46.1163437652682
g27
S'2012-03-02 07:05:08'
p42
I44
F986.3773527571253
F293.53956118050706
tp43
a((lp44
(S'967'
p45
g40
F108.7587186218851
tp46
a(g40
S'809'
p47
F180.08073109157053
tp48
aF17.330366982807337
g42
S'2012-03-02 07:06:08'
p49
I24
F288.8394497134556
F571.1511309462078
tp50
a((lp51
(S'900'
p52
g47
F494.71351554435574
tp53
a(g47
S'900'
p54
F674.794246559625
tp55
a(g54
S'967'
p56
F217.51739317672622
tp57
a(g56
S'1127'
p58
F190.65766483400054
tp59
a(g58
S'988'
p60
F152.49726409143645
tp61
a(g60
S'937'
p62
F84.85729485795852
tp63
a(g62
S'1061'
p64
F930.5990375079346
tp65
a(g64
S'1062'
p66
F438.79091037084766
tp67
aF1.124246187799783
g49
S'2012-03-02 09:56:05'
p68
I31
F3184.4273269428845
F1855.4149833340784
tp69
a((lp70
(S'1061'
p71
g66
F4.108387763552795
tp72
a(g66
S'974'
p73
F183.41867360754313
tp74
a(g73
S'991'
p75
F656.1638760738123
tp76
a(g75
S'874'
p77
F64.91748843970613
tp78
aF54.51650555307686
g68
S'2012-03-02 09:57:05'
p79
I50
F908.6084258846143
F853.1459124984563
tp80
a((lp81
(S'991'
p82
g77
F172.1588023381706
tp83
a(g77
S'867'
p84
F492.04911934836207
tp85
a(g84
S'1191'
p86
F360.6074231124015
tp87
a(g86
S'1218'
p88
F264.7542280364345
tp89
a(g88
S'1045'
p90
F380.2508287917065
tp91
a(g90
S'844'
p92
F161.05814139702346
tp93
a(g92
S'955'
p94
F135.70247565144197
tp95
a(g94
S'813'
p96
F56.66466961496389
tp97
a(g96
S'921'
p98
F182.17650096521103
tp99
a(g98
S'927'
p100
F195.5482192140499
tp101
a(g100
S'959'
p102
F106.9390388791336
tp103
a(g102
S'1213'
p104
F159.27354120793285
tp105
a(g104
S'959'
p106
F156.22289445540204
tp107
aF40.33436975731763
g79
S'2012-03-02 10:01:17'
p108
I42
F2823.405883012234
F1874.7802560470457
tp109
a((lp110
(S'1213'
p111
g106
F3.0506467528701386
tp112
a(g106
S'806'
p113
F197.56237677218394
tp114
a(g113
S'1020'
p115
F68.75482386085511
tp116
aF19.014200991946527
g108
S'2012-03-02 10:02:08'
p117
I0
F269.36784738590916
F206.73022431095353
tp118
a((lp119
(S'806'
p120
g115
F68.75480325342474
tp121
a(g115
S'1170'
p122
F201.74042609344684
tp123
a(g122
S'915'
p124
F418.6803844186766
tp125
a(g124
S'1170'
p126
F209.34014213040564
tp127
aF16.173283606127168
g117
S'2012-03-02 10:05:28'
p128
I0
F898.5157558959538
F755.0149601221998
tp129
a((lp130
(S'915'
p131
g126
F209.34024229024962
tp132
a(g126
g124
F418.6803844186766
tp133
a(g124
S'121'
p134
F317.2464914021481
tp135
a(g134
S'1104'
p136
F16.324115516408288
tp137
aF65.31563096337618
g128
S'2012-03-02 10:06:21'
p138
I0
F961.5912336274827
F3.5599948953913034
tp139
a((lp140
(S'121'
p141
g136
F332.6279498749009
tp142
a(g136
S'1145'
p143
F725.1024325879025
tp144
a(g143
S'1028'
p145
F210.6065185280842
tp146
a(g145
S'772'
p147
F215.9434803689407
tp148
aF63.612016343992636
g138
S'2012-03-02 10:07:45'
p149
I0
F1484.2803813598282
F726.7361414302537
tp150
a((lp151
(S'1028'
p152
g147
F14.264899065565837
tp153
a(g147
S'819'
p154
F232.03849592151013
tp155
a(g154
S'1233'
p156
F280.1051964205321
tp157
a(g156
S'820'
p158
F255.3750506846333
tp159
a(g158
S'887'
p160
F1042.7797147525323
tp161
a(g160
S'1027'
p162
F974.3320508593303
tp163
a(g162
S'842'
p164
F54.21176934563721
tp165
aF43.156243014197756
g149
S'2012-03-02 10:11:43'
p166
I0
F2853.1071770497406
F1626.6122814356845
tp167
a((lp168
(S'1027'
p169
g164
F54.21170407237851
tp170
a(g164
S'929'
p171
F138.91582185729666
tp172
a(g171
S'414'
p173
F248.94935193572073
tp174
aF26.524612671923755
g166
S'2012-03-02 10:12:43'
p175
I29
F442.0768778653959
F758.5253955172401
tp176
a((lp177
(S'929'
p178
g173
F54.1710369752585
tp179
a(g173
S'203'
p180
F110.55925503297553
tp181
a(g180
S'431'
p182
F369.98613606887915
tp183
a(g182
S'140'
p184
F167.38210388707625
tp185
aF42.12591191785137
g175
S'2012-03-02 10:13:43'
p186
I48
F702.0985319641894
F90.2435878374491
tp187
a((lp188
(S'431'
p189
g184
F167.38252198820078
tp190
a(g184
S'263'
p191
F435.87853113202175
tp192
a(g191
S'1115'
p193
F472.4206568274532
tp194
a(g193
S'989'
p195
F313.88624573469195
tp196
aF41.68703867047103
g186
S'2012-03-02 10:15:43'
p197
I35
F1389.5679556823677
F936.2712957881887
tp198
a((lp199
(S'1115'
p200
g195
F797.5101649461399
tp201
a(g195
S'1036'
p202
F786.7860140536283
tp203
a(g202
S'1151'
p204
F499.30418929770127
tp205
a(g204
S'1232'
p206
F572.8013873462398
tp207
a(g206
S'1031'
p208
F536.64824962327
tp209
a(g208
S'824'
p210
F464.2330654185904
tp211
a(g210
S'1231'
p212
F32.11267270024055
tp213
aF0.8184006824936173
g197
S'2012-03-02 14:46:12'
p214
I46
F3689.39574338581
F2679.575392261904
tp215
a((lp216
(S'824'
p217
g212
F597.846354326497
tp218
a(g212
S'824'
p219
F629.9590270266575
tp220
a(g219
S'1031'
p221
F454.1357648651748
tp222
aF263.26035332112986
g214
S'2012-03-02 14:46:35'
p223
I0
F1681.9411462183293
F37.48859273886354
tp224
a((lp225
(g217
g221
F10.097300556005532
tp226
a(g221
S'1232'
p227
F536.64824962327
tp228
a(g227
g3
F500.4166198457959
tp229
a(g3
g21
F327.16869397647287
tp230
aF56.86886333799494
g223
S'2012-03-02 14:48:02'
p231
I14
F1374.3308640015443
F541.6261211846427
tp232
a((lp233
(S'901'
p234
g21
F327.1700708528471
tp235
a(g21
S'901'
p236
F654.3387647481585
tp237
a(g236
S'1232'
p238
F500.4166198457959
tp239
a(g238
S'1151'
p240
F572.8013873462398
tp241
a(g240
S'1073'
p242
F437.63385231925344
tp243
aF74.77082085336885
g231
S'2012-03-02 14:50:02'
p244
I14
F2492.3606951122947
F757.9211223152188
tp245
a((lp246
(S'1151'
p247
g242
F316.26474637280955
tp248
a(g242
S'987'
p249
F585.3164976896943
tp250
a(g249
S'1229'
p251
F215.55981082530772
tp252
aF31.176029438729625
g244
S'2012-03-02 14:52:11'
p253
I9
F1117.1410548878116
F713.9690407002038
tp254
a((lp255
(S'987'
p256
g251
F613.0459297000727
tp257
a(g251
S'895'
p258
F249.3697768587104
tp259
a(g258
S'774'
p260
F268.4210662990969
tp261
a(g260
S'970'
p262
F377.3364418971982
tp263
a(g262
S'1069'
p264
F300.1901722143531
tp265
a(g264
S'860'
p266
F115.85435816972478
tp267
aF33.62710622573283
g253
S'2012-03-02 14:55:37'
p268
I46
F1924.2177451391562
F922.5777989564144
tp269
a((lp270
(S'1069'
p271
g266
F115.85431805648571
tp272
a(g266
S'1030'
p273
F230.54817177966603
tp274
a(g273
S'1046'
p275
F233.06353457732175
tp276
a(g275
S'1111'
p277
F224.7758530051457
tp278
a(g277
S'844'
p279
F216.35782443809995
tp280
a(g279
g94
F135.70247565144197
tp281
a(g94
S'1135'
p282
F207.71700266283523
tp283
a(g282
S'982'
p284
F459.34468382065603
tp285
aF37.72476959982729
g268
S'2012-03-02 14:58:31'
p286
I48
F1823.3638639916524
F1666.0119203262254
tp287
a((lp288
(S'1135'
p289
g284
F61.31367891274766
tp290
a(g284
S'804'
p291
F52.08719004561709
tp292
aF8.164862565002263
g286
S'2012-03-02 14:59:21'
p293
I0
F113.40086895836475
F66.22973330721904
tp294
a((lp295
(S'982'
p296
g291
F87.95394624054701
tp297
a(g291
S'888'
p298
F436.4498289725836
tp299
a(g298
S'1213'
p300
F398.42229143270566
tp301
a(g300
g106
F79.63669663332959
tp302
aF17.86567300893563
g293
S'2012-03-02 15:02:43'
p303
I35
F1002.4627632791659
F543.278149479188
tp304
a((lp305
(g111
g106
F79.63684457582836
tp306
a(g106
g113
F197.56237677218394
tp307
a(g113
S'1207'
p308
F141.0377369821515
tp309
a(g308
S'799'
p310
F50.55302239546013
tp311
aF28.127398843537435
g303
S'2012-03-02 15:03:43'
p312
I37
F468.78998072562393
F496.95214566835415
tp313
a((lp314
(S'1207'
p315
g310
F50.55303206118107
tp316
a(g310
S'1207'
p317
F101.1060544565955
tp318
a(g317
S'806'
p319
F141.0377369821515
tp320
a(g319
S'959'
p321
F197.56237677218394
tp322
a(g321
g104
F79.63684457582836
tp323
aF34.193762690876426
g312
S'2012-03-02 15:04:43'
p324
I0
F569.8960448479404
F235.03604420731702
tp325
a((lp326
(S'959'
p327
g104
F79.63669663332959
tp328
a(g104
S'888'
p329
F398.42229143270566
tp330
a(g329
S'923'
p331
F70.32157044873382
tp332
aF11.216875060529368
g324
S'2012-03-02 15:07:39'
p333
I44
F548.3805585147691
F542.0458450387359
tp334
a((lp335
(S'888'
p336
g331
F247.7339785650072
tp337
a(g331
S'101'
p338
F930.3605400765287
tp339
a(g338
S'231'
p340
F2128.2368240663845
tp341
a(g340
S'5'
p342
F373.65454097386885
tp343
a(g342
S'26'
p344
F259.35658898200876
tp345
a(g344
g342
F148.660119934379
tp346
aF69.41891194978035
g333
S'2012-03-02 15:11:11'
p347
I37
F4088.0025925981768
F2464.079022985928
tp348
a((lp349
(S'26'
p350
g342
F110.69646905282451
tp351
a(g342
S'25'
p352
F1185.6258624438292
tp353
a(g352
S'37'
p354
F413.3447200728771
tp355
aF34.19334103139062
g347
S'2012-03-02 15:14:11'
p356
I24
F1709.667051569531
F1511.6847128502843
tp357
a((lp358
(S'25'
p359
g354
F64.6541801750342
tp360
a(g354
S'406'
p361
F709.895434390015
tp362
a(g361
S'235'
p363
F1280.716757645314
tp364
a(g363
S'340'
p365
F35.07665086743255
tp366
aF41.80686046155591
g356
S'2012-03-02 15:17:11'
p367
I38
F2090.3430230777954
F2017.2917363227532
tp368
a((lp369
(S'235'
p370
g365
F1068.348634408478
tp371
a(g365
S'398'
p372
F1116.2253471445076
tp373
a(g372
S'158'
p374
F980.5492056374832
tp375
a(g374
S'75'
p376
F0.3990764864922092
tp377
aF56.695921140482874
g367
S'2012-03-02 15:20:32'
p378
I44
F3165.5222636769604
F3165.422428790135
tp379
a((lp380
(S'158'
p381
g376
F1096.3363999553749
tp382
a(g376
S'376'
p383
F318.48959921395505
tp384
aF84.88955995015979
g378
S'2012-03-02 15:21:32'
p385
I33
F1414.8259991693299
F1096.1420563070672
tp386
a((lp387
(S'75'
p388
g383
F318.48781335434717
tp389
a(g383
S'186'
p390
F811.117454793447
tp391
a(g390
S'438'
p392
F623.8055974915787
tp393
a(g392
S'22'
p394
F280.0514597311305
tp395
aF62.568071549861635
g385
S'2012-03-02 15:23:29'
p396
I77
F2033.4623253705033
F1910.7281915658339
tp397
a((lp398
(S'438'
p399
g394
F280.05184658624904
tp400
a(g394
S'438'
p401
F560.1033063072914
tp402
a(g401
S'186'
p403
F623.8055974915787
tp404
a(g403
S'376'
p405
F811.117454793447
tp406
a(g405
S'75'
p407
F318.48781335434717
tp408
aF95.27385374202538
g396
S'2012-03-02 15:25:07'
p409
I0
F2593.5660185329134
F1077.1395769435183
tp410
a((lp411
(S'376'
p412
g407
F318.48959921395505
tp413
a(g407
S'158'
p414
F1096.7354764412723
tp415
a(g414
S'398'
p416
F11.796467308736368
tp417
aF28.382748920830213
g409
S'2012-03-02 15:28:08'
p418
I74
F1427.0215429639636
F1941.10472696494
tp419
a((lp420
(g381
g416
F968.7527383419435
tp421
a(g416
g374
F980.5492056374832
tp422
a(g374
S'49'
p423
F59.484750118064284
tp424
aF114.78781109128519
g418
S'2012-03-02 15:29:11'
p425
I38
F2008.786694097491
F316.7710075408083
tp426
a((lp427
(g381
g423
F526.4468103948608
tp428
a(g423
S'294'
p429
F478.01855063695587
tp430
aF60.267921661909
g425
S'2012-03-02 15:30:11'
p431
I33
F1004.4653610318167
F543.1723402517916
tp432
a((lp433
(S'49'
p434
g429
F575.9266343431027
tp435
a(g429
S'350'
p436
F1130.8221946196147
tp437
a(g436
S'340'
p438
F287.1664578059673
tp439
aF45.14525177589475
g431
S'2012-03-02 15:32:50'
p440
I22
F1993.9152867686848
F1662.025028297207
tp441
a((lp442
(S'350'
p443
g438
F287.1664578066746
tp444
a(g438
S'350'
p445
F574.3329156126418
tp446
a(g445
S'1343'
p447
F1649.2722755654704
tp448
a(g447
S'1326'
p449
F335.7915781764397
tp450
a(g449
S'1329'
p451
F228.31950497932885
tp452
a(g451
S'250'
p453
F369.9130616166849
tp454
a(g453
S'1329'
p455
F184.95653050572474
tp456
aF143.59459744337008
g440
S'2012-03-02 15:34:21'
p457
I0
F3629.7523242629654
F752.7031589648099
tp458
a((lp459
(S'250'
p460
g455
F184.95653111097084
tp461
a(g455
g453
F369.9130616166849
tp462
a(g453
S'99'
p463
F0.9688014939761335
tp464
aF25.9872495999724
g457
S'2012-03-02 15:35:38'
p465
I51
F555.8383942216319
F362.9039659550144
tp466
a((lp467
(g460
g463
F713.1978561950915
tp468
a(g463
S'451'
p469
F634.6465544405745
tp470
a(g469
S'1303'
p471
F279.3645428285849
tp472
aF47.24155026186535
g465
S'2012-03-02 15:37:42'
p473
I40
F1627.208953464251
F1267.0094880957977
tp474
a((lp475
(S'451'
p476
g471
F279.3655345764445
tp477
a(g471
S'1284'
p478
F393.0490934460226
tp479
a(g478
S'1402'
p480
F532.13818844487
tp481
a(g480
S'1264'
p482
F228.23448105151797
tp483
a(g482
S'1344'
p484
F16.376478052462968
tp485
aF25.081680731042045
g473
S'2012-03-02 15:41:10'
p486
I11
F1449.1637755713182
F1023.5430490587145
tp487
a((lp488
(S'1264'
p489
g484
F352.0561779492895
tp490
a(g484
S'1264'
p491
F368.4326560017038
tp492
a(g491
S'1382'
p493
F491.1492433133898
tp494
a(g493
S'1264'
p495
F73.22285499936476
tp496
aF73.4206247007856
g486
S'2012-03-02 15:42:13'
p497
I0
F1284.8609322637478
F82.41491455343557
tp498
a((lp499
(S'1382'
p500
g495
F417.926388331979
tp501
a(g495
S'1330'
p502
F612.8101096718462
tp503
a(g502
S'1326'
p504
F691.146827141222
tp505
a(g504
S'1343'
p506
F167.89596934615375
tp507
aF113.38675766947208
g497
S'2012-03-02 15:43:13'
p508
I42
F1889.7792944912012
F1264.5518540467938
tp509
a((lp510
(S'1326'
p511
g506
F167.89560884127812
tp512
a(g506
g449
F335.7915781764397
tp513
a(g449
g451
F228.31950497932885
tp514
a(g451
S'1326'
p515
F114.15975186736728
tp516
aF63.46248328983104
g508
S'2012-03-02 15:44:01'
p517
I81
F846.166443864414
F467.9223485969957
tp518
a((lp519
(S'1329'
p520
g515
F114.15975311197512
tp521
a(g515
g451
F228.31950497932885
tp522
a(g451
g453
F369.9130616166849
tp523
a(g453
g463
F92.99084411603155
tp524
aF19.458922078969618
g517
S'2012-03-02 15:46:30'
p525
I0
F805.3831638240204
F912.9014530812664
tp526
a((lp527
(g460
g463
F621.1758136201312
tp528
a(g463
g469
F634.6465544405745
tp529
a(g469
S'99'
p530
F14.016381229779514
tp531
aF23.443176909978188
g525
S'2012-03-02 15:49:45'
p532
I59
F1269.838749290485
F1243.5906949422529
tp533
a((lp534
(g476
g530
F620.6301732173292
tp535
a(g530
g469
F634.6465544405745
tp536
a(g469
S'268'
p537
F230.77345257950506
tp538
a(g537
S'451'
p539
F23.763393302488254
tp540
aF72.47105152991506
g532
S'2012-03-02 15:51:00'
p541
I0
F1509.813573539897
F55.378648905451236
tp542
a((lp543
(S'268'
p544
g539
F207.0100592770263
tp545
a(g539
S'1402'
p546
F391.4745659135401
tp547
a(g546
S'1284'
p548
F532.13818844487
tp549
a(g548
S'871'
p550
F365.5542327430593
tp551
aF39.315601218705
g541
S'2012-03-02 15:53:17'
p552
I31
F1496.1770463784956
F805.5014294381739
tp553
a((lp554
(S'1284'
p555
g550
F365.5560589475872
tp556
a(g550
S'1137'
p557
F404.8816121047468
tp558
a(g557
S'1072'
p559
F827.5221670782628
tp560
a(g559
S'271'
p561
F227.57038572236442
tp562
aF36.510604477059225
g552
S'2012-03-02 15:56:17'
p563
I35
F1825.5302238529612
F1558.860704846972
tp564
a((lp565
(S'1072'
p566
g561
F227.5684896632307
tp567
a(g561
S'1072'
p568
F23.25544026580479
tp569
aF17.36473361047169
g563
S'2012-03-02 15:57:09'
p570
I66
F250.8239299290355
F520.8689824187985
tp571
a((lp572
(S'271'
p573
g568
F431.88343509403563
tp574
a(g568
g561
F455.13887535379115
tp575
a(g561
S'336'
p576
F145.7434125243181
tp577
a(g576
g342
F276.60213113766173
tp578
a(g342
S'231'
p579
F373.65454097386885
tp580
a(g579
S'101'
p581
F2128.2368240663845
tp582
a(g581
S'923'
p583
F930.3605400765287
tp584
a(g583
S'1066'
p585
F203.7664193135748
tp586
aF107.89933480451268
g570
S'2012-03-02 15:59:54'
p587
I0
F4945.386178540164
F2118.114980026549
tp588
a((lp589
(S'923'
p590
g585
F203.76793276645955
tp591
a(g585
S'1170'
p592
F134.29559832461862
tp593
a(g592
S'959'
p594
F135.9977572931447
tp595
a(g594
S'927'
p596
F106.9390388791336
tp597
a(g596
S'1135'
p598
F240.4485615059529
tp599
a(g598
S'1124'
p600
F864.7731774810748
tp601
a(g600
S'1009'
p602
F343.5463299595581
tp603
a(g602
S'1007'
p604
F340.6775329852385
tp605
aF55.05551835550097
g587
S'2012-03-02 16:02:29'
p606
I3
F2370.4459291951807
F1772.3290387876818
tp607
a((lp608
(S'1009'
p609
g604
F340.67768072665984
tp610
a(g604
S'1186'
p611
F322.0478439414783
tp612
a(g611
S'1122'
p613
F682.0643108370471
tp614
a(g613
S'804'
p615
F226.0060079424955
tp616
aF353.42906477572814
g606
S'2012-03-02 16:02:45'
p617
I14
F1570.7958434476807
F15.956762320916269
tp618
a((lp619
(S'1122'
p620
g615
F710.7194223263948
tp621
a(g615
S'982'
p622
F140.04113628613734
tp623
a(g622
S'1009'
p624
F754.638799327876
tp625
a(g624
g604
F340.6775329852385
tp626
aF175.1469201833082
g617
S'2012-03-02 16:03:25'
p627
I0
F1946.0768909256467
F32.62459147735408
tp628
a((lp629
(g609
g604
F340.67768072665984
tp630
a(g604
g611
F322.0478439414783
tp631
a(g611
g613
F682.0643108370471
tp632
a(g613
S'1009'
p633
F201.5025482273257
tp634
aF18.55550860479013
g627
S'2012-03-02 16:08:25'
p635
I20
F1546.2923837325109
F759.9100029462015
tp636
a((lp637
(g620
g633
F201.502538069622
tp638
a(g633
S'1122'
p639
F403.0050862783067
tp640
a(g639
g615
F468.363700761058
tp641
aF41.98192141730817
g635
S'2012-03-02 16:09:57'
p642
I27
F1072.8713251089866
F245.4895639235906
tp643
a((lp644
(g620
g615
F468.36172953026096
tp645
a(g615
S'1122'
p646
F936.7254302074238
tp647
a(g646
g633
F201.5025482273257
tp648
aF41.31230677624312
g642
S'2012-03-02 16:12:17'
p649
I16
F1606.5897079650103
F553.5270295122189
tp650
a((lp651
(g620
g633
F201.502538069622
tp652
a(g633
S'1124'
p653
F343.5463299595581
tp654
a(g653
S'1191'
p655
F348.66405624127844
tp656
a(g655
g88
F156.14075621580906
tp657
aF62.991220829176065
g649
S'2012-03-02 16:13:17'
p658
I25
F1049.8536804862676
F339.45938449424517
tp659
a((lp660
(S'1191'
p661
g88
F108.61347182065653
tp662
a(g88
g90
F380.2508287917065
tp663
a(g90
g92
F80.52908055539564
tp664
aF34.163602870065525
g658
S'2012-03-02 16:14:17'
p665
I40
F569.3933811677587
F577.2122992405344
tp666
a((lp667
(S'1045'
p668
g92
F80.52906084177697
tp669
a(g92
g94
F135.70247565144197
tp670
a(g94
g96
F56.66466961496389
tp671
a(g96
g98
F182.17650096521103
tp672
a(g98
S'806'
p673
F107.48268907765393
tp674
a(g673
g115
F68.75482386085511
tp675
aF35.51119987566954
g665
S'2012-03-02 16:15:21'
p676
I35
F631.310220011903
F327.0226453836868
tp677
a((lp678
(g120
g115
F68.75480325342474
tp679
a(g115
S'806'
p680
F137.50962711414766
tp681
a(g680
S'921'
p682
F107.48268907765393
tp683
a(g682
S'813'
p684
F182.17650096521103
tp685
a(g684
S'955'
p686
F56.66466961496389
tp687
a(g686
S'844'
p688
F135.70247565144197
tp689
a(g688
S'1045'
p690
F161.05814139702346
tp691
a(g690
S'1218'
p692
F380.2508287917065
tp693
a(g692
S'1191'
p694
F132.37711219999466
tp695
aF44.982721587486644
g676
S'2012-03-02 16:17:10'
p696
I0
F1361.9768480655678
F488.27093763688487
tp697
a((lp698
(S'1218'
p699
g694
F132.37711583648567
tp700
a(g694
S'867'
p701
F360.6074231124015
tp702
a(g701
S'920'
p703
F204.42103199643964
tp704
aF58.38744314891108
g696
S'2012-03-02 16:17:53'
p705
I22
F697.4055709453268
F276.55478373934216
tp706
a((lp707
(S'867'
p708
g703
F204.42107961437014
tp709
a(g703
S'867'
p710
F408.84211159134935
tp711
a(g710
S'874'
p712
F246.02455966890426
tp713
aF77.33589757871613
g705
S'2012-03-02 16:18:33'
p714
I0
F859.2877508746237
F71.89863956803234
tp715
a((lp716
(g708
g712
F246.02455967945818
tp717
a(g712
S'991'
p718
F237.07629077782101
tp719
a(g718
S'974'
p720
F656.1638760738123
tp721
a(g720
S'833'
p722
F480.1669052301094
tp723
a(g722
S'778'
p724
F579.573448966089
tp725
a(g724
S'1044'
p726
F302.5121384580218
tp727
a(g726
S'1107'
p728
F139.21205723574772
tp729
aF37.72470394887227
g714
S'2012-03-02 16:22:45'
p730
I40
F2640.729276421059
F1878.7665377524834
tp731
a((lp732
(S'1044'
p733
g728
F139.212074066518
tp734
a(g728
S'791'
p735
F226.13434667854332
tp736
a(g735
S'936'
p737
F263.909236928096
tp738
a(g737
S'873'
p739
F117.95681148015007
tp740
a(g739
S'1292'
p741
F5581.023855259741
tp742
a(g741
S'1325'
p743
F415.9677199245684
tp744
aF64.2305147079773
g730
S'2012-03-02 16:29:03'
p745
I0
F6744.204044337617
F4915.502964674704
tp746
a((lp747
(S'1292'
p748
g743
F43.8272043363322
tp749
a(g743
S'1235'
p750
F25.282953953852495
tp751
aF5.07748101723806
g745
S'2012-03-02 16:29:52'
p752
I0
F69.1101582901847
F68.24303799339539
tp753
a((lp754
(S'1325'
p755
g750
F753.2554266295006
tp756
a(g750
S'1325'
p757
F389.2695563777924
tp758
aF9.242898738935404
g752
S'2012-03-02 16:37:17'
p759
I38
F1142.524983007293
F766.0331059518585
tp760
a((lp761
(S'1235'
p762
g757
F389.26882422869335
tp763
a(g757
S'1292'
p764
F459.79492426068333
tp765
a(g764
S'1373'
p766
F768.4456454198628
tp767
a(g766
S'1378'
p768
F1248.079896567967
tp769
a(g768
S'1376'
p770
F272.91033738062805
tp771
a(g770
S'1013'
p772
F3427.8290189273157
tp773
a(g772
S'792'
p774
F441.0365406997711
tp775
a(g774
S'814'
p776
F350.26427291339104
tp777
a(g776
S'1007'
p778
F399.2836900504582
tp779
a(g778
S'1009'
p780
F681.3552137071262
tp781
a(g780
S'982'
p782
F377.31950972392406
tp783
aF46.87757215061648
g759
S'2012-03-02 16:48:34'
p784
I27
F8815.587873879822
F6129.137315241377
tp785
a((lp786
(g609
g782
F377.3192896118172
tp787
a(g782
g291
F140.04113628613734
tp788
a(g291
g298
F144.92237428929778
tp789
aF33.114140009362615
g784
S'2012-03-02 16:49:46'
p790
I0
F662.2828001872523
F1093.7568185877017
tp791
a((lp792
(S'804'
p793
g298
F291.52745468400894
tp794
a(g298
g300
F398.42229143270566
tp795
a(g300
S'1066'
p796
F126.00604095646439
tp797
a(g796
g592
F134.29559832461862
tp798
a(g592
g124
F418.6803844186766
tp799
a(g124
g134
F158.62328613807864
tp800
aF91.65330335727316
g790
S'2012-03-02 16:50:46'
p801
I59
F1527.5550559545527
F728.5645565578053
tp802
a((lp803
(g131
g134
F158.62320526527418
tp804
a(g134
S'915'
p805
F317.2464914021481
tp806
a(g805
g126
F418.6803844186766
tp807
a(g126
S'1020'
p808
F100.87012945656335
tp809
aF59.725212632559746
g801
S'2012-03-02 16:51:46'
p810
I12
F995.4202105426623
F295.877725923185
tp811
a((lp812
(S'1170'
p813
g808
F100.87029663929552
tp814
a(g808
g122
F201.74042609344684
tp815
a(g122
S'1066'
p816
F134.29559832461862
tp817
a(g816
S'1213'
p818
F63.0029958985286
tp819
aF138.43642623393865
g810
S'2012-03-02 16:51:59'
p820
I16
F499.9093169558896
F14.48834700627868
tp821
a((lp822
(S'1066'
p823
g818
F63.003045058211704
tp824
a(g818
g796
F126.00604095646439
tp825
a(g796
S'923'
p826
F407.53435205726896
tp827
a(g826
g585
F332.38359866143145
tp828
aF49.178490180002285
g820
S'2012-03-02 16:53:07'
p829
I0
F928.9270367333766
F131.91002241294657
tp830
a((lp831
(g590
g585
F75.15075340942201
tp832
a(g585
g592
F134.29559832461862
tp833
a(g592
g124
F418.6803844186766
tp834
a(g124
g134
F317.2464914021481
tp835
a(g134
g136
F174.4757442789197
tp836
aF212.18191045271718
g829
S'2012-03-02 16:53:26'
p837
I0
F1119.848971833785
F50.40470072854476
tp838
a((lp839
(g141
g136
F174.47632112283912
tp840
a(g136
g143
F725.1024325879025
tp841
a(g143
S'1020'
p842
F138.3852165812993
tp843
a(g842
S'1145'
p844
F109.4382773839882
tp845
aF93.87836571894785
g837
S'2012-03-02 16:54:10'
p846
I27
F1147.4022476760292
F297.75042243861265
tp847
a((lp848
(S'1020'
p849
g844
F28.946939197710776
tp850
a(g844
S'1104'
p851
F725.1024325879025
tp852
a(g851
S'1209'
p853
F340.0113446486208
tp854
a(g853
S'1222'
p855
F529.8005662370716
tp856
a(g855
S'886'
p857
F249.06547730195334
tp858
aF51.46974302216589
g846
S'2012-03-02 16:56:21'
p859
I0
F1872.9267599732589
F935.3867496826956
tp860
a((lp861
(S'1222'
p862
g857
F249.0656193648121
tp863
a(g857
S'1222'
p864
F498.13109666342655
tp865
a(g864
S'233'
p866
F71.07791866771048
tp867
aF196.3859123270278
g859
S'2012-03-02 16:56:36'
p868
I0
F818.2746346959491
F65.29981089293898
tp869
a((lp870
(g862
g866
F243.3435887034745
tp871
a(g866
S'1158'
p872
F505.9919712639641
tp873
a(g872
S'371'
p874
F343.4160234801613
tp875
a(g874
S'414'
p876
F369.83656274331497
tp877
aF87.7552887714549
g868
S'2012-03-02 16:57:36'
p878
I38
F1462.5881461909148
F467.38146343100175
tp879
a((lp880
(S'371'
p881
g876
F369.8395121005169
tp882
a(g876
S'371'
p883
F739.6760747221767
tp884
a(g883
S'1'
p885
F725.2487623614271
tp886
a(g885
S'190'
p887
F133.23962227802784
tp888
a(g887
S'200'
p889
F65.9676834156334
tp890
a(g889
S'35'
p891
F387.3959371257266
tp892
aF48.42735184007017
g878
S'2012-03-02 17:00:36'
p893
I22
F2421.367592003509
F849.2104107712813
tp894
a((lp895
(S'200'
p896
g891
F387.3908021397188
tp897
a(g891
S'200'
p898
F774.7867391124779
tp899
a(g898
S'190'
p900
F65.9676834156334
tp901
a(g900
S'219'
p902
F816.17968688634
tp903
a(g902
S'209'
p904
F348.12509298251837
tp905
a(g904
S'69'
p906
F560.4047888183237
tp907
a(g906
S'114'
p908
F277.18170658049786
tp909
a(g908
S'322'
p910
F293.16190634917444
tp911
a(g910
S'362'
p912
F196.0316382659179
tp913
a(g912
S'435'
p914
F315.73436445363416
tp915
aF60.77770657914332
g893
S'2012-03-02 17:04:35'
p916
I24
F4034.9644090042366
F1530.0554859639753
tp917
a((lp918
(S'362'
p919
g914
F315.73321057497316
tp920
a(g914
S'87'
p921
F165.86882946061525
tp922
a(g921
S'423'
p923
F376.37039939866787
tp924
aF25.526452743498535
g916
S'2012-03-02 17:06:36'
p925
I24
F857.9724394342563
F1345.834404569372
tp926
a((lp927
(S'87'
p928
g923
F347.185957413754
tp929
a(g923
S'348'
p930
F401.7062149289834
tp931
a(g930
S'40'
p932
F401.59962843252373
tp933
a(g932
S'400'
p934
F175.03635260490466
tp935
a(g934
S'359'
p936
F184.4746845030991
tp937
aF45.30008513649794
g925
S'2012-03-02 17:08:36'
p938
I37
F1510.0028378832649
F638.6604920177996
tp939
a((lp940
(S'400'
p941
g936
F184.4738141299361
tp942
a(g936
S'149'
p943
F214.5001502809245
tp944
a(g943
S'115'
p945
F279.2751738259168
tp946
a(g945
S'448'
p947
F65.98345145874035
tp948
aF22.32697769086553
g938
S'2012-03-02 17:10:36'
p949
I44
F744.2325896955176
F1208.3142915196154
tp950
a((lp951
(S'115'
p952
g952
F0.0
tp953
aF0.0
g949
S'2012-03-02 17:11:03'
p954
I37
F0.0
F131.19545083657292
tp955
a((lp956
(g952
g947
F65.98330483756305
tp957
a(g947
S'288'
p958
F161.32840893425416
tp959
a(g958
S'461'
p960
F106.93470276962755
tp961
aF18.80136093045627
g954
S'2012-03-02 17:12:07'
p962
I0
F334.2464165414448
F253.69556620780543
tp963
a((lp964
(S'288'
p965
g960
F106.93486508250507
tp966
a(g960
S'76'
p967
F209.84399480520491
tp968
a(g967
S'39'
p969
F384.48890299753157
tp970
a(g969
S'120'
p971
F307.45722819200313
tp972
a(g971
S'62'
p973
F155.6510750112697
tp974
aF67.60893286965566
g962
S'2012-03-02 17:13:09'
p975
I0
F1164.3760660885143
F2.633611682189856
tp976
a((lp977
(S'120'
p978
g973
F155.6511483278952
tp979
a(g973
S'120'
p980
F311.3022233380913
tp981
a(g980
S'39'
p982
F307.45722819200313
tp983
a(g982
S'143'
p984
F296.1322850478427
tp985
a(g984
S'225'
p986
F340.94911270413166
tp987
aF44.967886649520985
g975
S'2012-03-02 17:15:02'
p988
I0
F1411.491997609964
F25.07347307892354
tp989
a((lp990
(S'143'
p991
g986
F64.93937520876092
tp992
a(g986
S'46'
p993
F204.10192602860755
tp994
a(g993
S'288'
p995
F146.62123309864816
tp996
a(g995
S'448'
p997
F161.32840893425416
tp998
a(g997
S'115'
p999
F65.98330483756305
tp1000
aF38.578454886470034
g988
S'2012-03-02 17:16:02'
p1001
I14
F642.9742481078339
F562.9308620434829
tp1002
a((lp1003
(S'448'
p1004
g999
F65.98345145874035
tp1005
a(g999
S'240'
p1006
F169.08417818446196
tp1007
a(g1006
S'329'
p1008
F279.26640940993445
tp1009
a(g1008
S'227'
p1010
F286.86855041362594
tp1011
a(g1010
S'388'
p1012
F103.31314431003189
tp1013
aF32.56256641596461
g1001
S'2012-03-02 17:17:42'
p1014
I37
F904.5157337767946
F490.5374995864965
tp1015
a((lp1016
(S'227'
p1017
g1012
F103.31317754700424
tp1018
a(g1012
S'149'
p1019
F328.56027695478394
tp1020
a(g1019
S'359'
p1021
F214.5001502809245
tp1022
a(g1021
S'400'
p1023
F331.6951200170899
tp1024
aF78.24549798398421
g1014
S'2012-03-02 17:18:27'
p1025
I0
F978.0687247998026
F62.698879696140175
tp1026
a((lp1027
(S'359'
p1028
g1023
F37.25337860598581
tp1029
a(g1023
S'40'
p1030
F175.03635260490466
tp1031
a(g1030
S'348'
p1032
F401.59962843252373
tp1033
a(g1032
S'423'
p1034
F401.7062149289834
tp1035
a(g1034
S'87'
p1036
F240.58035112965956
tp1037
aF25.123518514041145
g1025
S'2012-03-02 17:21:27'
p1038
I22
F1256.1759257020572
F962.942396611353
tp1039
a((lp1040
(S'423'
p1041
g1036
F482.97600567014
tp1042
a(g1036
S'435'
p1043
F165.86882946061525
tp1044
a(g1043
g921
F161.40695112922825
tp1045
aF76.76069554041948
g1038
S'2012-03-02 17:22:05'
p1046
I35
F810.2517862599834
F121.95597453213797
tp1047
a((lp1048
(S'435'
p1049
g921
F4.461878331447629
tp1050
a(g921
g923
F425.14906292021084
tp1051
aF29.181120537848503
g1046
S'2012-03-02 17:22:58'
p1052
I0
F429.61094125165846
F65.90661075991802
tp1053
a((lp1054
(g928
g923
F298.40729388889537
tp1055
a(g923
S'27'
p1056
F360.14779166603097
tp1057
a(g1056
S'107'
p1058
F333.49024204664425
tp1059
aF59.52271965609423
g1052
S'2012-03-02 17:23:58'
p1060
I37
F992.0453276015705
F610.7024953349948
tp1061
a((lp1062
(S'27'
p1063
g1058
F1044.4512334661486
tp1064
a(g1058
S'46'
p1065
F327.4845229639087
tp1066
a(g1065
g995
F146.62123309864816
tp1067
a(g995
g960
F213.86956785060167
tp1068
a(g960
g967
F104.92217905012605
tp1069
aF55.120462092883
g1060
S'2012-03-02 17:25:58'
p1070
I44
F1837.3487364294333
F868.9217514205991
tp1071
a((lp1072
(S'461'
p1073
g967
F104.92181575808556
tp1074
a(g967
S'461'
p1075
F209.84399480520491
tp1076
a(g1075
S'288'
p1077
F213.86956785060167
tp1078
a(g1077
g997
F161.32840893425416
tp1079
a(g997
g999
F131.96675629555088
tp1080
a(g999
g947
F128.02452187402758
tp1081
aF68.39676471727618
g1070
S'2012-03-02 17:26:48'
p1082
I31
F949.9550655177247
F168.02873451827531
tp1083
a((lp1084
(g952
g947
F3.9422344216797183
tp1085
a(g947
g958
F161.32840893425416
tp1086
a(g958
S'46'
p1087
F146.62123309864816
tp1088
a(g1087
S'225'
p1089
F204.10192602860755
tp1090
a(g1089
S'76'
p1091
F169.19775586793253
tp1092
aF11.859084663769423
g1082
S'2012-03-02 17:30:16'
p1093
I0
F685.1915583511221
F444.6674369474502
tp1094
a((lp1095
(S'225'
p1096
g1091
F169.19815809341543
tp1097
a(g1091
S'225'
p1098
F338.3959139553396
tp1099
a(g1098
g993
F204.10192602860755
tp1100
a(g993
S'107'
p1101
F327.4845229639087
tp1102
a(g1101
S'131'
p1103
F269.0371341692761
tp1104
a(g1103
S'14'
p1105
F132.79299604719526
tp1106
aF86.46063907546456
g1093
S'2012-03-02 17:31:16'
p1107
I1
F1441.0106512577427
F404.41901946274834
tp1108
a((lp1109
(S'131'
p1110
g1110
F0.0
tp1111
aF0.22705977552440196
g1107
S'2012-03-02 17:32:16'
p1112
I24
F3.7843295920733655
F366.2377222968253
tp1113
a((lp1114
(g1110
g1105
F36.715530296409426
tp1115
a(g1105
S'131'
p1116
F165.72419675127833
tp1117
a(g1116
S'107'
p1118
F269.0371341692761
tp1119
a(g1118
g1065
F327.4845229639087
tp1120
a(g1065
g995
F146.62123309864816
tp1121
a(g995
g960
F106.93470276962755
tp1122
aF6.521621948669422
g1112
S'2012-03-02 17:41:57'
p1123
I42
F1052.5173200491483
F1041.7890557737937
tp1124
a((lp1125
(g965
g960
F106.93486508250507
tp1126
a(g960
g1077
F213.86956785060167
tp1127
a(g1077
g1087
F146.62123309864816
tp1128
a(g1087
S'95'
p1129
F84.77122335551859
tp1130
aF993.9544008970922
g1123
S'2012-03-02 17:41:59'
p1131
I0
F552.1968893872735
F1.707958452862974
tp1132
a((lp1133
(S'46'
p1134
g1129
F84.77142493889879
tp1135
a(g1129
S'448'
p1136
F157.70765821180296
tp1137
a(g1136
g999
F65.98330483756305
tp1138
aF100.95132697797759
g1131
S'2012-03-02 17:42:10'
p1139
I0
F308.4623879882648
F50.5581933732019
tp1140
a((lp1141
(g1004
g999
F65.98345145874035
tp1142
a(g999
g947
F131.96675629555088
tp1143
a(g947
g958
F161.32840893425416
tp1144
a(g958
g960
F213.86956785060167
tp1145
a(g960
g967
F209.84399480520491
tp1146
a(g967
g969
F384.48890299753157
tp1147
a(g969
S'85'
p1148
F116.91466436493089
tp1149
aF20.01655709153477
g1139
S'2012-03-02 17:46:01'
p1150
I27
F1284.3957467068144
F34.78235221511877
tp1151
a((lp1152
(S'39'
p1153
g1148
F116.91419174215319
tp1154
a(g1148
S'223'
p1155
F186.91338092701662
tp1156
a(g1155
S'249'
p1157
F79.27196527508647
tp1158
aF22.60915305900529
g1150
S'2012-03-02 17:47:02'
p1159
I29
F383.09953794425627
F412.81464164123724
tp1160
a((lp1161
(S'223'
p1162
g1157
F79.27174673116284
tp1163
a(g1157
S'223'
p1164
F158.54371200493
tp1165
a(g1164
S'85'
p1166
F186.91338092701662
tp1167
a(g1166
S'456'
p1168
F200.88497800248174
tp1169
a(g1168
S'444'
p1170
F283.34714326730096
tp1171
aF54.537657655973526
g1159
S'2012-03-02 17:48:02'
p1172
I29
F908.960960932892
F496.88411682150013
tp1173
a((lp1174
(S'456'
p1175
g1170
F102.14691393148078
tp1176
a(g1170
S'249'
p1177
F192.01126587807087
tp1178
a(g1177
S'105'
p1179
F575.8476902730262
tp1180
a(g1179
S'157'
p1181
F366.4817423643772
tp1182
a(g1181
S'66'
p1183
F493.461422335804
tp1184
aF103.79694208696554
g1172
S'2012-03-02 17:49:02'
p1185
I40
F1729.949034782759
F679.7323917711044
tp1186
a((lp1187
(S'157'
p1188
g1183
F493.4590507365981
tp1189
a(g1183
S'157'
p1190
F986.920472794794
tp1191
a(g1190
S'105'
p1192
F366.4817423643772
tp1193
a(g1192
S'249'
p1194
F575.8476902730262
tp1195
a(g1194
g1164
F158.54371200493
tp1196
a(g1164
g1166
F186.91338092701662
tp1197
a(g1166
S'39'
p1198
F233.82885610286075
tp1199
a(g1198
S'76'
p1200
F384.48890299753157
tp1201
a(g1200
g1075
F209.84399480520491
tp1202
a(g1075
S'359'
p1203
F575.8753506220564
tp1204
a(g1203
g1023
F368.9484986175782
tp1205
a(g1023
g1030
F175.03635260490466
tp1206
a(g1030
g1032
F401.59962843252373
tp1207
a(g1032
S'160'
p1208
F749.9190888032648
tp1209
a(g1208
S'195'
p1210
F1654.504702992569
tp1211
a(g1210
S'323'
p1212
F899.3736486026992
tp1213
a(g1212
S'371'
p1214
F502.52151206068487
tp1215
a(g1214
S'1158'
p1216
F343.4160234801613
tp1217
a(g1216
S'233'
p1218
F505.9919712639641
tp1219
a(g1218
S'324'
p1220
F522.2079091612247
tp1221
a(g1220
S'12'
p1222
F348.33486400960794
tp1223
a(g1222
S'307'
p1224
F336.87317808984017
tp1225
a(g1224
S'101'
p1226
F516.3741780275716
tp1227
a(g1226
g340
F2128.2368240663845
tp1228
a(g340
S'37'
p1229
F1230.1532257749107
tp1230
a(g1229
g361
F709.895434390015
tp1231
a(g361
S'463'
p1232
F261.5702670797571
tp1233
aF474.81481383258176
g1185
S'2012-03-02 17:51:02'
p1234
I29
F15827.16046108606
F1351.372513857012
tp1235
a((lp1236
(S'406'
p1237
g1232
F261.57033359964294
tp1238
a(g1232
S'406'
p1239
F523.1406006777456
tp1240
a(g1239
g363
F1280.716757645314
tp1241
a(g363
S'172'
p1242
F298.0230206095709
tp1243
aF47.269014250645455
g1234
S'2012-03-02 17:54:02'
p1244
I14
F2363.450712532273
F1309.402642106693
tp1245
a((lp1246
(g370
g370
F0.0
tp1247
aF8.52285360742585
g1244
S'2012-03-02 17:54:28'
p1248
I0
F61.553942720297805
F61.58749885193099
tp1249
a((lp1250
(g370
g1242
F206.19835207087144
tp1251
a(g1242
S'99'
p1252
F970.6293936388311
tp1253
a(g1252
S'1345'
p1254
F192.39329712873453
tp1255
aF82.15326257030621
g1248
S'2012-03-02 17:55:28'
p1256
I29
F1369.221042838437
F740.2463976975106
tp1257
a((lp1258
(S'99'
p1259
g1259
F0.0
tp1260
aF0.0
g1256
S'2012-03-02 17:55:46'
p1261
I31
F0.0
F27.239676375420416
tp1262
a((lp1263
(g1259
g1254
F192.39330216902604
tp1264
a(g1254
S'99'
p1265
F384.78659929766803
tp1266
a(g1265
S'172'
p1267
F384.13034186359414
tp1268
aF57.678614599817294
g1261
S'2012-03-02 17:56:46'
p1269
I0
F961.3102433302882
F24.96645653405197
tp1270
a((lp1271
(g1259
g1267
F586.4990517759165
tp1272
a(g1267
g1252
F970.6293936388311
tp1273
a(g1252
g1254
F192.39329712873453
tp1274
aF419.8852182104357
g1269
S'2012-03-02 17:57:01'
p1275
I0
F1749.521742543482
F41.517672851036345
tp1276
a((lp1277
(g1259
g1259
F0.0
tp1278
aF0.0
g1275
S'2012-03-02 17:58:20'
p1279
I11
F0.0
F87.33429930589837
tp1280
a((lp1281
(g1259
g1259
F0.0
tp1282
aF0.0
g1279
S'2012-03-02 17:58:21'
p1283
I35
F0.0
F10.37448665579188
tp1284
a((lp1285
(g1259
g1254
F192.39330216902604
tp1286
a(g1254
S'1330'
p1287
F225.3777301642604
tp1288
a(g1287
S'1389'
p1289
F194.7353669739261
tp1290
aF36.75038395843276
g1283
S'2012-03-02 17:59:21'
p1291
I37
F612.5063993072126
F688.4939173063241
tp1292
a((lp1293
(S'1330'
p1294
g1294
F0.0
tp1295
aF0.0
g1291
S'2012-03-02 18:00:18'
p1296
I42
F0.0
F158.1976540032337
tp1297
a((lp1298
(g1294
g1289
F194.73538406683633
tp1299
a(g1289
S'1282'
p1300
F262.3624076285935
tp1301
a(g1300
S'1395'
p1302
F260.0708660303539
tp1303
aF24.82506892127713
g1296
S'2012-03-02 18:02:02'
p1304
I18
F717.1686577257838
F642.8969661531949
tp1305
a((lp1306
(S'1282'
p1307
g1307
F0.0
tp1308
aF12.377558035786462
g1304
S'2012-03-02 18:03:02'
p1309
I14
F206.29263392977435
F483.28845444644605
tp1310
a((lp1311
(g1307
g1307
F0.0
tp1312
aF2.04337675837479
g1309
S'2012-03-02 18:03:12'
p1313
I1
F5.6760465510410825
F5.682060751793894
tp1314
a((lp1315
(g1307
g1302
F48.102193403087774
tp1316
a(g1302
S'1295'
p1317
F660.5954005099251
tp1318
a(g1317
S'1386'
p1319
F329.92055347398576
tp1320
a(g1319
S'1249'
p1321
F1043.0772787454132
tp1322
a(g1321
S'1269'
p1323
F337.6809430955943
tp1324
a(g1323
S'1335'
p1325
F752.828030332418
tp1326
a(g1325
S'1269'
p1327
F376.4145731241169
tp1328
aF74.70776784599033
g1313
S'2012-03-02 18:06:03'
p1329
I0
F3548.618972684541
F1251.1009572611588
tp1330
a((lp1331
(S'1335'
p1332
g1327
F376.41345733055215
tp1333
a(g1327
S'1249'
p1334
F337.6809430955943
tp1335
a(g1334
S'1314'
p1336
F768.6096484409971
tp1337
a(g1336
S'1273'
p1338
F243.58451204032838
tp1339
a(g1338
S'1314'
p1340
F121.79225298757619
tp1341
aF302.4132240919169
g1329
S'2012-03-02 18:06:25'
p1342
I11
F1848.0808138950479
F27.47998805088182
tp1343
a((lp1344
(S'1273'
p1345
g1340
F121.79225905282257
tp1346
a(g1340
S'1257'
p1347
F331.9978721556281
tp1348
a(g1347
S'1334'
p1349
F385.80769194553045
tp1350
a(g1349
S'1381'
p1351
F552.4185230642412
tp1352
a(g1351
S'1378'
p1353
F343.7318498602416
tp1354
aF27.771971137255424
g1342
S'2012-03-02 18:10:10'
p1355
I0
F1735.748196078464
F866.984044049097
tp1356
a((lp1357
(S'1381'
p1358
g1353
F142.58724481278864
tp1359
a(g1353
S'1300'
p1360
F195.5525912949026
tp1361
a(g1360
S'1376'
p1362
F180.01554421515326
tp1363
aF33.30998873504
g1355
S'2012-03-02 18:11:06'
p1364
I24
F518.1553803228445
F356.9103090409851
tp1365
a((lp1366
(S'1300'
p1367
g1362
F47.048491083219595
tp1368
a(g1362
g772
F3427.8290189273157
tp1369
a(g772
g774
F220.51842809410635
tp1370
aF45.873880610954174
g1364
S'2012-03-02 18:15:56'
p1371
I0
F3695.3959381046416
F3067.174658325653
tp1372
a((lp1373
(S'1013'
p1374
g774
F220.51811263019098
tp1375
a(g774
S'1186'
p1376
F433.61217033519375
tp1377
a(g1376
g613
F32.59151250592119
tp1378
aF41.203307728278354
g1371
S'2012-03-02 18:16:56'
p1379
I55
F686.7217954713059
F509.8327717996968
tp1380
a((lp1381
(S'1186'
p1382
g613
F649.4727983346078
tp1383
a(g613
S'1186'
p1384
F682.0643108370471
tp1385
a(g1384
S'792'
p1386
F433.61217033519375
tp1387
a(g1386
S'1013'
p1388
F441.0365406997711
tp1389
a(g1388
g774
F11.555510749623355
tp1390
aF420.2036206022355
g1379
S'2012-03-02 18:17:15'
p1391
I29
F2217.741330956243
F38.69390498938005
tp1392
a((lp1393
(g1374
g774
F429.48102995265555
tp1394
a(g774
g776
F350.26427291339104
tp1395
a(g776
g778
F399.2836900504582
tp1396
a(g778
g780
F245.50794775097216
tp1397
aF64.91560742282172
g1391
S'2012-03-02 18:18:34'
p1398
I0
F1424.5369406674768
F486.3288164773785
tp1399
a((lp1400
(S'1007'
p1401
g780
F435.8472659605248
tp1402
a(g780
g639
F403.0050862783067
tp1403
a(g639
g615
F468.363700761058
tp1404
aF224.09418051426678
g1398
S'2012-03-02 18:18:55'
p1405
I37
F1307.2160529998896
F83.48329638802016
tp1406
a((lp1407
(g620
g615
F468.36172953026096
tp1408
a(g615
g646
F936.7254302074238
tp1409
a(g646
g633
F325.17133028597397
tp1410
aF87.73141639556579
g1405
S'2012-03-02 18:20:06'
p1411
I0
F1730.2584900236586
F456.07492393857376
tp1412
a((lp1413
(g620
g633
F77.83375600393103
tp1414
a(g633
g653
F171.77317802179044
tp1415
aF69.12192019173825
g1411
S'2012-03-02 18:20:19'
p1416
I9
F249.60693402572147
F5.587626432540191
tp1417
a((lp1418
(g609
g653
F171.77315194931623
tp1419
a(g653
g602
F343.5463299595581
tp1420
a(g602
g639
F403.0050862783067
tp1421
a(g639
g633
F391.89199069192324
tp1422
aF104.81732471032834
g1416
S'2012-03-02 18:21:04'
p1423
I0
F1310.2165588791042
F63.49454232672985
tp1424
a((lp1425
(g620
g633
F11.113095588360979
tp1426
a(g633
g653
F343.5463299595581
tp1427
a(g653
g655
F348.66405624127844
tp1428
a(g655
g88
F264.7542280364345
tp1429
a(g88
S'986'
p1430
F211.67350826537785
tp1431
aF35.3925365427303
g1423
S'2012-03-02 18:23:04'
p1432
I29
F1179.7512180910098
F374.94120687628595
tp1433
a((lp1434
(g699
g1430
F211.67355320611276
tp1435
a(g1430
S'774'
p1436
F463.31531120431856
tp1437
a(g1436
S'895'
p1438
F268.4210662990969
tp1439
a(g1438
S'1016'
p1440
F11.387702351787759
tp1441
aF18.990450160335566
g1432
S'2012-03-02 18:26:05'
p1442
I35
F954.797633061316
F1148.6583510831542
tp1443
a((lp1444
(S'895'
p1445
g1440
F352.84725544392137
tp1446
a(g1440
S'895'
p1447
F364.23495779569595
tp1448
a(g1447
S'973'
p1449
F444.35669521011835
tp1450
a(g1449
S'895'
p1451
F222.17837349862467
tp1452
aF67.31111101370402
g1442
S'2012-03-02 18:27:19'
p1453
I0
F1383.6172819483604
F42.16731309776617
tp1454
a((lp1455
(S'973'
p1456
g1451
F222.1783217364848
tp1457
a(g1451
g1440
F21.118307827167023
tp1458
aF13.685435412955416
g1453
S'2012-03-02 18:28:23'
p1459
I14
F243.29662956365183
F408.82499089994366
tp1460
a((lp1461
(g1445
g1440
F343.1166499685424
tp1462
a(g1440
g1447
F364.23495779569595
tp1463
a(g1447
S'1229'
p1464
F249.3697768587104
tp1465
a(g1464
g258
F124.68490737910783
tp1466
aF49.91105963086415
g1459
S'2012-03-02 18:29:41'
p1467
I0
F1081.4062920020567
F37.01179823913165
tp1468
a((lp1469
(S'1229'
p1470
g258
F124.68486948402185
tp1471
a(g258
g260
F200.62622160548003
tp1472
aF19.518665465370113
g1467
S'2012-03-02 18:30:41'
p1473
I33
F325.3110910895019
F440.02980208498366
tp1474
a((lp1475
(g1445
g260
F67.79484469369187
tp1476
a(g260
g262
F377.3364418971982
tp1477
a(g262
S'820'
p1478
F247.7378419176489
tp1479
a(g1478
S'1233'
p1480
F255.3750506846333
tp1481
a(g1480
S'819'
p1482
F271.4512992423688
tp1483
aF33.26442213915112
g1473
S'2012-03-02 18:32:53'
p1484
I46
F1219.6954784355412
F944.3440681790512
tp1485
a((lp1486
(S'1233'
p1487
g1482
F8.65389717883812
tp1488
a(g1482
S'772'
p1489
F232.03849592151013
tp1490
a(g1489
S'1203'
p1491
F143.30202102050836
tp1492
a(g1491
S'818'
p1493
F115.08878908444478
tp1494
aF29.944992192318086
g1484
S'2012-03-02 18:33:53'
p1495
I20
F499.0832032053014
F633.3219922419835
tp1496
a((lp1497
(S'1203'
p1498
g1493
F115.08858076068931
tp1499
a(g1493
S'1207'
p1500
F213.60182895150257
tp1501
a(g1500
g319
F141.0377369821515
tp1502
a(g319
g321
F197.56237677218394
tp1503
a(g321
g104
F79.63684457582836
tp1504
aF206.84142499634467
g1495
S'2012-03-02 18:34:06'
p1505
I1
F746.9273680423557
F5.871909269997039
tp1506
a((lp1507
(g327
g104
F79.63669663332959
tp1508
a(g104
g796
F126.00604095646439
tp1509
a(g796
g592
F134.29559832461862
tp1510
a(g592
g808
F201.74042609344684
tp1511
a(g808
g844
F138.3852165812993
tp1512
a(g844
g145
F210.6065185280842
tp1513
a(g145
g147
F230.208379433524
tp1514
a(g147
g1491
F71.65100295227799
tp1515
aF8.518070567878892
g1505
S'2012-03-02 18:42:30'
p1516
I0
F1192.5298795030449
F162.97646773431583
tp1517
a((lp1518
(S'772'
p1519
g1491
F71.6510180683322
tp1520
a(g1491
S'772'
p1521
F143.30202102050836
tp1522
a(g1521
g154
F232.03849592151013
tp1523
a(g154
g156
F140.052458302599
tp1524
aF35.22263959877698
g1516
S'2012-03-02 18:43:30'
p1525
I48
F587.0439933129497
F640.2903276348595
tp1526
a((lp1527
(S'819'
p1528
g156
F140.05273812434007
tp1529
a(g156
g158
F255.3750506846333
tp1530
a(g158
g160
F521.3878162028419
tp1531
aF58.938146036473846
g1525
S'2012-03-02 18:44:26'
p1532
I27
F916.8156050118153
F321.33558963656185
tp1533
a((lp1534
(S'820'
p1535
g160
F521.3918988810026
tp1536
a(g160
S'820'
p1537
F1042.7797147525323
tp1538
a(g1537
S'970'
p1539
F123.86886871137345
tp1540
aF63.96784985728074
g1532
S'2012-03-02 18:46:01'
p1541
I22
F1688.0404823449082
F539.0040981806414
tp1542
a((lp1543
(g1535
g1539
F123.8689732074665
tp1544
a(g1539
S'774'
p1545
F377.3364418971982
tp1546
a(g1545
g1438
F268.4210662990969
tp1547
a(g1438
g1464
F249.3697768587104
tp1548
a(g1464
S'987'
p1549
F828.6057404004235
tp1550
a(g1549
S'1073'
p1551
F8.419254270822575
tp1552
aF46.08052765904404
g1541
S'2012-03-02 18:48:26'
p1553
I37
F1856.0212529337182
F904.3064803206248
tp1554
a((lp1555
(g256
g1551
F576.8972434195334
tp1556
a(g1551
g249
F585.3164976896943
tp1557
a(g249
g251
F105.51036587065072
tp1558
aF69.14858765344792
g1553
S'2012-03-02 18:49:32'
p1559
I11
F1267.7241069798783
F266.501154086338
tp1560
a((lp1561
(g256
g256
F0.0
tp1562
aF13.32942506941439
g1559
S'2012-03-02 18:51:04'
p1563
I0
F340.6408628850344
F428.36584472368037
tp1564
a((lp1565
(g256
g251
F382.4545118243859
tp1566
a(g251
g1549
F828.6057404004235
tp1567
a(g1549
S'1189'
p1568
F270.53002674972004
tp1569
aF253.98690496706223
g1563
S'2012-03-02 18:51:25'
p1570
I29
F1481.5902789745296
F51.55881253857868
tp1571
a((lp1572
(g256
g1568
F270.52965352844495
tp1573
a(g1568
S'987'
p1574
F541.0596802687863
tp1575
a(g1574
g1551
F585.3164976896943
tp1576
a(g1551
S'1185'
p1577
F401.933419412357
tp1578
a(g1577
S'777'
p1579
F232.78220771594508
tp1580
aF71.7042867746551
g1570
S'2012-03-02 18:53:07'
p1581
I0
F2031.6214586152278
F706.1174336990769
tp1582
a((lp1583
(S'1185'
p1584
g1579
F232.78232429736136
tp1585
a(g1579
S'903'
p1586
F350.9006773558848
tp1587
a(g1586
S'1158'
p1588
F487.7887659166239
tp1589
aF96.43245908128831
g1581
S'2012-03-02 18:53:47'
p1590
I37
F1071.47176756987
F253.67567765274728
tp1591
a((lp1592
(S'903'
p1593
g1588
F2998.2279971030953
tp1594
a(g1588
g1218
F505.9919712639641
tp1595
a(g1218
S'1222'
p1596
F314.42150737049457
tp1597
a(g1596
g857
F498.13109666342655
tp1598
a(g857
S'1233'
p1599
F203.95830291726205
tp1600
a(g1599
g158
F255.3750506846333
tp1601
a(g158
g1539
F247.7378419176489
tp1602
a(g1539
g1545
F377.3364418971982
tp1603
a(g1545
g1438
F268.4210662990969
tp1604
a(g1438
g1440
F364.23495779569595
tp1605
a(g1440
S'1150'
p1606
F476.5728920163904
tp1607
a(g1606
S'1062'
p1608
F194.7563084101235
tp1609
a(g1608
S'1061'
p1610
F442.8992981334369
tp1611
a(g1610
g66
F425.2730717357956
tp1612
aF313.37949534654877
g1590
S'2012-03-02 18:55:14'
p1613
I0
F7573.337804208262
F444.98246036176914
tp1614
a((lp1615
(g71
g66
F17.626226401477915
tp1616
a(g66
g73
F183.41867360754313
tp1617
a(g73
g722
F480.1669052301094
tp1618
a(g722
S'852'
p1619
F363.99526731937345
tp1620
a(g1619
S'791'
p1621
F252.5830223782035
tp1622
a(g1621
g737
F263.909236928096
tp1623
a(g737
g739
F117.95681148015007
tp1624
a(g739
S'817'
p1625
F22.527726280126455
tp1626
aF25.96551665529783
g1613
S'2012-03-02 18:59:10'
p1627
I25
F1702.18386962508
F1523.9545722983291
tp1628
a((lp1629
(S'873'
p1630
g1625
F192.46704660847297
tp1631
a(g1625
S'909'
p1632
F286.06989179438705
tp1633
a(g1632
S'827'
p1634
F390.24923028502263
tp1635
a(g1634
S'1010'
p1636
F133.4050554004001
tp1637
aF60.13147344529697
g1627
S'2012-03-02 19:00:10'
p1638
I22
F1002.1912240882828
F525.005707199285
tp1639
a((lp1640
(S'827'
p1641
g1641
F0.0
tp1642
aF0.0
g1638
S'2012-03-02 19:01:27'
p1643
I64
F0.0
F632.1511123712291
tp1644
a.