(lp0
((lp1
(S'1027'
p2
S'887'
p3
F813.4869632153318
tp4
a(g3
S'1189'
p5
F211.8840444636607
tp6
a(g5
S'987'
p7
F541.0596802687863
tp8
a(g7
S'1073'
p9
F585.3164976896943
tp10
a(g9
S'1185'
p11
F29.87836370241194
tp12
aF43.632510986797705
S'2012-03-02 08:41:36'
p13
S'2012-03-02 08:44:36'
p14
I55
F2181.6255493398853
F2180.001313120062
tp15
a((lp16
(S'1073'
p17
g17
F0.0
tp18
aF4.869481694927287
g14
S'2012-03-02 08:45:48'
p19
I3
F97.38963389854572
F97.48327677125987
tp20
a((lp21
(g17
g11
F274.66542181689965
tp22
a(g11
S'777'
p23
F465.5645320107461
tp24
a(g23
S'988'
p25
F428.69502991180303
tp26
a(g25
S'1127'
p27
F152.49726409143645
tp28
a(g27
S'967'
p29
F190.65766483400054
tp30
a(g29
S'1154'
p31
F633.0663908294133
tp32
a(g31
S'873'
p33
F329.8328088956252
tp34
aF49.49958224779848
g19
S'2012-03-02 08:48:48'
p35
I11
F2474.979112389924
F1918.8170267069645
tp36
a((lp37
(S'1154'
p38
g33
F329.8313892272522
tp39
a(g33
S'1292'
p40
F5581.023855259741
tp41
a(g40
S'1325'
p42
F459.79492426068333
tp43
a(g42
S'1235'
p44
F778.5383805800125
tp45
a(g44
S'1288'
p46
F417.4613286125281
tp47
aF45.24906903751625
g35
S'2012-03-02 08:58:50'
p48
I64
F7566.649877940217
F6987.535436735175
tp49
a((lp50
(S'1235'
p51
g46
F490.7787514900114
tp52
a(g46
S'1401'
p53
F122.83137795487428
tp54
aF32.48524214708218
g48
S'2012-03-02 08:59:58'
p55
I20
F613.6101294448857
F79.95992148415112
tp56
a((lp57
(S'1288'
p58
g53
F1199.0711373878926
tp59
a(g53
S'1315'
p60
F1373.9646269769396
tp61
a(g60
S'835'
p62
F3805.711455171851
tp63
a(g62
S'1057'
p64
F3008.537946635903
tp65
a(g64
S'894'
p66
F310.6033695711171
tp67
a(g66
S'942'
p68
F338.90166780966075
tp69
a(g68
S'1056'
p70
F259.19830405018683
tp71
a(g70
S'1179'
p72
F270.4413970166197
tp73
a(g72
S'1056'
p74
F135.22068894831858
tp75
aF35.02358376076961
g55
S'2012-03-02 09:18:18'
p76
I24
F10701.65059356849
F5313.419499587593
tp77
a((lp78
(S'1179'
p79
g74
F135.2207080739132
tp80
a(g74
S'942'
p81
F259.19830405018683
tp82
a(g81
S'830'
p83
F565.0355820413071
tp84
a(g83
S'906'
p85
F527.66483341355
tp86
aF18.271774536806298
g76
S'2012-03-02 09:23:11'
p87
I0
F1487.1194275789571
F18.8298941670798
tp88
a((lp89
(S'830'
p90
g85
F527.6616921088811
tp91
a(g85
S'830'
p92
F1055.3265253741486
tp93
a(g92
S'1070'
p94
F197.96380381819665
tp95
aF14.945051927003295
g87
S'2012-03-02 09:30:20'
p96
I0
F1780.952021301226
F52.18550638682335
tp97
a((lp98
(g90
g94
F197.963184370653
tp99
a(g94
S'830'
p100
F395.92698817074535
tp101
a(g100
S'942'
p102
F565.0355820413071
tp103
a(g102
g70
F259.19830405018683
tp104
a(g70
g81
F115.54856880682178
tp105
aF92.02035764638285
g96
S'2012-03-02 09:31:20'
p106
I9
F1533.672627439714
F137.36929701692583
tp107
a((lp108
(S'1056'
p109
g81
F143.64973524336773
tp110
a(g81
g83
F565.0355820413071
tp111
a(g83
S'1192'
p112
F283.90586042383455
tp113
aF62.68996911843217
g106
S'2012-03-02 09:32:17'
p114
I12
F992.5911777085093
F221.1123157037715
tp115
a((lp116
(g90
g112
F481.33017451899286
tp117
a(g112
S'908'
p118
F22.012310628725935
tp119
a(g118
S'894'
p120
F381.46114351867436
tp121
a(g120
g68
F338.90166780966075
tp122
a(g68
S'985'
p123
F131.05055226590892
tp124
aF147.79154713548687
g114
S'2012-03-02 09:32:50'
p125
I0
F1354.7558487419628
F44.13500703934288
tp126
a((lp127
(S'942'
p128
g123
F131.05063279949493
tp129
a(g123
S'942'
p130
F262.1011850602843
tp131
a(g130
g83
F565.0355820413071
tp132
a(g83
g85
F1055.3265253741486
tp133
a(g85
S'1113'
p134
F504.1784455245772
tp135
a(g134
S'1160'
p136
F141.36476668318906
tp137
aF28.07215746316365
g125
S'2012-03-02 09:38:31'
p138
I14
F2659.057137483001
F1035.9779393696513
tp139
a((lp140
(S'1113'
p141
g136
F141.36471611676043
tp142
a(g136
S'847'
p143
F352.8185604851902
tp144
a(g143
S'1041'
p145
F692.7516666069633
tp146
a(g145
S'827'
p147
F689.5118116434894
tp148
a(g147
S'1010'
p149
F266.8104465605856
tp150
a(g149
S'1154'
p151
F507.7471347885134
tp152
a(g151
S'967'
p153
F633.0663908294133
tp154
a(g153
S'900'
p155
F217.51739317672622
tp156
a(g155
S'809'
p157
F130.13035283706046
tp158
aF27.640986264188008
g138
S'2012-03-02 09:46:24'
p159
I0
F3631.7184730447025
F2865.425421705652
tp160
a((lp161
(S'900'
p162
g157
F544.6638937832837
tp163
a(g157
S'1157'
p164
F755.0004704445299
tp165
a(g164
S'901'
p166
F329.43858562166434
tp167
a(g166
S'1232'
p168
F500.4166198457959
tp169
a(g168
S'1151'
p170
F29.275288326220316
tp171
aF2.2810864364183674
g159
S'2012-03-02 10:43:11'
p172
I75
F2158.794858021494
F1509.5187485361278
tp173
a((lp174
(S'1232'
p175
g170
F543.5260990216724
tp176
a(g170
S'1073'
p177
F176.9837734104488
tp178
aF43.23059234592728
g172
S'2012-03-02 10:44:11'
p179
I37
F720.5098724321213
F579.0054286688137
tp180
a((lp181
(S'1151'
p182
g177
F576.9148252495796
tp183
a(g177
S'987'
p184
F5.432272474376613
tp185
aF34.940825863437375
g179
S'2012-03-02 10:45:11'
p186
I38
F582.3470977239563
F496.320185945959
tp187
a((lp188
(g17
g184
F579.8842252157459
tp189
a(g184
g9
F585.3164976896943
tp190
a(g9
S'1151'
p191
F23.86416653415504
tp192
aF158.5419852586127
g186
S'2012-03-02 10:45:38'
p193
I0
F1189.0648894395952
F56.15971738031032
tp194
a((lp195
(g17
g191
F730.0344320511501
tp196
a(g191
g177
F753.8985985699695
tp197
a(g177
g184
F4.37505599895525
tp198
aF89.29848519720449
g193
S'2012-03-02 10:46:38'
p199
I0
F1488.3080866200748
F9.742665867059989
tp200
a((lp201
(g17
g184
F580.941441691084
tp202
a(g184
S'1229'
p203
F320.97915556797034
tp204
aF36.07682389036217
g199
S'2012-03-02 10:48:08'
p205
I0
F901.9205972590544
F621.5362010075155
tp206
a((lp207
(S'987'
p208
g203
F507.6265849865321
tp209
a(g203
S'987'
p210
F828.6057404004235
tp211
a(g210
g9
F585.3164976896943
tp212
a(g9
g191
F376.94818222012105
tp213
aF137.90982031780626
g205
S'2012-03-02 10:49:08'
p214
I57
F2298.497005296771
F299.051348388535
tp215
a((lp216
(g17
g191
F376.9504164752288
tp217
a(g191
S'1036'
p218
F499.30418929770127
tp219
a(g218
S'987'
p220
F700.189491494048
tp221
a(g220
g203
F215.63432202131466
tp222
aF258.05929237751417
g214
S'2012-03-02 10:49:33'
p223
I33
F1792.0784192882927
F71.33033719593836
tp224
a((lp225
(g208
g208
F0.0
tp226
aF3.950774581660287
g223
S'2012-03-02 10:50:01'
p227
I0
F30.728246746246676
F32.12342069970645
tp228
a((lp229
(g208
g203
F582.2431717703649
tp230
a(g203
g210
F828.6057404004235
tp231
a(g210
S'1189'
p232
F541.0596802687863
tp233
a(g232
S'887'
p234
F105.94205205410044
tp235
aF61.735519334810256
g227
S'2012-03-02 10:52:01'
p236
I20
F2057.850644493675
F876.7940781586605
tp237
a((lp238
(S'1189'
p239
g234
F105.9419924101466
tp240
a(g234
g5
F211.8840444636607
tp241
a(g5
g7
F541.0596802687863
tp242
a(g7
g9
F1.729115564295567
tp243
aF51.63688996241334
g236
S'2012-03-02 10:53:01'
p244
I55
F860.614832706889
F508.205062023094
tp245
a((lp246
(g208
g9
F583.5873821255343
tp247
a(g9
g11
F401.933419412357
tp248
a(g11
g23
F369.5749057024674
tp249
aF26.95217981251542
g244
S'2012-03-02 10:56:02'
p250
I24
F1355.0957072403587
F1352.9451802912497
tp251
a((lp252
(S'1185'
p253
g23
F95.98962630994133
tp254
a(g23
g25
F428.69502991180303
tp255
a(g25
S'796'
p256
F37.46020309095503
tp257
a(g256
S'1082'
p258
F68.64252291770168
tp259
aF78.30464055273946
g250
S'2012-03-02 10:56:31'
p260
I0
F630.7873822304011
F81.4967848747278
tp261
a((lp262
(S'796'
p263
g258
F68.64253555349875
tp264
a(g258
S'1127'
p265
F6.8306029289612695
tp266
a(g265
g29
F190.65766483400054
tp267
a(g29
g31
F115.68442364091882
tp268
aF8.69958744966181
g260
S'2012-03-02 10:59:09'
p269
I0
F381.8152269573794
F1112.384043629329
tp270
a((lp271
(S'967'
p272
g31
F517.3819672396547
tp273
a(g31
g153
F633.0663908294133
tp274
a(g153
g155
F108.75867455528928
tp275
aF62.96035163121786
g269
S'2012-03-02 11:00:21'
p276
I0
F1259.2070326243572
F74.47542532127147
tp277
a((lp278
(g272
g155
F108.7587186218851
tp279
a(g155
S'1101'
p280
F1058.824251630271
tp281
a(g280
S'996'
p282
F644.2201614015652
tp283
aF108.70818789922328
g276
S'2012-03-02 11:01:21'
p284
I27
F1811.8031316537213
F656.5278095537863
tp285
a((lp286
(S'1101'
p287
g282
F644.2214941319131
tp288
a(g282
S'1101'
p289
F1288.4416554530242
tp290
a(g289
S'900'
p291
F1058.824251630271
tp292
a(g291
g157
F674.794246559625
tp293
a(g157
S'1114'
p294
F639.1126192225747
tp295
a(g294
S'993'
p296
F865.1525280555261
tp297
a(g296
S'1114'
p298
F313.22909468379476
tp299
aF214.58253481578507
g284
S'2012-03-02 11:02:53'
p300
I37
F5483.775889736729
F506.85611401993435
tp301
a((lp302
(S'993'
p303
g303
F0.0
tp304
aF0.9643813791584454
g300
S'2012-03-02 11:06:12'
p305
I0
F53.3088595701474
F53.981309988764
tp306
a((lp307
(g303
g298
F605.232292963534
tp308
a(g298
S'809'
p309
F639.1126192225747
tp310
a(g309
S'900'
p311
F674.794246559625
tp312
a(g311
g280
F1058.824251630271
tp313
a(g280
g291
F529.4124019444542
tp314
aF315.6638231088413
g305
S'2012-03-02 11:06:52'
p315
I18
F3507.375812320459
F139.85651272064015
tp316
a((lp317
(g287
g291
F529.411849713408
tp318
a(g291
S'967'
p319
F217.51739317672622
tp320
a(g319
S'1127'
p321
F95.32887822975243
tp322
aF34.852060184271174
g315
S'2012-03-02 11:08:19'
p323
I0
F842.2581211198867
F996.2138899808906
tp324
a((lp325
(g272
g321
F95.32878660503597
tp326
a(g321
S'1082'
p327
F6.8306029289612695
tp328
a(g327
S'796'
p329
F137.28505847111882
tp330
a(g329
S'1032'
p331
F361.8967412680692
tp332
a(g331
S'1068'
p333
F287.5482508719534
tp334
a(g333
S'834'
p335
F128.40964248009593
tp336
a(g335
S'791'
p337
F344.3991517532198
tp338
a(g337
S'1107'
p339
F226.13434667854332
tp340
a(g339
S'1044'
p341
F139.212074066518
tp342
aF103.62267930741093
g323
S'2012-03-02 11:09:19'
p343
I72
F1727.0446551235157
F1212.5305001166473
tp344
a((lp345
(S'1107'
p346
g341
F139.21205723574772
tp347
a(g341
S'1107'
p348
F278.424131296127
tp349
a(g348
S'791'
p350
F226.13434667854332
tp351
a(g350
S'936'
p352
F263.909236928096
tp353
a(g352
S'873'
p354
F117.95681148015007
tp355
a(g354
g40
F5581.023855259741
tp356
a(g40
g42
F459.79492426068333
tp357
a(g42
g44
F389.26882422869335
tp358
aF64.52069008299043
g343
S'2012-03-02 11:16:15'
p359
I79
F7455.724187367782
F5527.711144386111
tp360
a((lp361
(S'1325'
p362
g44
F389.2695563777924
tp363
a(g44
S'1325'
p364
F778.5383805800125
tp365
a(g364
S'1292'
p366
F459.79492426068333
tp367
a(g366
S'1373'
p368
F768.4456454198628
tp369
a(g368
S'1234'
p370
F28.171670535815966
tp371
aF100.31255905548275
g359
S'2012-03-02 11:17:42'
p372
I3
F2424.2201771741666
F1130.8719558514074
tp373
a((lp374
(S'1373'
p375
g370
F431.46997452746893
tp376
a(g370
S'1373'
p377
F459.64164505681646
tp378
a(g377
S'1292'
p379
F384.22281782747393
tp380
aF66.5391880388744
g372
S'2012-03-02 11:18:51'
p381
I0
F1275.3344374117592
F489.4683041844093
tp382
a((lp383
(g375
g379
F384.22282759274657
tp384
a(g379
g368
F768.4456454198628
tp385
a(g368
S'1378'
p386
F1248.079896567967
tp387
a(g386
S'1300'
p388
F195.5525912949026
tp389
a(g388
S'1328'
p390
F511.70610670809936
tp391
aF139.86031804126102
g381
S'2012-03-02 11:20:11'
p392
I0
F3108.007067583578
F747.8237028609141
tp393
a((lp394
(S'1300'
p395
g390
F511.7060813796159
tp396
a(g390
S'1384'
p397
F573.9604384116748
tp398
a(g397
S'1382'
p399
F446.6556103196644
tp400
a(g399
S'871'
p401
F803.5379876651724
tp402
a(g401
S'1137'
p403
F404.8816121047468
tp404
a(g403
S'1072'
p405
F827.5221670782628
tp406
a(g405
S'271'
p407
F455.13887535379115
tp408
a(g407
S'336'
p409
F145.7434125243181
tp410
a(g409
S'5'
p411
F276.60213113766173
tp412
a(g411
S'231'
p413
F373.65454097386885
tp414
a(g413
S'101'
p415
F2128.2368240663845
tp416
a(g415
S'307'
p417
F516.3741780275716
tp418
a(g417
S'12'
p419
F336.87317808984017
tp420
a(g419
S'324'
p421
F348.33486400960794
tp422
a(g421
S'233'
p423
F522.2079091612247
tp424
a(g423
S'1158'
p425
F505.9919712639641
tp426
a(g425
S'371'
p427
F343.4160234801613
tp428
a(g427
S'414'
p429
F739.6760747221767
tp430
a(g429
S'203'
p431
F110.55925503297553
tp432
a(g431
S'431'
p433
F215.49422452221063
tp434
aF35.41974209439556
g392
S'2012-03-02 11:38:07'
p435
I40
F10586.567359324894
F8386.198241347398
tp436
a((lp437
(S'203'
p438
g433
F154.49191155936393
tp439
a(g433
S'203'
p440
F369.98613606887915
tp441
a(g440
S'414'
p442
F110.55925503297553
tp443
a(g442
S'929'
p444
F303.12038890948725
tp445
a(g444
S'842'
p446
F138.91582185729666
tp447
a(g446
S'1027'
p448
F108.42347341772006
tp449
a(g448
g3
F974.3320508593303
tp450
a(g3
g5
F104.1077353286109
tp451
aF1.138133275090237
g435
S'2012-03-02 13:37:28'
p452
I31
F2263.9367730336635
F1950.2981500431029
tp453
a((lp454
(S'887'
p455
g5
F107.77630913566105
tp456
a(g5
g234
F211.8840444636607
tp457
a(g234
S'1027'
p458
F974.3320508593303
tp459
a(g458
S'842'
p460
F108.42347341772006
tp461
a(g460
S'929'
p462
F69.457910929002
tp463
aF115.19012260215972
g452
S'2012-03-02 13:38:14'
p464
I0
F1471.873788805374
F710.0683126230869
tp465
a((lp466
(S'842'
p467
g462
F69.45791092829468
tp468
a(g462
S'414'
p469
F303.12038890948725
tp470
a(g469
S'371'
p471
F739.6760747221767
tp472
a(g471
S'1'
p473
F725.2487623614271
tp474
a(g473
S'333'
p475
F975.8745201557714
tp476
a(g475
S'117'
p477
F172.715636685259
tp478
a(g477
S'132'
p479
F2691.837296797234
tp480
a(g479
S'434'
p481
F580.6966154789958
tp482
aF59.29225774141876
g464
S'2012-03-02 13:44:34'
p483
I0
F6258.627206038646
F5601.681431404437
tp484
a.