(lp0
((lp1
(S'140'
p2
S'431'
p3
F193.79031525409772
tp4
a(g3
S'392'
p5
F457.83618440901
tp6
a(g5
S'270'
p7
F95.85961614434376
tp8
a(g7
S'433'
p9
F330.3168336032497
tp10
a(g9
S'372'
p11
F585.0976094380715
tp12
a(g11
S'97'
p13
F63.758701035611004
tp14
a(g13
S'413'
p15
F1079.6824743926077
tp16
a(g15
S'182'
p17
F250.84028944705156
tp18
aF91.71546071172128
S'2012-03-02 08:11:27'
p19
S'2012-03-02 08:13:27'
p20
I51
F3057.1820237240427
F1974.1535274937617
tp21
a((lp22
(S'413'
p23
g17
F250.84023165653164
tp24
a(g17
S'58'
p25
F1050.0893319780932
tp26
a(g25
S'86'
p27
F905.5130865393613
tp28
a(g27
S'132'
p29
F408.1675747931264
tp30
a(g29
S'434'
p31
F32.908991373650814
tp32
aF79.4255764902229
g20
S'2012-03-02 08:15:27'
p33
I77
F2647.5192163407633
F2264.4810462477353
tp34
a((lp35
(S'132'
p36
g31
F1128.4779268296222
tp37
a(g31
S'132'
p38
F1161.3869181685393
tp39
a(g38
S'117'
p40
F2691.837296797234
tp41
a(g40
S'333'
p42
F172.715636685259
tp43
a(g42
S'1'
p44
F975.8745201557714
tp45
a(g44
S'371'
p46
F725.2487623614271
tp47
a(g46
S'414'
p48
F739.6760747221767
tp49
a(g48
S'929'
p50
F303.12038890948725
tp51
a(g50
S'842'
p52
F138.91582185729666
tp53
a(g52
S'1027'
p54
F108.42347341772006
tp55
a(g54
S'887'
p56
F974.3320508593303
tp57
a(g56
S'1189'
p58
F16.974277101274517
tp59
aF4.113184860862136
g33
S'2012-03-02 10:28:44'
p60
I68
F9136.98314786514
F6312.453154265843
tp61
a((lp62
(S'887'
p63
g63
F0.0
tp64
aF0.0
g60
S'2012-03-02 10:28:44'
p65
I0
F0.0
F0.0
tp66
a((lp67
(g63
g58
F194.90976736258477
tp68
a(g58
S'887'
p69
F211.8840444636607
tp70
a(g69
S'820'
p71
F1042.7797147525323
tp72
a(g71
S'970'
p73
F247.7378419176489
tp74
a(g73
S'1069'
p75
F150.0952898730258
tp76
aF56.84328179598316
g65
S'2012-03-02 10:30:41'
p77
I0
F1847.4066583694525
F667.9119048991174
tp78
a((lp79
(S'970'
p80
g75
F150.09488234932238
tp81
a(g75
S'970'
p82
F300.1901722143531
tp83
a(g82
S'774'
p84
F377.3364418971982
tp85
a(g84
S'970'
p86
F188.66843989381914
tp87
aF15.97661035317421
g77
S'2012-03-02 10:34:30'
p88
I35
F1016.2899363546927
F480.45370209031756
tp89
a((lp90
(S'774'
p91
g86
F188.66800201074003
tp92
a(g86
S'820'
p93
F247.7378419176489
tp94
a(g93
S'887'
p95
F207.75588319160923
tp96
aF38.649703627199884
g88
S'2012-03-02 10:35:30'
p97
I20
F644.1617271199981
F332.43038118258033
tp98
a((lp99
(S'820'
p100
g95
F835.0238317724982
tp101
a(g95
S'989'
p102
F345.4568716550513
tp103
aF70.82884220565298
g97
S'2012-03-02 10:36:30'
p104
I0
F1180.4807034275495
F644.4035061544669
tp105
a((lp106
(g63
g63
F0.0
tp107
aF0.0
g104
S'2012-03-02 10:37:36'
p108
I55
F0.0
F156.6937053770904
tp109
a((lp110
(g63
g102
F345.4594667980335
tp111
a(g102
S'1230'
p112
F396.62742466432553
tp113
a(g112
S'812'
p114
F176.24844159783433
tp115
aF55.100119983611606
g108
S'2012-03-02 10:38:36'
p116
I27
F918.3353330601934
F842.2643403506695
tp117
a((lp118
(S'1230'
p119
g114
F176.24913595514033
tp120
a(g114
S'1230'
p121
F352.49757753977093
tp122
a(g121
S'989'
p123
F396.62742466432553
tp124
a(g123
S'1115'
p125
F1111.3964106739522
tp126
a(g125
S'842'
p127
F509.6129296096181
tp128
a(g127
S'929'
p129
F138.91582185729666
tp130
a(g129
S'414'
p131
F303.12038890948725
tp132
a(g131
S'371'
p133
F739.6760747221767
tp134
a(g133
S'1158'
p135
F171.70796393428762
tp136
aF2.0018955397572795
g116
S'2012-03-02 12:35:29'
p137
I31
F3899.8037278660554
F1923.4899740990595
tp138
a((lp139
(S'371'
p140
g135
F171.70805954741536
tp141
a(g135
S'233'
p142
F505.9919712639641
tp143
a(g142
S'1222'
p144
F314.42150737049457
tp145
a(g144
S'233'
p146
F157.21078570864503
tp147
aF28.53514735176461
g137
S'2012-03-02 12:37:54'
p148
I25
F1149.332323890519
F605.6630929084041
tp149
a((lp150
(S'1222'
p151
g146
F157.21072166279825
tp152
a(g146
g144
F314.42150737049457
tp153
a(g144
S'886'
p154
F498.13109666342655
tp155
a(g154
S'1233'
p156
F203.95830291726205
tp157
a(g156
S'819'
p158
F37.4616388947145
tp159
aF47.91494245089347
g148
S'2012-03-02 12:39:25'
p160
I0
F1211.183267508696
F324.538528709396
tp161
a((lp162
(S'1233'
p163
g163
F0.0
tp164
aF11.530875098321578
g160
S'2012-03-02 12:40:25'
p165
I12
F192.18125163869297
F442.7289486228118
tp166
a((lp167
(g163
g158
F50.46230589267842
tp168
a(g158
S'790'
p169
F145.5823712882947
tp170
a(g169
S'819'
p171
F126.84952910221719
tp172
aF20.041709355508363
g165
S'2012-03-02 12:41:23'
p173
I9
F322.89420628319033
F70.08707004510119
tp174
a((lp175
(S'790'
p176
g171
F18.73284218608651
tp177
a(g171
S'1233'
p178
F206.0692222142894
tp179
aF8.258035018789318
g173
S'2012-03-02 12:43:01'
p180
I0
F224.8020644003759
F437.9380567123086
tp181
a((lp182
(S'819'
p183
g178
F74.03597421113112
tp184
a(g178
S'886'
p185
F203.95830291726205
tp186
a(g185
S'1222'
p187
F498.13109666342655
tp188
a(g187
g146
F314.42150737049457
tp189
a(g146
S'1158'
p190
F505.9919712639641
tp191
a(g190
S'371'
p192
F343.4160234801613
tp193
a(g192
g48
F739.6760747221767
tp194
a(g48
S'203'
p195
F110.55925503297553
tp196
a(g195
S'431'
p197
F369.98613606887915
tp198
a(g197
S'140'
p199
F334.7646258643055
tp200
a(g199
g3
F183.65628074391324
tp201
aF1.361602929675024
g180
S'2012-03-02 15:25:07'
p202
I0
F3678.59724833869
F2387.6114054538166
tp203
a((lp204
(g2
g3
F151.1083451312911
tp205
a(g3
S'203'
p206
F369.98613606887915
tp207
a(g206
S'414'
p208
F110.55925503297553
tp209
a(g208
g50
F303.12038890948725
tp210
a(g50
g52
F138.91582185729666
tp211
a(g52
g54
F108.42347341772006
tp212
a(g54
g56
F974.3320508593303
tp213
a(g56
g58
F211.8840444636607
tp214
a(g58
S'987'
p215
F541.0596802687863
tp216
a(g215
S'1073'
p217
F585.3164976896943
tp218
a(g217
S'1185'
p219
F401.933419412357
tp220
a(g219
S'777'
p221
F465.5645320107461
tp222
a(g221
S'988'
p223
F428.69502991180303
tp224
a(g223
S'1127'
p225
F152.49726409143645
tp226
a(g225
S'967'
p227
F190.65766483400054
tp228
a(g227
S'900'
p229
F217.51739317672622
tp230
a(g229
S'1082'
p231
F202.633294358626
tp232
aF3.79198472394867
g202
S'2012-03-02 16:53:00'
p233
I55
F5554.204291494816
F5958.69614126082
tp234
a((lp235
(S'900'
p236
g231
F202.63300154119344
tp237
a(g231
S'796'
p238
F68.64253555349875
tp239
aF16.27653222568153
g233
S'2012-03-02 16:54:00'
p240
I50
F271.2755370946922
F791.4555443932778
tp241
a((lp242
(S'1082'
p243
g238
F68.64252291770168
tp244
a(g238
S'937'
p245
F117.72042469973982
tp246
a(g245
S'1061'
p247
F930.5990375079346
tp248
a(g247
S'1062'
p249
F442.8992981334369
tp250
a(g249
S'974'
p251
F116.15758994593945
tp252
aF31.589884521136693
g240
S'2012-03-02 16:57:11'
p253
I31
F1676.0188732047523
F1327.884099143565
tp254
a((lp255
(S'1062'
p256
g251
F67.26108366319612
tp257
a(g251
S'1062'
p258
F183.41867360754313
tp259
a(g258
S'1061'
p260
F221.44961548283868
tp261
aF17.704851478259172
g253
S'2012-03-02 16:58:47'
p262
I29
F472.1293727535779
F129.84645448029272
tp263
a((lp264
(g256
g260
F221.44968267532803
tp265
a(g260
g249
F442.8992981334369
tp266
a(g249
S'1150'
p267
F169.2882284230072
tp268
aF23.085338101802922
g262
S'2012-03-02 17:00:57'
p269
I7
F833.6372092317722
F339.68993347558694
tp270
a((lp271
(g256
g267
F25.468079987126675
tp272
a(g267
S'1016'
p273
F476.5728920163904
tp274
a(g273
S'895'
p275
F364.23495779569595
tp276
a(g275
S'1229'
p277
F249.3697768587104
tp278
a(g277
S'895'
p279
F124.68490737910783
tp280
aF74.4198368422219
g269
S'2012-03-02 17:01:57'
p281
I20
F1240.3306140370314
F497.6955502660326
tp282
a((lp283
(S'1229'
p284
g279
F124.68486948402185
tp285
a(g279
S'973'
p286
F444.35669521011835
tp287
a(g286
S'1191'
p288
F412.40913364934164
tp289
a(g288
S'1124'
p290
F348.66405624127844
tp291
a(g290
S'1135'
p292
F432.3866428741164
tp293
aF56.15048699868988
g281
S'2012-03-02 17:03:50'
p294
I31
F1762.5013974588767
F870.0420321445393
tp295
a((lp296
(S'1124'
p297
g292
F432.3865346114144
tp298
a(g292
S'955'
p299
F207.71700266283523
tp300
a(g299
S'844'
p301
F135.70247565144197
tp302
a(g301
S'1045'
p303
F161.05814139702346
tp304
a(g303
S'1218'
p305
F380.2508287917065
tp306
a(g305
S'1191'
p307
F264.7542280364345
tp308
a(g307
S'867'
p309
F360.6074231124015
tp310
a(g309
S'1191'
p311
F180.30371205415707
tp312
aF293.9234325670266
g294
S'2012-03-02 17:04:16'
p313
I0
F2122.7803463174146
F58.90816631932265
tp314
a((lp315
(S'867'
p316
g311
F180.3037110582615
tp317
a(g311
S'1218'
p318
F132.37711583648567
tp319
aF22.97246891471612
g313
S'2012-03-02 17:05:05'
p320
I33
F312.68082689474716
F261.1979878900209
tp321
a((lp322
(S'1191'
p323
g318
F132.37711219999466
tp324
a(g318
S'1045'
p325
F380.2508287917065
tp326
a(g325
S'844'
p327
F161.05814139702346
tp328
a(g327
S'955'
p329
F135.70247565144197
tp330
a(g329
S'813'
p331
F56.66466961496389
tp332
a(g331
S'921'
p333
F182.17650096521103
tp334
a(g333
S'806'
p335
F107.48268907765393
tp336
a(g335
S'1020'
p337
F68.75482386085511
tp338
aF36.73401724676552
g320
S'2012-03-02 17:07:05'
p339
I18
F1224.4672415588507
F743.7434465022438
tp340
a((lp341
(S'806'
p342
g337
F68.75480325342474
tp343
a(g337
S'806'
p344
F137.50962711414766
tp345
a(g344
S'921'
p346
F107.48268907765393
tp347
a(g346
S'813'
p348
F182.17650096521103
tp349
a(g348
S'955'
p350
F56.66466961496389
tp351
a(g350
g331
F28.332335707953956
tp352
aF41.00616181647214
g339
S'2012-03-02 17:07:56'
p353
I14
F580.9206257333552
F266.5100508361431
tp354
a((lp355
(S'955'
p356
g331
F28.332333907014746
tp357
a(g331
g333
F182.17650096521103
tp358
a(g333
S'927'
p359
F195.5482192140499
tp360
a(g359
S'959'
p361
F106.9390388791336
tp362
a(g361
S'1170'
p363
F135.9977572931447
tp364
a(g363
S'915'
p365
F418.6803844186766
tp366
a(g365
S'1170'
p367
F195.70127322938473
tp368
aF64.97359754948307
g353
S'2012-03-02 17:09:06'
p369
I0
F1263.3755079066154
F235.20580339730353
tp370
a((lp371
(S'915'
p372
g367
F222.9791111912283
tp373
a(g367
S'959'
p374
F135.9977572931447
tp375
a(g374
S'806'
p376
F197.56237677218394
tp377
a(g376
S'1207'
p378
F42.40214564768752
tp379
aF77.00675025911714
g369
S'2012-03-02 17:09:34'
p380
I0
F598.9413909042444
F23.689788801914183
tp381
a((lp382
(g342
g378
F98.6355913351854
tp383
a(g378
S'806'
p384
F141.0377369821515
tp385
a(g384
S'959'
p386
F197.56237677218394
tp387
a(g386
g363
F135.9977572931447
tp388
a(g363
g365
F418.6803844186766
tp389
a(g365
S'121'
p390
F317.2464914021481
tp391
a(g390
S'307'
p392
F177.64391791538793
tp393
aF97.31809676414474
g380
S'2012-03-02 17:10:29'
p394
I14
F1486.804256118878
F188.6703449682074
tp395
a((lp396
(S'121'
p397
g392
F177.64379510438962
tp398
a(g392
S'12'
p399
F336.87317808984017
tp400
a(g399
S'324'
p401
F348.33486400960794
tp402
a(g401
S'233'
p403
F522.2079091612247
tp404
a(g403
g144
F314.42150737049457
tp405
a(g144
g154
F257.646439270504
tp406
aF32.171962076811965
g394
S'2012-03-02 17:14:08'
p407
I0
F1957.1276930060612
F1298.1456251330505
tp408
a((lp409
(g151
g154
F240.48465739624993
tp410
a(g154
g156
F203.95830291726205
tp411
a(g156
S'820'
p412
F255.3750506846333
tp413
a(g412
g95
F1042.7797147525323
tp414
a(g95
S'1027'
p415
F974.3320508593303
tp416
a(g415
g56
F353.16617322676154
tp417
aF111.63985272133708
g407
S'2012-03-02 17:15:47'
p418
I0
F3070.0959498367697
F413.0347843692026
tp419
a((lp420
(S'1027'
p421
g56
F621.1658776708865
tp422
a(g56
g415
F974.3320508593303
tp423
a(g415
S'842'
p424
F108.42347341772006
tp425
a(g424
S'1115'
p426
F112.34049308497278
tp427
aF41.913736039221
g418
S'2012-03-02 17:18:23'
p428
I0
F1816.2618950329097
F525.993562284684
tp429
a((lp430
(S'842'
p431
g426
F397.27243655152586
tp432
a(g426
g127
F143.2809229102999
tp433
aF6.119471993907461
g428
S'2012-03-02 17:23:41'
p434
I5
F540.5533594618257
F492.0550662758382
tp435
a((lp436
(S'1115'
p437
g127
F366.33200673095286
tp438
a(g127
g54
F108.42347341772006
tp439
a(g54
g56
F119.60072341053453
tp440
aF17.83068610677622
g434
S'2012-03-02 17:25:41'
p441
I27
F594.3562035592074
F425.8896246631515
tp442
a((lp443
(g421
g56
F854.731327466673
tp444
a(g56
g415
F974.3320508593303
tp445
a(g415
g424
F108.42347341772006
tp446
a(g424
g129
F69.457910929002
tp447
aF249.13797053868316
g441
S'2012-03-02 17:26:10'
p448
I20
F2006.9447626727256
F145.53918606678963
tp449
a((lp450
(g431
g129
F69.45791092829468
tp451
a(g129
g52
F138.91582185729666
tp452
a(g52
g54
F108.42347341772006
tp453
a(g54
g56
F272.1102000935419
tp454
aF35.3344443778112
g448
S'2012-03-02 17:27:10'
p455
I0
F588.9074062968533
F6.967802694484661
tp456
a((lp457
(g421
g421
F0.0
tp458
aF4.013785053977365
g455
S'2012-03-02 17:27:52'
p459
I0
F46.82749229640259
F46.736520203378525
tp460
a((lp461
(g421
g56
F655.3943585066286
tp462
a(g56
g58
F211.8840444636607
tp463
a(g58
g215
F541.0596802687863
tp464
a(g215
g217
F166.90510402253065
tp465
aF23.628647808924093
g459
S'2012-03-02 17:31:52'
p466
I16
F1575.2431872616062
F1572.9356694548107
tp467
a((lp468
(S'987'
p469
g217
F418.41139367671104
tp470
a(g217
g219
F401.933419412357
tp471
a(g219
g221
F465.5645320107461
tp472
a(g221
g223
F428.69502991180303
tp473
a(g223
g225
F152.49726409143645
tp474
a(g225
g227
F190.65766483400054
tp475
a(g227
g229
F217.51739317672622
tp476
a(g229
S'809'
p477
F674.794246559625
tp478
a(g477
S'1114'
p479
F639.1126192225747
tp480
a(g479
S'993'
p481
F865.1525280555261
tp482
a(g481
S'843'
p483
F149.2717042929511
tp484
aF46.6844734165635
g466
S'2012-03-02 17:37:47'
p485
I9
F4603.607795244457
F3803.5975549517607
tp486
a((lp487
(S'993'
p488
g483
F149.27181884897354
tp489
a(g483
S'993'
p490
F298.54352314033923
tp491
a(g490
S'1114'
p492
F865.1525280555261
tp493
a(g492
S'809'
p494
F639.1126192225747
tp495
a(g494
S'900'
p496
F674.794246559625
tp497
a(g496
S'1101'
p498
F1058.824251630271
tp499
a(g498
S'996'
p500
F1288.4416554530242
tp501
a(g500
S'1101'
p502
F64.01252165647881
tp503
aF283.3961155068832
g485
S'2012-03-02 17:38:51'
p504
I22
F5038.153164566812
F693.4876233657618
tp505
a((lp506
(S'996'
p507
g502
F1224.429133811803
tp508
a(g502
g500
F1288.4416554530242
tp509
a(g500
S'906'
p510
F899.010922256264
tp511
a(g510
S'1113'
p512
F504.1784455245772
tp513
a(g512
S'1160'
p514
F282.7294827992773
tp515
a(g514
S'847'
p516
F352.8185604851902
tp517
a(g516
S'1160'
p518
F176.40942934564782
tp519
aF212.76079333541028
g504
S'2012-03-02 17:40:11'
p520
I0
F4728.017629675784
F650.6040415718952
tp521
a((lp522
(S'847'
p523
g518
F176.40913115213897
tp524
a(g518
S'1113'
p525
F282.7294827992773
tp526
a(g525
S'835'
p527
F42.023527280195125
tp528
aF30.069728473896685
g520
S'2012-03-02 17:41:11'
p529
I51
F501.16214123161143
F815.3537859716832
tp530
a((lp531
(S'1113'
p532
g532
F0.0
tp533
aF16.24708246567264
g529
S'2012-03-02 17:42:27'
p534
I31
F342.9939631642002
F372.0567804418142
tp535
a((lp536
(g532
g532
F0.0
tp537
aF4.920054855791753
g534
S'2012-03-02 17:43:27'
p538
I11
F82.00091426319588
F168.9711337662158
tp539
a((lp540
(g532
g527
F3406.306076920518
tp541
a(g527
S'1057'
p542
F3008.537946635903
tp543
a(g542
S'894'
p544
F310.6033695711171
tp545
a(g544
S'942'
p546
F338.90166780966075
tp547
a(g546
S'1056'
p548
F259.19830405018683
tp549
a(g548
S'1015'
p550
F555.5730496771731
tp551
a(g550
S'1056'
p552
F277.7865232372502
tp553
aF253.14538772798724
g538
S'2012-03-02 17:45:23'
p554
I0
F8156.90693790181
F94.20952877718801
tp555
a((lp556
(S'1015'
p557
g557
F0.0
tp558
aF0.0
g554
S'2012-03-02 17:46:23'
p559
I1
F0.0
F19.436467836544395
tp560
a((lp561
(g557
g552
F277.7865264400078
tp562
a(g552
S'942'
p563
F176.8077093259824
tp564
aF4.827549406364497
g559
S'2012-03-02 17:52:02'
p565
I0
F454.59423576599016
F748.9577282285699
tp566
a((lp567
(S'1056'
p568
g563
F82.3905947242067
tp569
a(g563
g548
F259.19830405018683
tp570
a(g548
S'1179'
p571
F270.4413970166197
tp572
a(g571
S'1056'
p573
F265.58489070779876
tp574
aF34.34146381951874
g565
S'2012-03-02 17:53:34'
p575
I11
F877.615186498812
F36.41592980630214
tp576
a((lp577
(S'1179'
p578
g573
F4.856506309300604
tp579
a(g573
g563
F259.19830405018683
tp580
a(g563
g548
F129.5991521804622
tp581
aF0.5299754170320937
g575
S'2012-03-02 18:38:08'
p582
I0
F393.6539625399496
F64.99343462326324
tp583
a((lp584
(S'942'
p585
g548
F129.5991518697285
tp586
a(g548
g563
F259.19830405018683
tp587
a(g563
S'830'
p588
F565.0355820413071
tp589
a(g588
S'906'
p590
F1055.3265253741486
tp591
a(g590
g512
F504.1784455245772
tp592
a(g512
g514
F141.36476668318906
tp593
aF47.784649959776466
g582
S'2012-03-02 18:41:28'
p594
I22
F2654.702775543137
F1130.8829254022817
tp595
a((lp596
(g532
g514
F141.36471611676043
tp597
a(g514
g525
F282.7294827992773
tp598
a(g525
g527
F26.39648022876491
tp599
aF27.961490429677408
g594
S'2012-03-02 18:42:26'
p600
I14
F450.49067914480264
F423.28238487262615
tp601
a((lp602
(g532
g527
F3846.927993766094
tp603
a(g527
S'1113'
p604
F3873.324473476086
tp605
a(g604
g514
F282.7294827992773
tp606
a(g514
S'1139'
p607
F324.6889418885354
tp608
aF254.06453568599977
g600
S'2012-03-02 18:44:24'
p609
I0
F8327.670891929993
F587.1719402923558
tp610
a((lp611
(S'1160'
p612
g607
F675.209899731016
tp613
a(g607
S'909'
p614
F384.6361930519455
tp615
a(g614
S'827'
p616
F390.24923028502263
tp617
a(g616
S'1041'
p618
F689.5118116434894
tp619
a(g618
S'827'
p620
F88.35943732890983
tp621
aF62.66155983863578
g609
S'2012-03-02 18:46:32'
p622
I31
F2227.966572040383
F591.5454485803513
tp623
a((lp624
(S'1041'
p625
g620
F601.1523743203089
tp626
a(g620
S'909'
p627
F390.24923028502263
tp628
a(g627
S'1139'
p629
F384.6361930519455
tp630
a(g629
S'1160'
p631
F129.07682094739823
tp632
aF76.31567080249059
g622
S'2012-03-02 18:47:43'
p633
I9
F1505.1146186046753
F52.19706379858754
tp634
a((lp635
(S'1139'
p636
g631
F870.8220206608491
tp637
a(g631
g516
F352.8185604851902
tp638
a(g516
S'1041'
p639
F692.7516666069633
tp640
a(g639
S'847'
p641
F7.540910823461035
tp642
aF16.45168496644957
g633
S'2012-03-02 18:54:44'
p643
I5
F1923.9331585764637
F182.21933374424688
tp644
a((lp645
(g625
g641
F685.2107557838553
tp646
a(g641
g518
F352.8185604851902
tp647
a(g518
g607
F999.898841596365
tp648
a(g607
g614
F192.31810921858602
tp649
aF51.799268138725076
g643
S'2012-03-02 18:57:19'
p650
I9
F2230.2462670839964
F892.903257775813
tp651
a((lp652
(g636
g614
F192.3180838338234
tp653
a(g614
S'817'
p654
F286.06989179438705
tp655
a(g654
S'873'
p656
F214.99477288859876
tp657
a(g656
S'1154'
p658
F7.41826095978816
tp659
aF60.06865795513692
g650
S'2012-03-02 18:58:01'
p660
I53
F700.8010094765974
F377.1285844301338
tp661
a((lp662
(S'873'
p663
g658
F652.2459370836403
tp664
a(g658
S'873'
p665
F659.6641980397137
tp666
a(g665
S'936'
p667
F117.95681148015007
tp668
a(g667
S'791'
p669
F263.909236928096
tp670
a(g669
S'1107'
p671
F113.06740599588973
tp672
aF90.34217947637448
g660
S'2012-03-02 18:59:13'
p673
I0
F1806.8435895274897
F50.51805618154779
tp674
a((lp675
(S'791'
p676
g676
F0.0
tp677
aF1.833656203449229
g673
S'2012-03-02 19:00:35'
p678
I14
F41.766613523010214
F622.6290997622656
tp679
a((lp680
(g676
g671
F154.833554208565
tp681
a(g671
S'852'
p682
F264.7955081021066
tp683
a(g682
S'833'
p684
F46.44142998643829
tp685
aF57.85702662998606
g678
S'2012-03-02 19:01:04'
p686
I0
F466.0704922971099
F65.28511700219703
tp687
a((lp688
(S'852'
p689
g684
F317.55383733340955
tp690
a(g684
S'974'
p691
F480.1669052301094
tp692
a(g691
g258
F183.41867360754313
tp693
a(g258
g267
F194.7563084101235
tp694
a(g267
g273
F386.79575191653606
tp695
aF46.88074429493165
g686
S'2012-03-02 19:03:04'
p696
I40
F1562.6914764977216
F1399.0429668364566
tp697
a((lp698
(S'1150'
p699
g273
F89.77714009985607
tp700
a(g273
g275
F364.23495779569595
tp701
a(g275
S'1016'
p702
F45.5372667546323
tp703
aF31.550486188432696
g696
S'2012-03-02 19:04:01'
p704
I48
F499.5493646501843
F408.43150361064124
tp705
a((lp706
(S'895'
p707
g702
F318.69769104108076
tp708
a(g702
g275
F364.23495779569595
tp709
a(g275
S'774'
p710
F14.754659971183878
tp711
aF73.87277387378407
g704
S'2012-03-02 19:04:35'
p712
I0
F697.6873088079606
F61.05831733645287
tp713
a((lp714
(g707
g710
F253.66640632793798
tp715
a(g710
g86
F264.5212409266588
tp716
aF31.09125883527581
g712
S'2012-03-02 19:05:35'
p717
I37
F518.1876472545968
F519.3328082882856
tp718
a((lp719
(g91
g86
F112.81520097672495
tp720
a(g86
g75
F300.1901722143531
tp721
a(g75
S'860'
p722
F115.85435816972478
tp723
aF31.73158388164817
g717
S'2012-03-02 19:06:35'
p724
I22
F528.8597313608028
F352.5923766821519
tp725
a((lp726
(S'1069'
p727
g722
F115.85431805648571
tp728
a(g722
S'790'
p729
F108.13434072706384
tp730
a(g729
g171
F72.79119453999549
tp731
aF19.425590399359315
g724
S'2012-03-02 19:07:30'
p732
I44
F296.77985332354507
F268.38001008457957
tp733
a((lp734
(g176
g171
F72.79117674842068
tp735
a(g171
g178
F280.1051964205321
tp736
a(g178
g185
F203.95830291726205
tp737
a(g185
g156
F181.65824147691285
tp738
aF126.60221443939332
g732
S'2012-03-02 19:07:51'
p739
I12
F738.5129175631276
F25.20262530397849
tp740
a((lp741
(S'886'
p742
g742
F0.0
tp743
aF0.0039502607327143325
g739
S'2012-03-02 19:08:51'
p744
I0
F0.06583767887857221
F8.673709054684123
tp745
a((lp746
(g742
g156
F22.365899119328425
tp747
a(g156
g185
F203.95830291726205
tp748
a(g185
g187
F249.0656193648121
tp749
aF14.261694642042077
g744
S'2012-03-02 19:10:51'
p750
I0
F475.38982140140257
F3.8452442717290896
tp751
a((lp752
(g742
g187
F249.06547730195334
tp753
a(g187
g154
F498.13109666342655
tp754
a(g154
g156
F203.95830291726205
tp755
a(g156
g412
F255.3750506846333
tp756
a(g412
g95
F521.3878162028419
tp757
aF103.67506462620702
g750
S'2012-03-02 19:11:51'
p758
I0
F1727.9177437701169
F5.2746857069486115
tp759
a((lp760
(g100
g95
F521.3918988810026
tp761
a(g95
g71
F1042.7797147525323
tp762
a(g71
S'1233'
p763
F255.3750506846333
tp764
a(g763
g185
F52.005936351230616
tp765
aF168.4397340602459
g758
S'2012-03-02 19:12:31'
p766
I0
F1871.552600669399
F37.981029053637435
tp767
a((lp768
(g163
g185
F151.95236656623737
tp769
a(g185
g156
F203.95830291726205
tp770
a(g156
g412
F255.3750506846333
tp771
a(g412
g95
F1042.7797147525323
tp772
a(g95
g415
F974.3320508593303
tp773
a(g415
g424
F108.42347341772006
tp774
a(g424
g426
F254.80585084508155
tp775
aF52.02829234857039
g766
S'2012-03-02 19:15:58'
p776
I25
F2991.6268100427974
F1057.8105826900016
tp777
a((lp778
(g431
g426
F254.80707880381686
tp779
a(g426
g127
F509.6129296096181
tp780
a(g127
g54
F108.42347341772006
tp781
a(g54
g56
F340.958529575332
tp782
aF32.854791286190625
g776
S'2012-03-02 19:18:11'
p783
I1
F1213.802011406487
F130.8770111420152
tp784
a((lp785
(g421
g421
F0.0
tp786
aF4.898365120746942
g783
S'2012-03-02 19:18:58'
p787
I18
F63.9508779653073
F82.4735045881146
tp788
a((lp789
(g421
g56
F569.4226433605446
tp790
a(g56
g102
F27.489711214892885
tp791
aF12.004941209338407
g787
S'2012-03-02 19:21:57'
p792
I29
F596.9123545754375
F462.86953778222824
tp793
a((lp794
(g63
g102
F663.4266271543391
tp795
a(g102
S'887'
p796
F690.9163383539549
tp797
a(g796
g58
F211.8840444636607
tp798
a(g58
g215
F541.0596802687863
tp799
a(g215
S'1229'
p800
F43.76956532350148
tp801
aF40.33230479182956
g792
S'2012-03-02 19:25:09'
p802
I0
F2151.0562555642427
F1118.4357878354588
tp803
a((lp804
(g469
g800
F784.8361751093793
tp805
a(g800
g279
F124.68490737910783
tp806
aF17.794977700861704
g802
S'2012-03-02 19:28:13'
p807
I0
F909.5210824884871
F559.46981789797
tp808
a((lp809
(g284
g279
F124.68486948402185
tp810
a(g279
g286
F444.35669521011835
tp811
a(g286
g288
F12.875514369138081
tp812
aF14.649660731662948
g807
S'2012-03-02 19:30:36'
p813
I24
F581.9170790632783
F988.9684274857796
tp814
a((lp815
(S'973'
p816
g288
F399.53361928249274
tp817
a(g288
g318
F15.069561193164523
tp818
aF15.878419677791129
g813
S'2012-03-02 19:32:10'
p819
I37
F414.60318047565727
F392.2523477903419
tp820
a((lp821
(g323
g318
F249.6846668432706
tp822
a(g318
g325
F380.2508287917065
tp823
a(g325
g327
F161.05814139702346
tp824
a(g327
g329
F135.70247565144197
tp825
a(g329
S'1135'
p826
F207.71700266283523
tp827
a(g826
S'982'
p828
F260.3284916704843
tp829
aF46.49138690055874
g819
S'2012-03-02 19:33:58'
p830
I20
F1394.7416070167621
F993.1635893814932
tp831
a((lp832
(S'1135'
p833
g828
F260.32987108772363
tp834
a(g828
S'804'
p835
F140.04113628613734
tp836
a(g835
S'888'
p837
F436.4498289725836
tp838
a(g837
S'1213'
p839
F398.42229143270566
tp840
a(g839
S'1066'
p841
F63.003045058211704
tp842
aF51.359189255104425
g830
S'2012-03-02 19:35:29'
p843
I0
F1298.2461728373619
F407.45619374054
tp844
a((lp845
(S'1213'
p846
g841
F63.0029958985286
tp847
a(g841
S'1170'
p848
F134.29559832461862
tp849
a(g848
S'1020'
p850
F201.74042609344684
tp851
a(g850
g344
F8.957113376849817
tp852
aF1468.786081296398
g843
S'2012-03-02 19:35:30'
p853
I0
F407.9961336934439
F0.0
tp854
a((lp855
(S'1020'
p856
g344
F128.55251373741706
tp857
a(g344
g386
F197.56237677218394
tp858
a(g386
g363
F135.9977572931447
tp859
a(g363
S'1066'
p860
F134.29559832461862
tp861
a(g860
S'923'
p862
F407.53435205726896
tp863
a(g862
S'1066'
p864
F59.80493481659476
tp865
aF26.229391224687816
g853
S'2012-03-02 19:37:56'
p866
I0
F1063.747533001228
F503.95242108949003
tp867
a((lp868
(S'923'
p869
g864
F347.7294172519657
tp870
a(g864
S'1213'
p871
F126.00604095646439
tp872
a(g871
S'1059'
p873
F24.347670935949793
tp874
a(g873
S'1125'
p875
F117.15302598243926
tp876
a(g875
S'1059'
p877
F58.57651784918671
tp878
aF25.26797523660022
g866
S'2012-03-02 19:39:32'
p879
I16
F673.8126729760058
F181.16637113632748
tp880
a((lp881
(S'1125'
p882
g877
F58.57650813330605
tp883
a(g877
S'1213'
p884
F24.347670935949793
tp885
a(g884
g841
F63.003045058211704
tp886
aF8.755633447648053
g879
S'2012-03-02 19:40:32'
p887
I0
F145.92722412746755
F3.40695655578871
tp888
a((lp889
(g846
g841
F63.0029958985286
tp890
a(g841
g871
F126.00604095646439
tp891
a(g871
S'888'
p892
F398.42229143270566
tp893
a(g892
S'804'
p894
F218.22489493061045
tp895
aF29.5955347304685
g887
S'2012-03-02 19:42:10'
p896
I0
F805.6562232183092
F33.61141927514869
tp897
a((lp898
(S'888'
p899
g894
F218.22493404278475
tp900
a(g894
g837
F436.4498289725836
tp901
a(g837
S'923'
p902
F318.05554901056104
tp903
a(g902
g864
F326.45684898265637
tp904
aF86.61247740057239
g896
S'2012-03-02 19:43:04'
p905
I0
F1299.1871610085857
F53.620521916565124
tp906
a((lp907
(g869
g864
F81.07750308901373
tp908
a(g864
g848
F134.29559832461862
tp909
a(g848
g850
F201.74042609344684
tp910
a(g850
S'1145'
p911
F138.3852165812993
tp912
a(g911
S'1028'
p913
F210.6065185280842
tp914
a(g913
S'772'
p915
F230.208379433524
tp916
a(g915
S'819'
p917
F232.03849592151013
tp918
a(g917
g178
F280.1051964205321
tp919
a(g178
g412
F255.3750506846333
tp920
a(g412
g95
F1042.7797147525323
tp921
a(g95
g58
F105.9419924101466
tp922
aF19.896005184177664
g905
S'2012-03-02 19:51:51'
p923
I25
F2912.554092239341
F2608.0243794695493
tp924
a((lp925
(g63
g58
F105.94205205410044
tp926
a(g58
g215
F541.0596802687863
tp927
a(g215
g217
F585.3164976896943
tp928
a(g217
g219
F401.933419412357
tp929
a(g219
g221
F465.5645320107461
tp930
a(g221
g223
F428.69502991180303
tp931
a(g223
g225
F152.49726409143645
tp932
a(g225
g227
F190.65766483400054
tp933
a(g227
g229
F62.438482156439974
tp934
aF58.68209244858728
g923
S'2012-03-02 19:54:51'
p935
I14
F2934.104622429364
F3031.7824053031677
tp936
a.