(lp0
((lp1
(S'190'
p2
S'200'
p3
F5.712992615349029
tp4
a(g3
S'190'
p5
F65.9676834156334
tp6
a(g5
S'219'
p7
F816.17968688634
tp8
a(g7
S'117'
p9
F439.0234501785394
tp10
a(g9
S'132'
p11
F1345.9190306379467
tp12
aF71.80664356299783
S'2012-03-02 13:41:22'
p13
S'2012-03-02 13:43:36'
p14
I0
F2672.8028437338085
F854.9683427869725
tp15
a((lp16
(S'117'
p17
g11
F1345.9182662574758
tp18
a(g11
S'117'
p19
F2691.837296797234
tp20
a(g19
S'219'
p21
F439.0234501785394
tp22
a(g21
S'209'
p23
F348.12509298251837
tp24
a(g23
S'69'
p25
F560.4047888183237
tp26
a(g25
S'114'
p27
F277.18170658049786
tp28
a(g27
S'69'
p29
F138.59080145535074
tp30
aF210.9484146570887
g14
S'2012-03-02 13:45:15'
p31
I16
F5801.081403069939
F717.6589630262449
tp32
a((lp33
(S'114'
p34
g29
F138.59090513124823
tp35
a(g29
g27
F138.59090513124823
tp36
aF83.15454307874894
g31
S'2012-03-02 13:45:27'
p37
I0
F277.18181026249647
F44.0949796524411
tp38
a((lp39
(S'69'
p40
g27
F138.59080145535074
tp41
a(g27
g29
F277.18170658049786
tp42
a(g29
S'209'
p43
F560.4047888183237
tp44
a(g43
S'219'
p45
F174.06249102613245
tp46
aF69.0143872728183
g37
S'2012-03-02 13:46:27'
p47
I25
F1150.239787880305
F111.4283967939665
tp48
a((lp49
(S'209'
p50
g45
F174.06260196845184
tp51
a(g45
S'190'
p52
F816.17968688634
tp53
a(g52
S'1'
p54
F133.23962227802784
tp55
a(g54
S'392'
p56
F537.506149808377
tp57
aF30.048025223056825
g47
S'2012-03-02 13:49:46'
p58
I48
F1660.9880609411966
F1039.1906206093588
tp59
a((lp60
(g54
g56
F537.5087145337885
tp61
a(g56
S'270'
p62
F95.85961614434376
tp63
a(g62
S'365'
p64
F683.1267423951847
tp65
aF78.989704384399
g58
S'2012-03-02 13:50:46'
p66
I38
F1316.495073073317
F880.7214029015134
tp67
a((lp68
(S'270'
p69
g64
F683.1318240690184
tp70
a(g64
S'270'
p71
F1366.258565726773
tp72
a(g71
S'392'
p73
F95.85961614434376
tp74
a(g73
S'431'
p75
F457.83618440901
tp76
a(g75
S'392'
p77
F247.65775306452687
tp78
aF3.671798996883441
g66
S'2012-03-02 14:37:21'
p79
I57
F2850.743943413672
F568.4436256369622
tp80
a((lp81
(S'431'
p82
g77
F210.1784313696866
tp83
a(g77
g75
F457.83618440901
tp84
a(g75
S'140'
p85
F334.7646258643055
tp86
a(g85
S'263'
p87
F435.87853113202175
tp88
a(g87
S'1115'
p89
F353.870389528206
tp90
aF75.0360626080422
g79
S'2012-03-02 14:38:47'
p91
I0
F1792.5281623032301
F861.4119063585266
tp92
a((lp93
(S'263'
p94
g89
F118.55026730417856
tp95
a(g89
S'989'
p96
F1111.3964106739522
tp97
a(g96
S'1036'
p98
F393.39264051199774
tp99
aF48.70017955470386
g91
S'2012-03-02 14:40:47'
p100
I48
F1623.3393184901286
F1105.5570414430879
tp101
a((lp102
(S'989'
p103
g98
F393.39337356847
tp104
a(g98
S'1151'
p105
F249.65204655763606
tp106
aF38.58272520756636
g100
S'2012-03-02 14:41:47'
p107
I40
F643.045420126106
F839.3903725737823
tp108
a((lp109
(S'1036'
p110
g105
F249.65214274233847
tp111
a(g105
S'1232'
p112
F572.8013873462398
tp113
a(g112
S'1151'
p114
F60.901682073334186
tp115
aF16.82581356498881
g107
S'2012-03-02 14:44:56'
p116
I25
F883.3552121619125
F1084.9665497667754
tp117
a((lp118
(S'1232'
p119
g114
F511.8997052761993
tp120
a(g114
g112
F572.8013873462398
tp121
a(g112
S'901'
p122
F500.4166198457959
tp123
a(g122
S'1157'
p124
F329.43858562166434
tp125
a(g124
S'1099'
p126
F10.623947141242395
tp127
a(g126
S'1157'
p128
F5.311973626013747
tp129
aF67.47351444549281
g116
S'2012-03-02 14:46:39'
p130
I0
F1930.4922188571552
F486.06523063631016
tp131
a((lp132
(S'1099'
p133
g128
F5.311973515228703
tp134
a(g128
S'809'
p135
F755.0004704445299
tp136
a(g135
S'900'
p137
F337.39885379462476
tp138
aF4.415375052419866
g130
S'2012-03-02 15:01:34'
p139
I0
F1097.7112977543834
F1003.467844422496
tp140
a((lp141
(S'809'
p142
g137
F337.39539286240483
tp143
a(g137
S'1101'
p144
F1058.824251630271
tp145
a(g144
S'996'
p146
F1288.4416554530242
tp147
a(g146
S'906'
p148
F449.506110149901
tp149
aF55.581293972138745
g139
S'2012-03-02 15:04:57'
p150
I59
F3134.167410095601
F2092.789564457259
tp151
a((lp152
(S'996'
p153
g148
F449.50481231354973
tp154
a(g148
S'1113'
p155
F504.1784455245772
tp156
a(g155
S'1160'
p157
F282.7294827992773
tp158
a(g157
S'847'
p159
F352.8185604851902
tp160
a(g159
S'1160'
p161
F337.28213047095454
tp162
aF54.18319026356857
g150
S'2012-03-02 15:07:05'
p163
I0
F1926.513431593549
F1368.6660515736455
tp164
a((lp165
(S'847'
p166
g161
F15.536430016346015
tp167
a(g161
S'1113'
p168
F282.7294827992773
tp169
a(g168
S'906'
p170
F504.1784455245772
tp171
a(g170
S'830'
p172
F1055.3265253741486
tp173
a(g172
S'942'
p174
F565.0355820413071
tp175
a(g174
S'1056'
p176
F259.19830405018683
tp177
a(g176
S'942'
p178
F129.5991518697285
tp179
aF56.232078433511425
g163
S'2012-03-02 15:10:05'
p180
I66
F2811.603921675571
F875.0157008072185
tp181
a((lp182
(S'1056'
p183
g178
F129.5991521804622
tp184
a(g178
g176
F259.19830405018683
tp185
a(g176
S'1179'
p186
F270.4413970166197
tp187
a(g186
S'985'
p188
F261.6460276102982
tp189
aF55.253092851454014
g180
S'2012-03-02 15:11:05'
p190
I7
F920.8848808575669
F359.5688898845761
tp191
a((lp192
(S'1179'
p193
g188
F13.70114688775052
tp194
a(g188
S'942'
p195
F262.1011850602843
tp196
a(g195
g176
F129.5991521804622
tp197
aF1.964260219195948
g190
S'2012-03-02 15:23:28'
p198
I29
F405.40148412849703
F353.3805557668573
tp199
a((lp200
(S'942'
p201
g176
F129.5991518697285
tp202
a(g176
g178
F259.19830405018683
tp203
a(g178
S'830'
p204
F565.0355820413071
tp205
a(g204
S'906'
p206
F1055.3265253741486
tp207
a(g206
g155
F504.1784455245772
tp208
a(g155
g170
F252.0890413053084
tp209
aF41.82998899409632
g198
S'2012-03-02 15:27:26'
p210
I40
F2765.4270501652563
F1342.862721449457
tp211
a((lp212
(S'1113'
p213
g170
F252.08940425577936
tp214
a(g170
S'996'
p215
F354.06784666666874
tp216
aF4.071205416643309
g210
S'2012-03-02 15:36:22'
p217
I0
F606.1572509224482
F1318.4262939336227
tp218
a((lp219
(S'906'
p220
g215
F544.9430757874162
tp221
a(g215
S'1101'
p222
F1288.4416554530242
tp223
a(g222
S'900'
p224
F1058.824251630271
tp225
a(g224
S'809'
p226
F674.794246559625
tp227
a(g226
S'1114'
p228
F639.1126192225747
tp229
a(g228
S'993'
p230
F865.1525280555261
tp231
a(g230
S'843'
p232
F298.54352314033923
tp233
a(g232
S'932'
p234
F496.3588671175418
tp235
a(g234
S'843'
p236
F131.91188058589128
tp237
aF178.45535149742113
g217
S'2012-03-02 15:38:23'
p238
I66
F5998.08264755221
F1309.1501769957486
tp239
a((lp240
(S'932'
p241
g236
F364.44698656231355
tp242
a(g236
g234
F496.3588671175418
tp243
a(g234
S'999'
p244
F145.94001464797586
tp245
aF258.87750899858514
g238
S'2012-03-02 15:38:37'
p246
I0
F1006.7458683278312
F76.66662046304661
tp247
a((lp248
(g241
g244
F145.93999936226308
tp249
a(g244
S'821'
p250
F328.92127087434676
tp251
a(g250
S'1141'
p252
F245.2032405202945
tp253
aF43.203870645414256
g246
S'2012-03-02 15:39:37'
p254
I40
F720.0645107569043
F300.3391838713876
tp255
a((lp256
(S'821'
p257
g252
F27.716451912510056
tp258
a(g252
S'918'
p259
F333.92501272121706
tp260
a(g259
S'1141'
p261
F200.65789497176453
tp262
aF77.85683440691423
g254
S'2012-03-02 15:40:03'
p263
I0
F562.2993596054916
F37.95213079037101
tp264
a((lp265
(S'918'
p266
g261
F133.2671177598568
tp267
a(g261
g259
F333.92501272121706
tp268
a(g259
S'993'
p269
F353.8824181427403
tp270
a(g269
S'1114'
p271
F865.1525280555261
tp272
a(g271
S'809'
p273
F639.1126192225747
tp274
a(g273
S'1157'
p275
F755.0004704445299
tp276
a(g275
S'901'
p277
F329.43858562166434
tp278
a(g277
S'1232'
p279
F500.4166198457959
tp280
a(g279
g114
F572.8013873462398
tp281
a(g114
S'1036'
p282
F499.30418929770127
tp283
a(g282
S'989'
p284
F786.7860140536283
tp285
a(g284
S'1115'
p286
F1111.3964106739522
tp287
a(g286
S'263'
p288
F472.4206568274532
tp289
a(g288
S'140'
p290
F435.87853113202175
tp291
a(g290
S'431'
p292
F334.7646258643055
tp293
a(g292
g77
F457.83618440901
tp294
a(g77
g75
F228.9174100664983
tp295
aF12.626227234611855
g263
S'2012-03-02 16:21:55'
p296
I29
F8810.300781484717
F6802.856107301922
tp297
a((lp298
(S'392'
p299
g75
F228.91877436788937
tp300
a(g75
S'203'
p301
F369.98613606887915
tp302
a(g301
S'414'
p303
F110.55925503297553
tp304
a(g303
S'929'
p305
F303.12038890948725
tp306
a(g305
S'842'
p307
F138.91582185729666
tp308
a(g307
S'1027'
p309
F108.42347341772006
tp310
a(g309
S'887'
p311
F974.3320508593303
tp312
a(g311
S'1189'
p313
F31.97606828980712
tp314
aF67.98695906410157
g296
S'2012-03-02 16:23:55'
p315
I61
F2266.2319688033854
F1980.4386121081325
tp316
a((lp317
(S'887'
p318
g313
F179.9079761741795
tp319
a(g313
S'987'
p320
F541.0596802687863
tp321
a(g320
S'1073'
p322
F585.3164976896943
tp323
a(g322
S'1185'
p324
F200.96654104178072
tp325
aF90.43504171046645
g315
S'2012-03-02 16:24:55'
p326
I74
F1507.2506951744408
F958.3523472128792
tp327
a((lp328
(S'1073'
p329
g324
F200.96687837675643
tp330
a(g324
S'777'
p331
F465.5645320107461
tp332
a(g331
S'988'
p333
F428.69502991180303
tp334
a(g333
S'1127'
p335
F152.49726409143645
tp336
a(g335
S'967'
p337
F190.65766483400054
tp338
a(g337
S'1154'
p339
F633.0663908294133
tp340
a(g339
S'1010'
p341
F507.7471347885134
tp342
a(g341
S'827'
p343
F266.8104465605856
tp344
a(g343
S'1041'
p345
F689.5118116434894
tp346
a(g345
S'847'
p347
F692.7516666069633
tp348
a(g347
g161
F176.40942934564782
tp349
aF39.84131079496904
g326
S'2012-03-02 16:31:33'
p350
I61
F4404.678248999355
F4515.640085607536
tp351
a((lp352
(g166
g161
F176.40913115213897
tp353
a(g161
g168
F282.7294827992773
tp354
a(g168
g170
F504.1784455245772
tp355
a(g170
g172
F1055.3265253741486
tp356
a(g172
g174
F565.0355820413071
tp357
a(g174
g176
F259.19830405018683
tp358
a(g176
g186
F270.4413970166197
tp359
a(g186
g188
F137.67358546021924
tp360
aF38.62565291190268
g350
S'2012-03-02 16:36:36'
p361
I64
F3250.9924534184747
F1230.4706408518434
tp362
a((lp363
(g193
g188
F137.67358903787235
tp364
a(g188
g195
F262.1011850602843
tp365
a(g195
g176
F259.19830405018683
tp366
a(g176
g178
F129.5991518697285
tp367
aF23.657166900542162
g361
S'2012-03-02 16:38:36'
p368
I12
F788.572230018072
F360.18316282001194
tp369
a((lp370
(g183
g183
F0.0
tp371
aF0.0
g368
S'2012-03-02 16:39:36'
p372
I11
F0.0
F354.9155073282881
tp373
a.