(lp0
((lp1
(S'1115'
p2
S'989'
p3
F962.2934297893745
tp4
a(g3
S'1036'
p5
F393.39264051199774
tp6
aF81.34116421808233
S'2012-03-02 11:52:14'
p7
S'2012-03-02 11:53:14'
p8
I37
F1355.6860703013722
F750.0970635131491
tp9
a((lp10
(S'989'
p11
g5
F393.39337356847
tp12
a(g5
S'1151'
p13
F499.30418929770127
tp14
a(g13
S'1036'
p15
F51.60792319165056
tp16
aF20.728657011025355
g8
S'2012-03-02 11:55:58'
p17
I51
F944.3054860578218
F1454.7456022262973
tp18
a((lp19
(S'1151'
p20
g15
F447.6962661069321
tp21
a(g15
g13
F499.30418929770127
tp22
a(g13
S'1232'
p23
F572.8013873462398
tp24
a(g23
S'901'
p25
F250.2082416432828
tp26
aF68.5165193959028
g17
S'2012-03-02 11:57:31'
p27
I0
F1770.010084394156
F496.72144825430127
tp28
a((lp29
(S'1232'
p30
g25
F250.20837820573567
tp31
a(g25
S'1232'
p32
F500.4166198457959
tp33
a(g32
S'1031'
p34
F536.64824962327
tp35
a(g34
S'824'
p36
F464.2330654185904
tp37
a(g36
S'1174'
p38
F53.46020839108469
tp39
aF69.12637741855443
g27
S'2012-03-02 11:59:05'
p40
I35
F1804.9665214844765
F559.696817876116
tp41
a((lp42
(S'824'
p43
g38
F53.46023200211383
tp44
a(g38
S'824'
p45
F106.9204403928481
tp46
a(g45
S'1031'
p47
F464.2330654185904
tp48
a(g47
S'1232'
p49
F536.64824962327
tp50
a(g49
g25
F500.4166198457959
tp51
a(g25
S'1157'
p52
F164.71879650241303
tp53
aF6.9503495281459955
g40
S'2012-03-02 12:14:51'
p54
I37
F1826.397403785031
F521.7327084529287
tp55
a((lp56
(S'901'
p57
g52
F164.71978913128245
tp58
a(g52
S'901'
p59
F329.43858562166434
tp60
a(g59
g32
F500.4166198457959
tp61
a(g32
S'1151'
p62
F572.8013873462398
tp63
a(g62
g15
F499.30418929770127
tp64
a(g15
S'989'
p65
F19.27631891058684
tp66
aF41.48864532901533
g54
S'2012-03-02 12:17:52'
p67
I0
F2085.9568901532707
F1112.234342174711
tp68
a((lp69
(S'1036'
p70
g65
F767.5096951456161
tp71
a(g65
S'1115'
p72
F1111.3964106739522
tp73
a(g72
S'263'
p74
F236.21047824479376
tp75
aF63.45349752193086
g67
S'2012-03-02 12:19:52'
p76
I40
F2115.116584064362
F1405.2878236295498
tp77
a((lp78
(g2
g74
F236.21017858922806
tp79
a(g74
S'140'
p80
F435.87853113202175
tp81
a(g80
S'431'
p82
F334.7646258643055
tp83
a(g82
S'392'
p84
F457.83618440901
tp85
a(g84
S'270'
p86
F95.85961614434376
tp87
a(g86
S'433'
p88
F330.3168336032497
tp89
a(g88
S'372'
p90
F585.0976094380715
tp91
a(g90
S'97'
p92
F63.758701035611004
tp93
a(g92
S'413'
p94
F1079.6824743926077
tp95
a(g94
S'182'
p96
F501.6805211022033
tp97
a(g96
S'413'
p98
F66.70631289049224
tp99
aF3.0481297450392475
g76
S'2012-03-02 13:42:18'
p100
I42
F4187.791588601144
F4330.870084993822
tp101
a((lp102
(S'182'
p103
g98
F434.9742082123484
tp104
a(g98
S'333'
p105
F1407.7106325202305
tp106
a(g105
S'1'
p107
F975.8745201557714
tp108
a(g107
S'190'
p109
F133.23962227802784
tp110
a(g109
S'200'
p111
F65.9676834156334
tp112
a(g111
S'323'
p113
F319.0511671649834
tp114
aF50.05226750620493
g100
S'2012-03-02 13:46:18'
p115
I33
F3336.8178337469953
F2663.650107402338
tp116
a((lp117
(S'200'
p118
g113
F319.05474725281863
tp119
a(g113
S'371'
p120
F502.52151206068487
tp121
a(g120
S'1158'
p122
F343.4160234801613
tp123
a(g122
S'233'
p124
F505.9919712639641
tp125
a(g124
S'324'
p126
F522.2079091612247
tp127
a(g126
S'12'
p128
F348.33486400960794
tp129
a(g128
S'307'
p130
F336.87317808984017
tp131
a(g130
S'101'
p132
F281.5779074969673
tp133
aF94.79934338445808
g115
S'2012-03-02 13:48:18'
p134
I74
F3159.978112815269
F2114.1056888496796
tp135
a((lp136
(S'307'
p137
g132
F234.79627057180056
tp138
a(g132
S'307'
p139
F516.3741780275716
tp140
a(g139
S'12'
p141
F336.87317808984017
tp142
a(g141
S'324'
p143
F348.33486400960794
tp144
a(g143
S'233'
p145
F522.2079091612247
tp146
a(g145
S'1158'
p147
F505.9919712639641
tp148
a(g147
S'371'
p149
F343.4160234801613
tp150
a(g149
S'323'
p151
F502.52151206068487
tp152
a(g151
S'195'
p153
F899.3736486026992
tp154
a(g153
S'160'
p155
F1654.504702992569
tp156
a(g155
S'206'
p157
F1488.9908982048485
tp158
aF441.20310938789834
g134
S'2012-03-02 13:49:18'
p159
I68
F7353.385156464972
F1001.8901934998125
tp160
a((lp161
(S'160'
p162
g157
F1488.9430066769257
tp163
a(g157
S'160'
p164
F30.21293095859572
tp165
aF20.87389837972472
g159
S'2012-03-02 13:53:40'
p166
I59
F1519.1559376355215
F3023.7424540759157
tp167
a((lp168
(S'206'
p169
g164
F2947.720966295845
tp170
a(g164
g157
F2977.933896935319
tp171
a(g157
S'79'
p172
F340.8639244928786
tp173
a(g172
S'206'
p174
F170.43183683220096
tp175
aF117.0354659010226
g166
S'2012-03-02 13:56:58'
p176
I0
F6436.950624556243
F362.6163074198968
tp177
a((lp178
(S'79'
p179
g174
F170.43208766457536
tp180
a(g174
g172
F340.8639244928786
tp181
a(g172
S'171'
p182
F258.8430387665728
tp183
a(g182
S'311'
p184
F197.878605692179
tp185
a(g184
S'89'
p186
F403.9643242216588
tp187
a(g186
S'456'
p188
F56.98169982895155
tp189
aF643.0336563000673
g176
S'2012-03-02 13:57:06'
p190
I0
F1428.9636806668161
F2.5355256316814216
tp191
a((lp192
(S'89'
p193
g188
F56.98166293857569
tp194
a(g188
S'444'
p195
F385.4940571839216
tp196
a(g195
S'311'
p197
F119.87242291813655
tp198
a(g197
S'171'
p199
F197.878605692179
tp200
a(g199
S'34'
p201
F361.50220986718784
tp202
a(g201
S'171'
p203
F180.75063383732103
tp204
aF26.049591848746438
g190
S'2012-03-02 14:00:06'
p205
I0
F1302.4795924373218
F12.225229763432797
tp206
a((lp207
(S'34'
p208
g203
F180.75157604473165
tp209
a(g203
g184
F197.878605692179
tp210
a(g184
S'444'
p211
F119.87242291813655
tp212
a(g211
S'249'
p213
F96.00573607149724
tp214
aF11.95659232746123
g205
S'2012-03-02 14:03:05'
p215
I0
F594.5083407265445
F1.9792696934698428
tp216
a((lp217
(S'444'
p218
g213
F96.00552980822815
tp219
a(g213
S'444'
p220
F192.01126587807087
tp221
a(g220
g197
F119.87242291813655
tp222
a(g197
g199
F197.878605692179
tp223
a(g199
S'79'
p224
F258.8430387665728
tp225
a(g224
g174
F170.43183683220096
tp226
aF62.10256199372331
g215
S'2012-03-02 14:04:05'
p227
I0
F1035.0426998953885
F7.4286647264800365
tp228
a((lp229
(g179
g174
F170.43208766457536
tp230
a(g174
g172
F340.8639244928786
tp231
a(g172
g182
F258.8430387665728
tp232
a(g182
g224
F129.42135191882286
tp233
aF104.46507903981481
g227
S'2012-03-02 14:04:36'
p234
I3
F899.5604028428497
F24.906287518731403
tp235
a((lp236
(S'171'
p237
g224
F129.42168685143156
tp238
a(g224
g182
F258.8430387665728
tp239
a(g182
g184
F197.878605692179
tp240
a(g184
g211
F119.87242291813655
tp241
a(g211
g213
F192.01126587807087
tp242
a(g213
g220
F96.00552980822815
tp243
aF275.27055228404834
g234
S'2012-03-02 14:04:49'
p244
I9
F994.0325499146189
F10.202548633131649
tp245
a((lp246
(S'249'
p247
g220
F96.00573607149724
tp248
a(g220
g197
F119.87242291813655
tp249
a(g197
g199
F197.878605692179
tp250
a(g199
g224
F47.14161336683619
tp251
aF118.51672578393831
g244
S'2012-03-02 14:05:03'
p252
I0
F460.89837804864896
F61.53315991853078
tp253
a((lp254
(g237
g224
F211.70142540179103
tp255
a(g224
g182
F258.8430387665728
tp256
a(g182
g184
F197.878605692179
tp257
a(g184
g199
F98.93919842237376
tp258
aF30.694490731316666
g252
S'2012-03-02 14:06:33'
p259
I35
F767.3622682829167
F165.26919365520698
tp260
a((lp261
(S'311'
p262
g199
F98.93940727154423
tp263
a(g199
g224
F258.8430387665728
tp264
a(g224
g174
F340.8639244928786
tp265
a(g174
g172
F170.43208766457536
tp266
aF78.2170612376014
g259
S'2012-03-02 14:07:13'
p267
I5
F869.0784581955711
F172.41298842791667
tp268
a((lp269
(g169
g172
F170.43183683220096
tp270
a(g172
g182
F258.8430387665728
tp271
a(g182
g184
F197.878605692179
tp272
a(g184
g186
F403.9643242216588
tp273
a(g186
S'120'
p274
F116.73392841740345
tp275
aF196.77458295943114
g267
S'2012-03-02 14:07:34'
p276
I0
F1147.851733930015
F66.7768190683927
tp277
a((lp278
(g193
g274
F116.73438435055078
tp279
a(g274
S'62'
p280
F311.3022233380913
tp281
a(g280
S'328'
p282
F304.77298423724176
tp283
a(g282
S'76'
p284
F282.2760735785921
tp285
aF60.90513993026855
g276
S'2012-03-02 14:08:34'
p286
I35
F1015.0856655044759
F462.5922807118088
tp287
a((lp288
(S'328'
p289
g284
F282.2750062385018
tp290
a(g284
S'328'
p291
F564.5510797903912
tp292
a(g291
S'62'
p293
F304.77298423724176
tp294
a(g293
S'120'
p295
F12.973597293556542
tp296
aF1048.1154008037222
g286
S'2012-03-02 14:08:38'
p297
I0
F1164.5726675596914
F0.989634847088583
tp298
a((lp299
(S'62'
p300
g295
F298.3286260446691
tp301
a(g295
g280
F311.3022233380913
tp302
a(g280
g282
F304.77298423724176
tp303
a(g282
S'196'
p304
F104.36427714974283
tp305
aF135.83574810263266
g297
S'2012-03-02 14:09:05'
p306
I0
F1018.768110769745
F61.243872982278894
tp307
a((lp308
(g289
g304
F104.36453134539046
tp309
a(g304
S'220'
p310
F611.7560822228065
tp311
a(g310
S'359'
p312
F423.40012907983873
tp313
a(g312
S'400'
p314
F368.9484986175782
tp315
a(g314
S'40'
p316
F175.03635260490466
tp317
a(g316
S'348'
p318
F401.59962843252373
tp319
a(g318
S'160'
p320
F749.9190888032648
tp321
a(g320
S'195'
p322
F1654.504702992569
tp323
a(g322
S'323'
p324
F899.3736486026992
tp325
a(g324
S'200'
p326
F638.105914332198
tp327
a(g326
S'190'
p328
F65.9676834156334
tp329
a(g328
g107
F133.23962227802784
tp330
a(g107
S'392'
p331
F1075.0148639845097
tp332
a(g331
g86
F95.85961614434376
tp333
a(g86
S'365'
p334
F683.1267423951847
tp335
aF80.80217105251474
g306
S'2012-03-02 14:15:05'
p336
I35
F8080.217105251473
F5828.435837222213
tp337
a((lp338
(S'270'
p339
g334
F683.1318240690184
tp340
a(g334
S'378'
p341
F200.2245040941856
tp342
a(g341
S'399'
p343
F8.778825909137257
tp344
a(g343
S'207'
p345
F339.1381059073621
tp346
a(g345
S'273'
p347
F165.50667281932581
tp348
a(g347
S'140'
p349
F886.6856976038888
tp350
a(g349
S'263'
p351
F435.87853113202175
tp352
a(g351
S'1115'
p353
F472.4206568274532
tp354
a(g353
g3
F334.69367262130277
tp355
aF52.89687736475544
g336
S'2012-03-02 14:19:05'
p356
I42
F3526.458490983696
F1829.5049345257573
tp357
a((lp358
(g2
g3
F776.7027380597931
tp359
a(g3
g5
F786.7860140536283
tp360
a(g5
g13
F499.30418929770127
tp361
a(g13
g23
F286.4005288174328
tp362
aF34.66023152796229
g356
S'2012-03-02 14:23:09'
p363
I18
F2349.1934702285553
F2058.1663392974906
tp364
a((lp365
(g20
g20
F0.0
tp366
aF10.961594310153231
g363
S'2012-03-02 14:24:09'
p367
I18
F182.69323850255384
F477.8646181441775
tp368
a((lp369
(g20
g23
F103.70762003606248
tp370
a(g23
g34
F536.64824962327
tp371
a(g34
g36
F232.11631470971224
tp372
aF52.348331062142684
g367
S'2012-03-02 14:25:09'
p373
I33
F872.4721843690447
F397.70682334002197
tp374
a((lp375
(S'1031'
p376
g36
F232.11675073755046
tp377
a(g36
S'1159'
p378
F590.0411371143654
tp379
a(g378
S'763'
p380
F12.65872730361995
tp381
a(g380
S'793'
p382
F807.7571788598872
tp383
a(g382
S'926'
p384
F76.72477049954665
tp385
aF7.281735096769283
g373
S'2012-03-02 14:39:19'
p386
I53
F1719.2985645149695
F1238.5451413911937
tp387
a((lp388
(S'793'
p389
g384
F76.72492873221454
tp390
a(g384
S'793'
p391
F153.4496992306447
tp392
a(g391
S'763'
p393
F168.2026500896822
tp394
aF11.473265607913193
g386
S'2012-03-02 14:41:24'
p395
I0
F398.37727805254144
F1.4962204993935437
tp396
a((lp397
(g389
g393
F639.5545287754081
tp398
a(g393
g382
F807.7571788598872
tp399
a(g382
S'1187'
p400
F468.48165881871523
tp401
aF22.989520397448125
g395
S'2012-03-02 14:46:24'
p402
I0
F1915.7933664540105
F4.248743939977532
tp403
a((lp404
(g389
g400
F468.4818267608985
tp405
a(g400
S'933'
p406
F62.361946624317454
tp407
a(g406
S'1152'
p408
F252.16482039578787
tp409
a(g408
S'926'
p410
F650.4667330892765
tp411
a(g410
g391
F76.72492873221454
tp412
aF90.6120153361497
g402
S'2012-03-02 14:47:24'
p413
I0
F1510.200255602495
F2.086246801842714
tp414
a((lp415
(S'926'
p416
g416
F0.0
tp417
aF0.0
g413
S'2012-03-02 14:50:24'
p418
I0
F0.0
F11.608750341192575
tp419
a((lp420
(g416
g391
F76.72477049954665
tp421
a(g391
g393
F186.87785951454416
tp422
aF5.242925237849319
g418
S'2012-03-02 14:53:25'
p423
I0
F263.6026300140908
F7.2527428227277335
tp424
a((lp425
(g389
g393
F620.879319350957
tp426
a(g393
g382
F807.7571788598872
tp427
a(g382
g400
F468.48165881871523
tp428
aF56.91354471088678
g423
S'2012-03-02 14:55:25'
p429
I0
F1897.1181570295594
F11.984464882792757
tp430
a((lp431
(g389
g400
F468.4818267608985
tp432
a(g400
S'793'
p433
F936.9634855721417
tp434
a(g433
g393
F176.97403852738398
tp435
aF23.736290262906362
g429
S'2012-03-02 14:59:25'
p436
I0
F1582.4193508604242
F3.2179063910938925
tp437
a((lp438
(g389
g393
F630.7831403379034
tp439
a(g393
g382
F807.7571788598872
tp440
a(g382
g384
F153.4496992306447
tp441
a(g384
g391
F76.72492873221454
tp442
aF50.061448414819495
g436
S'2012-03-02 15:01:25'
p443
I0
F1668.7149471606497
F1.3017853812197313
tp444
a((lp445
(g416
g391
F76.72477049954665
tp446
a(g391
g393
F173.89221432211866
tp447
aF7.518509544649959
g443
S'2012-03-02 15:03:25'
p448
I0
F250.6169848216653
F2.41487035162799
tp449
a((lp450
(g389
g393
F633.8649645431004
tp451
a(g393
g382
F807.7571788598872
tp452
a(g382
g384
F153.4496992306447
tp453
a(g384
g391
F76.72492873221454
tp454
aF100.3078062819508
g448
S'2012-03-02 15:04:25'
p455
I0
F1671.7967713658468
F2.7940649034937537
tp456
a((lp457
(g416
g391
F76.72477049954665
tp458
a(g391
g393
F176.61696268116825
tp459
aF3.030000795516856
g455
S'2012-03-02 15:09:26'
p460
I0
F253.3417331807149
F14.669284791521612
tp461
a((lp462
(g389
g393
F631.1402161841113
tp463
a(g393
g382
F807.7571788598872
tp464
a(g382
g400
F468.48165881871523
tp465
aF36.91701394572995
g460
S'2012-03-02 15:12:32'
p466
I0
F1907.3790538627138
F12.127533429858644
tp467
a((lp468
(g389
g400
F468.4818267608985
tp469
a(g400
g406
F62.361946624317454
tp470
a(g406
g408
F252.16482039578787
tp471
a(g408
g410
F650.4667330892765
tp472
a(g410
g391
F76.72492873221454
tp473
aF22.28164311544665
g466
S'2012-03-02 15:16:36'
p474
I0
F1510.200255602495
F26.801113165838025
tp475
a((lp476
(g416
g391
F76.72477049954665
tp477
a(g391
g384
F76.72477049954665
tp478
aF2.254768765700963
g474
S'2012-03-02 15:20:41'
p479
I0
F153.4495409990933
F10.132770033377193
tp480
a((lp481
(g389
g384
F76.72492873221454
tp482
a(g384
g391
F153.4496992306447
tp483
a(g391
g393
F185.47454434488097
tp484
aF4.987790067692883
g479
S'2012-03-02 15:25:41'
p485
I0
F415.6491723077402
F8.895594131371753
tp486
a((lp487
(g389
g393
F622.2826345205904
tp488
a(g393
g382
F807.7571788598872
tp489
a(g382
g384
F153.4496992306447
tp490
a(g384
g391
F76.72492873221454
tp491
aF49.80643324030011
g485
S'2012-03-02 15:27:41'
p492
I0
F1660.2144413433368
F14.956427400136555
tp493
a((lp494
(g416
g391
F76.72477049954665
tp495
a(g391
g393
F177.7937916391052
tp496
aF7.5724530884227
g492
S'2012-03-02 15:29:42'
p497
I0
F254.51856213865184
F8.031275297505646
tp498
a((lp499
(g389
g393
F629.9633872262002
tp500
a(g393
g382
F807.7571788598872
tp501
a(g382
g384
F76.72477049954665
tp502
aF90.86672019513804
g497
S'2012-03-02 15:30:42'
p503
I0
F1514.4453365856339
F3.7163095579911674
tp504
a((lp505
(g389
g384
F76.72492873221454
tp506
a(g384
g391
F76.72492873221454
tp507
aF4.6034957239328715
g503
S'2012-03-02 15:32:42'
p508
I0
F153.44985746442907
F4.447797065685877
tp509
a((lp510
(g416
g416
F0.0
tp511
aF0.0
g508
S'2012-03-02 15:34:42'
p512
I0
F0.0
F7.718174981649247
tp513
a((lp514
(g416
g391
F76.72477049954665
tp515
a(g391
S'893'
p516
F548.5613550549398
tp517
aF37.51716753326919
g512
S'2012-03-02 15:35:42'
p518
I0
F625.2861255544865
F8.030752406686831
tp519
a((lp520
(g389
g516
F548.5646442157064
tp521
a(g516
S'793'
p522
F1097.125998890301
tp523
a(g522
g400
F468.48165881871523
tp524
aF42.28344603849446
g518
S'2012-03-02 15:38:42'
p525
I0
F2114.172301924723
F10.67866801633392
tp526
a((lp527
(g389
g400
F468.4818267608985
tp528
a(g400
g433
F936.9634855721417
tp529
a(g433
g384
F76.72477049954665
tp530
aF44.09762229915134
g525
S'2012-03-02 15:40:43'
p531
I0
F1482.1700828325868
F5.931791494077916
tp532
a((lp533
(g389
g389
F0.0
tp534
aF0.0
g531
S'2012-03-02 15:41:43'
p535
I0
F0.0
F0.0
tp536
a((lp537
(g389
g389
F0.0
tp538
aF0.0
g535
S'2012-03-02 15:42:43'
p539
I0
F0.0
F0.0
tp540
a((lp541
(g389
g389
F0.0
tp542
aF0.0
g539
S'2012-03-02 15:43:43'
p543
I0
F0.0
F0.0
tp544
a((lp545
(g389
g389
F0.0
tp546
aF0.0
g543
S'2012-03-02 15:44:43'
p547
I0
F0.0
F0.0
tp548
a((lp549
(g389
g389
F0.0
tp550
aF0.0
g547
S'2012-03-02 15:46:43'
p551
I0
F0.0
F0.0
tp552
a((lp553
(g389
g389
F0.0
tp554
aF0.0
g551
S'2012-03-02 15:48:17'
p555
I0
F0.0
F0.0
tp556
a((lp557
(g389
g389
F0.0
tp558
aF0.0
g555
S'2012-03-02 15:48:18'
p559
I0
F0.0
F0.0
tp560
a((lp561
(g389
g389
F0.0
tp562
aF0.0
g559
S'2012-03-02 15:48:19'
p563
I0
F0.0
F0.0
tp564
a((lp565
(g389
g389
F0.0
tp566
aF0.0
g563
S'2012-03-02 15:49:19'
p567
I0
F0.0
F0.0
tp568
a((lp569
(g389
g389
F0.0
tp570
aF0.0
g567
S'2012-03-02 15:49:33'
p571
I0
F0.0
F0.0
tp572
a((lp573
(g389
g389
F0.0
tp574
aF0.0
g571
S'2012-03-02 15:51:33'
p575
I0
F0.0
F0.0
tp576
a.