(lp0
((lp1
(S'809'
p2
S'900'
p3
F337.39539286240483
tp4
a(g3
S'967'
p5
F217.51739317672622
tp6
a(g5
S'1127'
p7
F190.65766483400054
tp8
a(g7
S'988'
p9
F152.49726409143645
tp10
a(g9
S'777'
p11
F428.69502991180303
tp12
a(g11
S'903'
p13
F350.9006773558848
tp14
a(g13
S'1158'
p15
F155.88312923992214
tp16
aF55.00639654416533
S'2012-03-02 10:06:22'
p17
S'2012-03-02 10:08:22'
p18
I64
F1833.5465514721777
F1597.6390382436791
tp19
a((lp20
(S'903'
p21
g15
F3330.1336335672263
tp22
a(g15
S'371'
p23
F343.4160234801613
tp24
a(g23
S'414'
p25
F739.6760747221767
tp26
a(g25
S'929'
p27
F303.12038890948725
tp28
a(g27
S'842'
p29
F138.91582185729666
tp30
a(g29
S'1027'
p31
F108.42347341772006
tp32
a(g31
S'887'
p33
F974.3320508593303
tp34
a(g33
S'1189'
p35
F211.8840444636607
tp36
a(g35
S'987'
p37
F541.0596802687863
tp38
a(g37
S'1073'
p39
F585.3164976896943
tp40
a(g39
S'987'
p41
F464.09763861576766
tp42
aF464.4225196710785
g18
S'2012-03-02 10:09:22'
p43
I81
F7740.375327851307
F1236.2404153191023
tp44
a((lp45
(S'1073'
p46
g41
F121.2188590816174
tp47
a(g41
S'1189'
p48
F541.0596802687863
tp49
a(g48
S'887'
p50
F211.8840444636607
tp51
a(g50
S'1027'
p52
F974.3320508593303
tp53
a(g52
S'842'
p54
F54.21176934563721
tp55
aF114.16238424114194
g43
S'2012-03-02 10:10:22'
p56
I79
F1902.706404019032
F1377.7709573815023
tp57
a((lp58
(S'1027'
p59
g54
F54.21170407237851
tp60
a(g54
S'929'
p61
F138.91582185729666
tp62
a(g61
S'414'
p63
F303.12038890948725
tp64
a(g63
S'203'
p65
F80.50029912988917
tp66
aF34.604892838143094
g56
S'2012-03-02 10:11:22'
p67
I81
F576.7482139690516
F1091.0489727770023
tp68
a((lp69
(S'414'
p70
g65
F30.0589559031892
tp71
a(g65
S'431'
p72
F369.98613606887915
tp73
a(g72
S'392'
p74
F43.10374714041017
tp75
aF26.58893034674871
g67
S'2012-03-02 10:12:22'
p76
I11
F443.1488391124785
F447.2371850718758
tp77
a((lp78
(S'431'
p79
g74
F414.7324372772525
tp80
a(g74
S'270'
p81
F95.85961614434376
tp82
a(g81
S'433'
p83
F330.3168336032497
tp84
a(g83
S'270'
p85
F217.71791711698023
tp86
aF3.257313243513311
g76
S'2012-03-02 10:31:52'
p87
I35
F1058.6268041418261
F613.2965174418937
tp88
a((lp89
(S'433'
p90
g85
F112.59891648777317
tp91
a(g85
S'392'
p92
F95.85961614434376
tp93
a(g92
S'1'
p94
F1075.0148639845097
tp95
a(g94
S'190'
p96
F133.23962227802784
tp97
a(g96
S'200'
p98
F65.9676834156334
tp99
a(g98
S'323'
p100
F188.36113199814346
tp101
aF50.13125502925294
g87
S'2012-03-02 10:33:52'
p102
I66
F1671.0418343084314
F1436.1452642554732
tp103
a((lp104
(S'200'
p105
g100
F449.7447824052456
tp106
a(g100
S'200'
p107
F336.1894851727491
tp108
aF52.39561783853298
g102
S'2012-03-02 10:34:46'
p109
I37
F785.9342675779947
F188.494019835262
tp110
a((lp111
(S'323'
p112
g107
F301.91642924475536
tp113
a(g107
S'190'
p114
F65.9676834156334
tp115
a(g114
g94
F133.23962227802784
tp116
a(g94
S'392'
p117
F537.506149808377
tp118
aF38.94862067800476
g109
S'2012-03-02 10:36:22'
p119
I0
F1038.6298847467936
F206.19921538420235
tp120
a((lp121
(g94
g117
F537.5087145337885
tp122
a(g117
g94
F1075.0148639845097
tp123
a(g94
g96
F133.23962227802784
tp124
a(g96
g98
F65.9676834156334
tp125
a(g98
g114
F32.98384518829947
tp126
aF184.4714729400259
g119
S'2012-03-02 10:36:58'
p127
I0
F1844.714729400259
F35.278462301416134
tp128
a((lp129
(g105
g114
F32.983838227355115
tp130
a(g114
g94
F133.23962227802784
tp131
a(g94
g117
F431.16697956008557
tp132
aF35.84342640392811
g127
S'2012-03-02 10:37:58'
p133
I22
F597.3904400654685
F659.2898169345669
tp134
a((lp135
(g94
g117
F643.8478847680739
tp136
a(g117
g81
F95.85961614434376
tp137
a(g81
g83
F330.3168336032497
tp138
a(g83
S'60'
p139
F681.541364054803
tp140
aF128.6864594868101
g133
S'2012-03-02 10:38:47'
p141
I46
F1751.5656985704704
F587.7581178756338
tp142
a((lp143
(g90
g139
F681.524700982925
tp144
a(g139
S'217'
p145
F418.4718473592037
tp146
a(g145
S'61'
p147
F293.68698303844315
tp148
a(g147
S'109'
p149
F1259.0128511190717
tp150
a(g149
S'365'
p151
F56.87057657354549
tp152
a(g151
S'378'
p153
F200.2245040941856
tp154
a(g153
S'399'
p155
F8.778825909137257
tp156
a(g155
S'4'
p157
F149.94959264284023
tp158
a(g157
S'379'
p159
F137.96900101176072
tp160
a(g159
S'784'
p161
F555.0586733771449
tp162
a(g161
S'1021'
p163
F127.65023940042988
tp164
a(g163
S'752'
p165
F159.30150797020588
tp166
a(g165
S'1065'
p167
F13.740579799559285
tp168
a(g167
S'779'
p169
F190.2838925578451
tp170
a(g169
S'950'
p171
F193.09488106818492
tp172
a(g171
S'1110'
p173
F140.3777725477197
tp174
a(g173
S'944'
p175
F98.94927493384672
tp176
a(g175
S'866'
p177
F253.26079954334074
tp178
a(g177
S'1005'
p179
F46.974657586797015
tp180
a(g179
S'836'
p181
F57.89108437395274
tp182
a(g181
S'1126'
p183
F135.33815531923997
tp184
a(g183
S'1052'
p185
F24.243898184724415
tp186
a(g185
S'757'
p187
F64.17308817520268
tp188
a(g187
S'1156'
p189
F180.7528324280527
tp190
a(g189
S'761'
p191
F230.5019342328771
tp192
a(g191
S'1035'
p193
F250.99979661307464
tp194
a(g193
S'1134'
p195
F205.6372669879012
tp196
a(g195
S'1055'
p197
F108.10349436699097
tp198
a(g197
S'910'
p199
F86.53522993240091
tp200
a(g199
S'828'
p201
F133.26943002905048
tp202
a(g201
S'1026'
p203
F38.614359926515476
tp204
a(g203
S'841'
p205
F626.7879620953058
tp206
a(g205
S'1174'
p207
F184.86381936710976
tp208
a(g207
S'824'
p209
F106.9204403928481
tp210
a(g209
S'1159'
p211
F590.0411371143654
tp212
a(g211
S'763'
p213
F12.65872730361995
tp214
a(g213
S'793'
p215
F807.7571788598872
tp216
a(g215
S'1187'
p217
F936.9634855721417
tp218
a(g217
S'1164'
p219
F539.6604647224013
tp220
a(g219
S'1141'
p221
F317.58215417110415
tp222
a(g221
S'918'
p223
F166.96268838258965
tp224
aF5.814875504302225
g141
S'2012-03-02 12:30:08'
p225
I0
F10791.439790067545
F7463.244347248132
tp226
a((lp227
(S'1141'
p228
g223
F166.96232434940242
tp229
a(g223
S'1141'
p230
F333.92501272121706
tp231
a(g230
S'821'
p232
F272.9196924326181
tp233
a(g232
S'960'
p234
F300.73395278664674
tp235
a(g234
S'1133'
p236
F313.9016806177561
tp237
a(g236
S'1177'
p238
F544.2648983785294
tp239
a(g238
S'969'
p240
F848.8710851126325
tp241
a(g240
S'884'
p242
F285.86287869163914
tp243
aF78.87706778803992
g225
S'2012-03-02 12:32:28'
p244
I0
F3067.4415250904417
F1455.4742720631932
tp245
a((lp246
(S'969'
p247
g242
F285.8630809492558
tp248
a(g242
S'969'
p249
F571.7259596354602
tp250
a(g249
S'1177'
p251
F848.8710851126325
tp252
a(g251
S'1133'
p253
F544.2648983785294
tp254
a(g253
S'960'
p255
F313.9016806177561
tp256
a(g255
S'821'
p257
F150.3669868853373
tp258
aF32.798581509007704
g244
S'2012-03-02 12:37:26'
p259
I40
F2714.993691578971
F846.133138466771
tp260
a((lp261
(S'960'
p262
g257
F150.36696590160864
tp263
a(g257
S'1141'
p264
F199.947735525573
tp265
aF10.778913890067127
g259
S'2012-03-02 12:39:23'
p266
I64
F350.3147014271816
F648.5325619300311
tp267
a.