(lp0
((lp1
(S'887'
p2
S'1189'
p3
F105.94205205410044
tp4
a(g3
S'987'
p5
F541.0596802687863
tp6
a(g5
S'1073'
p7
F585.3164976896943
tp8
a(g7
S'1185'
p9
F401.933419412357
tp10
a(g9
S'777'
p11
F232.78220771594508
tp12
aF112.022031428453
S'2012-03-02 07:43:53'
p13
S'2012-03-02 07:44:53'
p14
I57
F1867.0338571408834
F917.8942815363894
tp15
a((lp16
(S'1185'
p17
g17
F0.0
tp18
aF0.0
g14
S'2012-03-02 07:45:53'
p19
I55
F0.0
F921.0345851523382
tp20
a((lp21
(g17
g11
F232.78232429736136
tp22
a(g11
S'988'
p23
F428.69502991180303
tp24
a(g23
S'1127'
p25
F152.49726409143645
tp26
a(g25
S'967'
p27
F190.65766483400054
tp28
a(g27
S'900'
p29
F44.13007772565821
tp30
aF62.92574165161558
g19
S'2012-03-02 07:46:53'
p31
I44
F1048.7623608602596
F785.0736214821325
tp32
a((lp33
(S'967'
p34
g29
F173.38731545129585
tp35
a(g29
S'809'
p36
F674.794246559625
tp37
a(g36
S'1114'
p38
F639.1126192225747
tp39
a(g38
S'993'
p40
F865.1525280555261
tp41
a(g40
S'843'
p42
F298.54352314033923
tp43
a(g42
S'932'
p44
F496.3588671175418
tp45
a(g44
S'960'
p46
F325.1238765614434
tp47
a(g46
S'1133'
p48
F313.9016806177561
tp49
a(g48
S'1177'
p50
F272.1323385959024
tp51
aF1.6718875366928958
g31
S'2012-03-02 10:12:32'
p52
I37
F4058.5069953220045
F2652.8518496302945
tp53
a((lp54
(S'1133'
p55
g50
F272.1325597882723
tp56
a(g50
S'969'
p57
F424.4349870184419
tp58
aF41.79405280840286
g52
S'2012-03-02 10:13:32'
p59
I22
F696.5675468067143
F846.9677430842238
tp60
a((lp61
(S'1177'
p62
g57
F424.43609813764004
tp63
a(g57
S'1177'
p64
F848.8710851126325
tp65
a(g64
S'1133'
p66
F544.2648983785294
tp67
a(g66
S'960'
p68
F313.9016806177561
tp69
a(g68
S'932'
p70
F325.1238765614434
tp71
a(g70
S'843'
p72
F496.3588671175418
tp73
a(g72
S'993'
p74
F298.54352314033923
tp75
a(g74
S'1114'
p76
F865.1525280555261
tp77
a(g76
S'809'
p78
F639.1126192225747
tp79
a(g78
S'900'
p80
F65.53393446862552
tp81
aF6.297778228927936
g59
S'2012-03-02 10:59:28'
p82
I27
F4821.299110812609
F2748.6330686244673
tp83
a((lp84
(S'809'
p85
g80
F609.260312125234
tp86
a(g80
S'967'
p87
F217.51739317672622
tp88
a(g87
S'1154'
p89
F633.0663908294133
tp90
a(g89
S'873'
p91
F210.50377202920131
tp92
aF100.22087208963451
g82
S'2012-03-02 11:00:28'
p93
I64
F1670.347868160575
F1317.552612854093
tp94
a((lp95
(S'1154'
p96
g91
F449.16042608280657
tp97
a(g91
S'1292'
p98
F5581.023855259741
tp99
a(g98
S'1286'
p100
F873.144134384409
tp101
a(g100
S'1353'
p102
F8.843807372782203
tp103
aF65.14089006062581
g93
S'2012-03-02 11:06:50'
p104
I74
F6912.172223099738
F6896.689406150032
tp105
a((lp106
(S'1286'
p107
g102
F1453.0422048630633
tp108
a(g102
S'1297'
p109
F33.542022020112384
tp110
aF41.48607144790258
g104
S'2012-03-02 11:08:59'
p111
I33
F1486.5842268831757
F1486.2032240699814
tp112
a((lp113
(S'1353'
p114
g109
F874.1124308193394
tp115
a(g109
S'1351'
p116
F326.64672554471304
tp117
a(g116
S'1270'
p118
F330.17983628418483
tp119
a(g118
S'1266'
p120
F236.93671835949746
tp121
aF111.6553080636464
g111
S'2012-03-02 11:09:56'
p122
I38
F1767.8757110077347
F843.8717924124425
tp123
a((lp124
(S'1270'
p125
g120
F236.93728918779274
tp126
a(g120
S'1270'
p127
F473.87400753510224
tp128
a(g127
S'1351'
p129
F165.08997562579174
tp130
aF75.07725191560172
g122
S'2012-03-02 11:10:38'
p131
I0
F875.9012723486867
F77.88800972449442
tp132
a((lp133
(g125
g129
F165.0898606686419
tp134
a(g129
S'1297'
p135
F326.64672554471304
tp136
a(g135
S'1280'
p137
F330.23392593544827
tp138
a(g137
S'1245'
p139
F291.41203018864644
tp140
a(g139
S'1365'
p141
F280.5900662861954
tp142
a(g141
S'1398'
p143
F320.68857719991286
tp144
a(g143
S'1342'
p145
F1059.2368121083193
tp146
a(g145
S'1285'
p147
F56.72886325840379
tp148
aF72.27132411549653
g131
S'2012-03-02 11:12:59'
p149
I42
F2830.6268611902806
F1561.7535586520232
tp150
a((lp151
(S'1342'
p152
g147
F532.4167084865909
tp153
a(g147
S'1342'
p154
F589.1455717449389
tp155
a(g154
S'1323'
p156
F9.630796578940028
tp157
aF84.83948076078524
g149
S'2012-03-02 11:13:47'
p158
I0
F1131.1930768104698
F66.40843472672562
tp159
a((lp160
(g152
g156
F1204.5078074499709
tp161
a(g156
S'1321'
p162
F364.7007299896373
tp163
aF94.15251224637649
g158
S'2012-03-02 11:14:47'
p164
I37
F1569.208537439608
F1106.5440730667494
tp165
a((lp166
(S'1323'
p167
g162
F364.7007289634263
tp168
a(g162
S'1323'
p169
F729.4014589530278
tp170
a(g169
S'1276'
p171
F931.5945861203788
tp172
a(g171
S'1340'
p173
F512.3031474615834
tp174
aF152.279995289905
g164
S'2012-03-02 11:15:47'
p175
I20
F2537.9999214984164
F542.4557759361752
tp176
a((lp177
(S'1276'
p178
g173
F512.3019882302882
tp179
a(g173
S'1364'
p180
F265.3108293877796
tp181
aF46.65676905708407
g175
S'2012-03-02 11:16:47'
p182
I66
F777.6128176180678
F1192.6392373407552
tp183
a((lp184
(S'1340'
p185
g180
F265.3104678829305
tp186
a(g180
S'1340'
p187
F530.6212972280467
tp188
a(g187
S'1244'
p189
F6.112986249953915
tp190
aF111.05235018843663
g182
S'2012-03-02 11:17:13'
p191
I77
F802.0447513609312
F162.3164411898356
tp192
a((lp193
(g185
g189
F428.13305703421554
tp194
a(g189
S'1340'
p195
F434.2460432841478
tp196
a(g195
g180
F18.524968101860566
tp197
aF158.56273231564032
g191
S'2012-03-02 11:17:33'
p198
I0
F880.9040684202239
F66.09173854598433
tp199
a((lp200
(g185
g180
F512.0963291317522
tp201
a(g180
S'1302'
p202
F167.11441244769938
tp203
a(g202
S'1375'
p204
F265.2152626843097
tp205
a(g204
S'1272'
p206
F218.26520770382325
tp207
a(g206
S'1368'
p208
F147.3421200313114
tp209
a(g208
S'1357'
p210
F667.1271214060235
tp211
a(g210
S'1287'
p212
F625.4200197928062
tp213
a(g212
S'1236'
p214
F500.94138389154773
tp215
a(g214
S'1267'
p216
F465.5891016569359
tp217
a(g216
S'1243'
p218
F285.58268750573745
tp219
a(g218
S'1312'
p220
F457.99147004036877
tp221
a(g220
S'1352'
p222
F293.5402480655337
tp223
a(g222
S'1304'
p224
F240.87510707242646
tp225
aF96.94200942860552
g198
S'2012-03-02 11:20:33'
p226
I35
F4847.100471430275
F2875.288033544658
tp227
a((lp228
(S'1352'
p229
g224
F65.47992089896316
tp230
a(g224
S'1331'
p231
F444.28111879952115
tp232
aF30.58566238190906
g226
S'2012-03-02 11:21:33'
p233
I37
F509.7610396984843
F510.03511603129425
tp234
a((lp235
(S'1304'
p236
g231
F66.1415062490025
tp237
a(g231
S'1301'
p238
F574.4945969471322
tp239
a(g238
S'1312'
p240
F298.40658492761906
tp241
a(g240
S'1243'
p242
F457.99147004036877
tp243
a(g242
S'1267'
p244
F285.58268750573745
tp245
a(g244
S'1236'
p246
F465.5891016569359
tp247
a(g246
S'1287'
p248
F500.94138389154773
tp249
a(g248
S'1357'
p250
F625.4200197928062
tp251
a(g250
S'1368'
p252
F667.1271214060235
tp253
a(g252
S'1272'
p254
F147.3421200313114
tp255
a(g254
S'1375'
p256
F218.26520770382325
tp257
a(g256
S'1387'
p258
F211.6127648904465
tp259
aF18.570881774148305
g233
S'2012-03-02 11:36:09'
p260
I9
F4518.9145650427545
F2575.0624835285907
tp261
a((lp262
(S'1375'
p263
g258
F293.520828149536
tp264
a(g258
S'1254'
p265
F220.6757111319676
tp266
a(g265
S'1392'
p267
F307.52959229763155
tp268
aF42.87266773456358
g260
S'2012-03-02 11:37:18'
p269
I0
F821.7261315791352
F26.247662640569082
tp270
a((lp271
(S'1254'
p272
g272
F0.0
tp273
aF0.0
g269
S'2012-03-02 11:38:52'
p274
I0
F0.0
F5.215558133708408
tp275
a((lp276
(g272
g267
F307.529040197698
tp277
a(g267
S'1287'
p278
F468.7311467128138
tp279
a(g278
g214
F500.94138389154773
tp280
a(g214
g216
F465.5891016569359
tp281
a(g216
g218
F285.58268750573745
tp282
a(g218
g220
F457.99147004036877
tp283
a(g220
g222
F146.7703490165185
tp284
aF52.66270358043241
g274
S'2012-03-02 11:41:52'
p285
I12
F2633.1351790216204
F2165.7484158062525
tp286
a((lp287
(S'1312'
p288
g222
F146.76989905658027
tp289
a(g222
S'1312'
p290
F293.5402480655337
tp291
a(g290
g242
F457.99147004036877
tp292
a(g242
g244
F285.58268750573745
tp293
a(g244
g246
F465.5891016569359
tp294
a(g246
g248
F250.46994789938404
tp295
aF19.431238850023707
g285
S'2012-03-02 11:47:44'
p296
I11
F1899.9433542245401
F1258.3534279447454
tp297
a((lp298
(S'1236'
p299
g248
F250.47143603035144
tp300
a(g248
S'1253'
p301
F215.9995211997082
tp302
a(g301
S'1379'
p303
F169.6879575593227
tp304
a(g303
S'1399'
p305
F365.18936542563927
tp306
a(g305
S'1366'
p307
F324.3045132503921
tp308
aF39.76958380396241
g296
S'2012-03-02 11:49:44'
p309
I75
F1325.6527934654137
F1205.4468941707594
tp310
a((lp311
(S'1399'
p312
g307
F71.51662460341751
tp313
a(g307
S'341'
p314
F435.96538015409175
tp315
a(g314
S'243'
p316
F638.123806512667
tp317
a(g316
S'8'
p318
F497.6064972180614
tp319
a(g318
S'216'
p320
F148.25333658911532
tp321
aF53.74396935232059
g309
S'2012-03-02 11:51:44'
p322
I64
F1791.465645077353
F1384.3741627356042
tp323
a((lp324
(g318
g320
F649.6726727085182
tp325
a(g320
S'258'
p326
F703.8007348693166
tp327
a(g326
S'186'
p328
F583.8097117600706
tp329
a(g328
S'376'
p330
F405.55725012392526
tp331
aF50.203722202753525
g322
S'2012-03-02 11:54:32'
p332
I51
F2342.840369461831
F1897.2770633569303
tp333
a((lp334
(S'186'
p335
g335
F0.0
tp336
aF77.36074377409699
g332
S'2012-03-02 11:54:50'
p337
I0
F386.80371887048494
F53.105018177305524
tp338
a((lp339
(g335
g330
F792.3639235507271
tp340
a(g330
S'75'
p341
F14.971540983835832
tp342
aF41.52010960463466
g337
S'2012-03-02 11:56:00'
p343
I33
F807.3354645345629
F807.665093013368
tp344
a((lp345
(S'376'
p346
g341
F622.005871515099
tp347
a(g341
S'158'
p348
F1096.7354764412723
tp349
a(g348
S'49'
p350
F12.415878852316974
tp351
aF70.82006836944635
g343
S'2012-03-02 11:57:28'
p352
I37
F1731.1572268086884
F1658.6473931551677
tp353
a((lp354
(S'158'
p355
g350
F573.5156816591208
tp356
a(g350
S'158'
p357
F585.9315605109871
tp358
a(g357
S'398'
p359
F4.040115364949926
tp360
aF322.19649900970836
g352
S'2012-03-02 11:57:41'
p361
I0
F1163.487357535058
F65.02222646788651
tp362
a((lp363
(g355
g355
F0.0
tp364
aF27.90561778950669
g361
S'2012-03-02 11:58:28'
p365
I35
F364.32334336300397
F364.46969117181635
tp366
a((lp367
(g355
g359
F612.1857471697945
tp368
a(g359
S'340'
p369
F1116.2253471445076
tp370
a(g369
S'235'
p371
F1103.42528522692
tp372
a(g371
S'406'
p373
F1280.716757645314
tp374
a(g373
S'37'
p375
F709.895434390015
tp376
a(g375
S'231'
p377
F1230.1532257749107
tp378
a(g377
S'101'
p379
F2128.2368240663845
tp380
a(g379
S'307'
p381
F516.3741780275716
tp382
a(g381
S'12'
p383
F336.87317808984017
tp384
a(g383
S'324'
p385
F348.33486400960794
tp386
a(g385
S'233'
p387
F522.2079091612247
tp388
a(g387
S'1158'
p389
F505.9919712639641
tp390
a(g389
S'371'
p391
F343.4160234801613
tp392
a(g391
S'323'
p393
F502.52151206068487
tp394
a(g393
S'195'
p395
F899.3736486026992
tp396
a(g395
S'160'
p397
F1654.504702992569
tp398
a(g397
S'206'
p399
F2977.933896935319
tp400
a(g399
S'79'
p401
F170.43208766457536
tp402
aF98.78914132255962
g365
S'2012-03-02 12:08:46'
p403
I46
F16958.802593706067
F4075.708809182979
tp404
a((lp405
(S'206'
p406
g401
F170.43183683220096
tp407
a(g401
S'171'
p408
F258.8430387665728
tp409
a(g408
S'311'
p410
F197.878605692179
tp411
a(g410
S'444'
p412
F119.87242291813655
tp413
a(g412
S'456'
p414
F192.7463729188325
tp415
aF15.103483025270174
g403
S'2012-03-02 12:12:30'
p416
I66
F939.7722771279218
F1478.9021389771654
tp417
a((lp418
(S'444'
p419
g414
F192.7476842841534
tp420
a(g414
S'85'
p421
F200.88497800248174
tp422
a(g421
S'291'
p423
F239.2848293153371
tp424
a(g423
S'143'
p425
F232.92968406904774
tp426
a(g425
S'225'
p427
F405.88848790171784
tp428
a(g427
S'46'
p429
F204.10192602860755
tp430
a(g429
S'107'
p431
F327.4845229639087
tp432
a(g431
S'131'
p433
F269.0371341692761
tp434
a(g433
S'465'
p435
F837.7247684747507
tp436
a(g435
S'222'
p437
F661.4755210137
tp438
a(g437
S'465'
p439
F480.57030676260933
tp440
aF60.52974039314576
g416
S'2012-03-02 12:16:31'
p441
I27
F4052.1298429855906
F2076.700479068757
tp442
a((lp443
(S'222'
p444
g439
F180.9052142635663
tp445
a(g439
S'312'
p446
F475.1534412115984
tp447
a(g446
S'27'
p448
F335.3367748423742
tp449
a(g448
S'107'
p450
F13.806709570012075
tp451
aF56.54262036867475
g441
S'2012-03-02 12:17:35'
p452
I18
F1005.2021398875511
F454.0723778252422
tp453
a((lp454
(S'27'
p455
g450
F1364.134765395645
tp456
a(g450
g433
F269.0371341692761
tp457
a(g433
g435
F837.7247684747507
tp458
a(g435
g446
F475.1534412115984
tp459
a(g446
g448
F27.109172027303952
tp460
aF563.335442768572
g452
S'2012-03-02 12:17:54'
p461
I0
F2973.1592812785743
F60.49853676509727
tp462
a((lp463
(S'312'
p464
g448
F308.22760281563495
tp465
a(g448
S'423'
p466
F360.14779166603097
tp467
a(g466
S'87'
p468
F723.5563566983903
tp469
a(g468
S'322'
p470
F661.5915995108642
tp471
a(g470
S'114'
p472
F293.16190634917444
tp473
a(g472
S'69'
p474
F277.18170658049786
tp475
a(g474
S'209'
p476
F560.4047888183237
tp477
a(g476
S'219'
p478
F348.12509298251837
tp479
a(g478
S'117'
p480
F219.5124180309608
tp481
aF49.657622604517
g461
S'2012-03-02 12:22:26'
p482
I37
F3751.9092634523954
F2789.0587736645352
tp483
a((lp484
(S'219'
p485
g480
F219.51103217178073
tp486
a(g480
S'97'
p487
F580.435699134164
tp488
aF137.13372536673336
g482
S'2012-03-02 12:22:47'
p489
I0
F799.9467313059447
F29.58035595054718
tp490
a((lp491
(S'117'
p492
g487
F580.4410190124515
tp493
a(g487
S'372'
p494
F63.758701035611004
tp495
a(g494
S'433'
p496
F585.0976094380715
tp497
a(g496
S'270'
p498
F330.3168336032497
tp499
a(g498
S'392'
p500
F95.85961614434376
tp501
a(g500
S'1'
p502
F1075.0148639845097
tp503
a(g502
S'392'
p504
F537.506149808377
tp505
aF196.0796875815969
g489
S'2012-03-02 12:23:47'
p506
I9
F3267.9947930266144
F785.6910461025645
tp507
a((lp508
(g502
g504
F537.5087145337885
tp509
a(g504
S'270'
p510
F95.85961614434376
tp511
a(g510
S'365'
p512
F683.1267423951847
tp513
aF78.989704384399
g506
S'2012-03-02 12:24:47'
p514
I11
F1316.495073073317
F867.0959568857294
tp515
a((lp516
(S'270'
p517
g512
F683.1318240690184
tp518
a(g512
S'270'
p519
F1366.258565726773
tp520
a(g519
g500
F95.85961614434376
tp521
a(g500
S'431'
p522
F457.83618440901
tp523
a(g522
S'140'
p524
F22.442769498714775
tp525
aF0.449790818285538
g514
S'2012-03-02 18:15:01'
p526
I90
F2625.52895984786
F471.1274886198055
tp527
a((lp528
(S'431'
p529
g524
F312.3218563683668
tp530
a(g524
S'431'
p531
F334.7646258643055
tp532
a(g531
S'392'
p533
F457.83618440901
tp534
a(g533
g522
F228.9174100664983
tp535
aF266.76801534163616
g526
S'2012-03-02 18:15:19'
p536
I0
F1333.8400767081807
F49.92984561954686
tp537
a((lp538
(S'392'
p539
g522
F228.91877436788937
tp540
a(g522
S'203'
p541
F369.98613606887915
tp542
a(g541
S'393'
p543
F126.8415116158981
tp544
a(g543
S'263'
p545
F125.95931540027142
tp546
aF11.838380906681763
g536
S'2012-03-02 18:19:38'
p547
I27
F851.705737452938
F436.43645269379994
tp548
a((lp549
(S'393'
p550
g545
F319.8391050607651
tp551
a(g545
S'1115'
p552
F472.4206568274532
tp553
a(g552
S'989'
p554
F555.6981253322997
tp555
aF80.87747323323109
g547
S'2012-03-02 18:20:38'
p556
I12
F1347.957887220518
F227.2559976658366
tp557
a((lp558
(S'1115'
p559
g554
F555.6982853501218
tp560
a(g554
S'1115'
p561
F1111.3964106739522
tp562
a(g561
S'263'
p563
F472.4206568274532
tp564
a(g563
S'393'
p565
F65.2102300661759
tp566
aF76.31742402407434
g556
S'2012-03-02 18:22:22'
p567
I12
F2204.725582917703
F325.8201126593637
tp568
a((lp569
(S'263'
p570
g565
F380.58819038683845
tp571
a(g565
g545
F445.7984204400668
tp572
a(g545
g552
F472.4206568274532
tp573
a(g552
g554
F47.907524516163946
tp574
aF89.78098614470149
g567
S'2012-03-02 18:23:16'
p575
I0
F1346.7147921705223
F77.53210392576914
tp576
a((lp577
(g559
g554
F1063.4888861591999
tp578
a(g554
S'1036'
p579
F393.39264051199774
tp580
aF43.70644580013593
g575
S'2012-03-02 18:25:16'
p581
I18
F1456.8815266711977
F976.8467973556649
tp582
a((lp583
(S'989'
p584
g584
F0.0
tp585
aF3.3531928852310924
g581
S'2012-03-02 18:26:16'
p586
I35
F55.88654808718487
F541.0424886689257
tp587
a((lp588
(g584
g579
F337.50682548292514
tp589
a(g579
S'1151'
p590
F249.65204655763606
tp591
aF35.22953232243367
g586
S'2012-03-02 18:27:16'
p592
I22
F587.1588720405612
F317.29083319891663
tp593
a((lp594
(S'1036'
p595
g590
F249.65214274233847
tp596
a(g590
S'1232'
p597
F286.4005288174328
tp598
aF8.53889211334149
g592
S'2012-03-02 18:31:02'
p599
I11
F536.0526715597713
F456.29359112157044
tp600
a((lp601
(S'1151'
p602
g597
F286.4008585376268
tp603
a(g597
S'1031'
p604
F536.64824962327
tp605
a(g604
S'1049'
p606
F617.9391928603037
tp607
a(g606
S'1031'
p608
F35.8259982261572
tp609
aF354.4354318193659
g599
S'2012-03-02 18:31:17'
p610
I5
F1476.814299247358
F6.967822808239773
tp611
a((lp612
(S'1049'
p613
g608
F582.1131946350243
tp614
a(g608
S'1232'
p615
F536.64824962327
tp616
a(g615
S'1151'
p617
F572.8013873462398
tp618
a(g617
g597
F286.4005288174328
tp619
aF87.90948268542076
g610
S'2012-03-02 18:32:38'
p620
I0
F1977.9633604219669
F23.098875301724934
tp621
a((lp622
(g602
g597
F286.4008585376268
tp623
a(g597
S'901'
p624
F250.2082416432828
tp625
aF14.746509623292171
g620
S'2012-03-02 18:34:49'
p626
I9
F536.6091001809095
F576.1813370351545
tp627
a.