(lp0
((lp1
(S'1174'
p2
S'824'
p3
F53.46020839108469
tp4
a(g3
S'1031'
p5
F464.2330654185904
tp6
a(g5
S'1232'
p7
F536.64824962327
tp8
a(g7
S'901'
p9
F88.14798422950558
tp10
aF30.46638687099868
S'2012-03-02 17:28:58'
p11
S'2012-03-02 17:31:13'
p12
I0
F1142.4895076624505
F625.8995899330821
tp13
a((lp14
(S'1232'
p15
g9
F412.2686356180951
tp16
a(g9
S'1232'
p17
F114.91814970985152
tp18
aF17.737125487669232
g12
S'2012-03-02 17:33:00'
p19
I35
F527.1867853279466
F297.3291646879684
tp20
a((lp21
(S'901'
p22
g17
F385.4984701381587
tp23
a(g17
g9
F447.12169618312265
tp24
aF90.83129087141252
g19
S'2012-03-02 17:33:33'
p25
I0
F832.6201663212814
F61.74919268083111
tp26
a((lp27
(g15
g9
F53.29492366383428
tp28
a(g9
S'1157'
p29
F164.71879650241303
tp30
aF23.783314927226982
g25
S'2012-03-02 17:34:06'
p31
I12
F218.0137201662473
F96.6549050298674
tp32
a((lp33
(g22
g29
F164.71978913128245
tp34
a(g29
S'901'
p35
F329.43858562166434
tp36
a(g35
S'937'
p37
F654.3387647481585
tp38
a(g37
S'796'
p39
F58.86018516433739
tp40
aF55.01881479488093
g31
S'2012-03-02 17:35:25'
p41
I0
F1207.3573246654425
F146.14216011078602
tp42
a((lp43
(S'937'
p44
g39
F58.86023953587936
tp45
a(g39
S'937'
p46
F117.72042469973982
tp47
a(g46
S'901'
p48
F654.3387647481585
tp49
a(g48
g37
F261.77577375905025
tp50
aF135.64492171979933
g41
S'2012-03-02 17:35:54'
p51
I0
F1092.6952027428279
F56.59786458863171
tp52
a((lp53
(g22
g37
F392.5629910671208
tp54
a(g37
S'988'
p55
F84.85729485795852
tp56
a(g55
S'1127'
p57
F152.49726409143645
tp58
a(g57
S'967'
p59
F95.32878660503597
tp60
aF48.34975577477011
g51
S'2012-03-02 17:36:48'
p61
I24
F725.2463366215517
F424.0231648915842
tp62
a((lp63
(S'1127'
p64
g64
F0.0
tp65
aF0.0
g61
S'2012-03-02 17:37:48'
p66
I0
F0.0
F0.0
tp67
a((lp68
(g64
g59
F95.32887822975243
tp69
a(g59
S'1127'
p70
F190.65766483400054
tp71
a(g70
S'988'
p72
F152.49726409143645
tp73
a(g72
S'937'
p74
F84.85729485795852
tp75
a(g74
g39
F58.86018516433739
tp76
aF14.555032179437132
g66
S'2012-03-02 17:40:12'
p77
I0
F582.2012871774854
F256.5794092522695
tp78
a((lp79
(g44
g39
F58.86023953587936
tp80
a(g39
S'1082'
p81
F137.28505847111882
tp82
a(g81
S'838'
p83
F427.5037898483401
tp84
a(g83
S'936'
p85
F690.8846058389883
tp86
a(g85
S'873'
p87
F117.95681148015007
tp88
a(g87
S'1292'
p89
F2790.4800623446363
tp90
aF87.37180484522301
g77
S'2012-03-02 17:43:06'
p91
I9
F4222.970567519113
F821.2830957267738
tp92
a((lp93
(S'873'
p94
g89
F2790.5438426946735
tp95
a(g89
S'873'
p96
F5581.023855259741
tp97
a(g96
S'817'
p98
F105.0497849413397
tp99
aF86.93966649123853
g91
S'2012-03-02 17:48:57'
p100
I9
F8476.617482895756
F492.617529750137
tp101
a((lp102
(g94
g94
F0.0
tp103
aF0.0
g100
S'2012-03-02 17:49:57'
p104
I0
F0.0
F0.0
tp105
a((lp106
(g94
g98
F109.94498794727764
tp107
a(g98
S'909'
p108
F286.06989179438705
tp109
a(g108
S'817'
p110
F143.03496139845814
tp111
aF80.85747617101842
g104
S'2012-03-02 17:50:21'
p112
I0
F539.0498411401228
F31.481616198916083
tp113
a((lp114
(S'909'
p115
g110
F143.03493039634841
tp116
a(g110
S'873'
p117
F214.99477288859876
tp118
a(g117
S'936'
p119
F117.95681148015007
tp120
a(g119
S'791'
p121
F263.909236928096
tp122
a(g121
S'852'
p123
F126.29152994364514
tp124
aF51.9712368982103
g112
S'2012-03-02 17:51:21'
p125
I9
F866.1872816368384
F412.62014024897246
tp126
a((lp127
(S'791'
p128
g123
F126.2914924350047
tp129
a(g123
S'883'
p130
F329.28489559744986
tp131
a(g130
S'834'
p132
F243.45192316883126
tp133
a(g132
S'1068'
p134
F64.20482283592388
tp135
aF45.793988042232584
g125
S'2012-03-02 17:52:21'
p136
I24
F763.2331340372097
F320.70400105821864
tp137
a((lp138
(S'834'
p139
g134
F64.20481964419149
tp140
a(g134
S'883'
p141
F115.05830496594493
tp142
a(g141
S'852'
p143
F329.28489559744986
tp144
a(g143
S'833'
p145
F363.99526731937345
tp146
a(g145
S'852'
p147
F181.99760060924496
tp148
aF38.73823670704426
g136
S'2012-03-02 17:53:59'
p149
I25
F1054.5408881362048
F737.7730362841918
tp150
a((lp151
(S'833'
p152
g147
F181.99766671126423
tp153
a(g147
g145
F363.99526731937345
tp154
a(g145
S'974'
p155
F480.1669052301094
tp156
a(g155
S'1062'
p157
F183.41867360754313
tp158
a(g157
S'1150'
p159
F97.37815450745644
tp160
aF174.2608889834329
g149
S'2012-03-02 17:54:26'
p161
I0
F1306.9566673757465
F45.049832180641076
tp162
a((lp163
(S'1062'
p164
g159
F97.37815390267268
tp165
a(g159
S'1016'
p166
F476.5728920163904
tp167
a(g166
S'895'
p168
F364.23495779569595
tp169
a(g168
S'774'
p170
F268.4210662990969
tp171
a(g170
S'970'
p172
F377.3364418971982
tp173
a(g172
S'1069'
p174
F300.1901722143531
tp175
a(g174
S'860'
p176
F115.85435816972478
tp177
aF22.429772436954753
g161
S'2012-03-02 17:59:47'
p178
I16
F1999.9880422951321
F1353.6643259562345
tp179
a((lp180
(S'1069'
p181
g176
F115.85431805648571
tp182
a(g176
S'1030'
p183
F230.54817177966603
tp184
a(g183
S'1046'
p185
F233.06353457732175
tp186
a(g185
S'869'
p187
F156.17213501704404
tp188
a(g187
S'1046'
p189
F78.08607554007757
tp190
aF29.58997218074891
g178
S'2012-03-02 18:01:26'
p191
I37
F813.724234970595
F458.67663570742053
tp192
a((lp193
(S'869'
p194
g189
F78.08605947708458
tp195
a(g189
S'1069'
p196
F233.21024744024461
tp197
a(g196
g176
F115.85435816972478
tp198
aF22.28612165671586
g191
S'2012-03-02 18:02:35'
p199
I27
F427.15066508705394
F285.8840503207558
tp200
a((lp201
(g181
g176
F115.85431805648571
tp202
a(g176
S'790'
p203
F108.13434072706384
tp204
a(g203
S'819'
p205
F145.5823712882947
tp206
a(g205
S'1233'
p207
F280.1051964205321
tp208
a(g207
S'819'
p209
F140.05273812434007
tp210
aF49.01765987276171
g199
S'2012-03-02 18:03:33'
p211
I24
F789.7289646167164
F170.39759299916307
tp212
a((lp213
(S'1233'
p214
g209
F140.052458302599
tp215
a(g209
S'790'
p216
F145.5823712882947
tp217
a(g216
S'860'
p218
F108.13434072706384
tp219
a(g218
S'1069'
p220
F151.19853148542066
tp221
aF32.69806210820269
g211
S'2012-03-02 18:04:33'
p222
I29
F544.9677018033782
F387.92209237849596
tp223
a((lp224
(S'860'
p225
g220
F80.51014474074279
tp226
a(g220
g176
F231.70867622577373
tp227
a(g176
g183
F230.54817177966603
tp228
a(g183
S'1215'
p229
F229.64658602255514
tp230
a(g229
S'799'
p231
F216.60117519723585
tp232
a(g231
S'1207'
p233
F50.55303206118107
tp234
aF233.90275185610986
g222
S'2012-03-02 18:04:49'
p235
I37
F1039.5677860271549
F39.14146569674617
tp236
a((lp237
(S'799'
p238
g233
F50.55302239546013
tp239
a(g233
S'799'
p240
F101.1060544565955
tp241
a(g240
S'1215'
p242
F216.60117519723585
tp243
a(g242
S'1030'
p244
F229.64658602255514
tp245
a(g244
g185
F216.91079755803312
tp246
aF195.55623255117115
g235
S'2012-03-02 18:05:04'
p247
I0
F814.8176356298798
F41.270764363305666
tp248
a((lp249
(S'1030'
p250
g185
F16.152737019429786
tp251
a(g185
g187
F156.17213501704404
tp252
a(g187
S'1045'
p253
F443.17745880440634
tp254
a(g253
S'844'
p255
F80.52908055539564
tp256
aF24.093395009871088
g247
S'2012-03-02 18:06:48'
p257
I7
F696.0314113962759
F654.1064498057831
tp258
a((lp259
(S'1045'
p260
g255
F80.52906084177697
tp261
a(g255
S'1045'
p262
F161.05814139702346
tp263
a(g262
S'1218'
p264
F380.2508287917065
tp265
a(g264
S'1191'
p266
F264.7542280364345
tp267
a(g266
S'973'
p268
F412.40913364934164
tp269
a(g268
S'920'
p270
F182.93232458689576
tp271
aF313.8212577818496
g257
S'2012-03-02 18:07:05'
p272
I0
F1481.9337173031788
F69.8134009417204
tp273
a((lp274
(S'973'
p275
g270
F182.93232478073145
tp276
a(g270
S'867'
p277
F408.84211159134935
tp278
a(g277
S'1191'
p279
F360.6074231124015
tp280
a(g279
S'1218'
p281
F264.7542280364345
tp282
a(g281
S'986'
p283
F423.3470614498756
tp284
a(g283
S'1218'
p285
F413.08464203659247
tp286
aF321.4280020707211
g272
S'2012-03-02 18:07:28'
p287
I37
F2053.567791007385
F129.0550656502279
tp288
a((lp289
(S'986'
p290
g285
F10.262419415171417
tp291
a(g285
g266
F264.7542280364345
tp292
a(g266
S'867'
p293
F360.6074231124015
tp294
a(g293
S'920'
p295
F204.42103199643964
tp296
aF16.61627675394291
g287
S'2012-03-02 18:10:30'
p297
I0
F840.045102560447
F332.8306784848205
tp298
a((lp299
(S'867'
p300
g295
F204.42107961437014
tp301
a(g295
g277
F408.84211159134935
tp302
a(g277
g279
F360.6074231124015
tp303
a(g279
S'1124'
p304
F348.66405624127844
tp305
a(g304
S'1009'
p306
F343.5463299595581
tp307
a(g306
S'1122'
p308
F201.502538069622
tp309
aF137.21021916160993
g297
S'2012-03-02 18:11:19'
p310
I0
F1867.5835385885796
F69.48054249639958
tp311
a((lp312
(S'1009'
p313
g308
F201.5025482273257
tp314
a(g308
S'1186'
p315
F682.0643108370471
tp316
a(g315
S'1007'
p317
F322.0478439414783
tp318
a(g317
S'814'
p319
F399.2836900504582
tp320
a(g319
S'994'
p321
F347.825262889234
tp322
aF23.354834423268958
g310
S'2012-03-02 18:16:20'
p323
I42
F1952.7236559455432
F1428.907991575481
tp324
a((lp325
(S'814'
p326
g321
F27.537136433322306
tp327
a(g321
S'963'
p328
F521.73314507341
tp329
a(g328
S'994'
p330
F94.89346254763144
tp331
aF38.64982464326182
g323
S'2012-03-02 18:17:20'
p332
I27
F644.1637440543637
F452.01278336836384
tp333
a((lp334
(S'963'
p335
g335
F0.0
tp336
aF0.0
g332
S'2012-03-02 18:17:22'
p337
I0
F0.0
F0.0
tp338
a((lp339
(g335
g335
F0.0
tp340
aF1.603754513278752
g337
S'2012-03-02 18:28:53'
p341
I0
F307.8317690765605
F306.1604315786098
tp342
a((lp343
(g335
g330
F119.0079134670798
tp344
a(g330
S'814'
p345
F375.362399322151
tp346
a(g345
S'792'
p347
F350.26427291339104
tp348
a(g347
S'1013'
p349
F441.0365406997711
tp350
a(g349
S'792'
p351
F220.51842809410635
tp352
aF13.065740713704573
g341
S'2012-03-02 18:35:48'
p353
I35
F1506.1895544964993
F1048.6286634850865
tp354
a((lp355
(S'1013'
p356
g351
F220.51811263019098
tp357
a(g351
S'814'
p358
F175.13223524227044
tp359
aF23.739020872347687
g353
S'2012-03-02 18:36:48'
p360
I33
F395.65034787246145
F579.6067063232252
tp361
a((lp362
(S'792'
p363
g358
F175.13203768340543
tp364
a(g358
S'1007'
p365
F399.2836900504582
tp366
a(g365
S'1186'
p367
F322.0478439414783
tp368
a(g367
S'1122'
p369
F682.0643108370471
tp370
a(g369
S'804'
p371
F468.363700761058
tp372
aF122.81349499640685
g360
S'2012-03-02 18:37:48'
p373
I53
F2046.8915832734472
F643.0913525478531
tp374
a((lp375
(S'1122'
p376
g371
F468.36172953026096
tp377
a(g371
S'982'
p378
F140.04113628613734
tp379
a(g378
S'1009'
p380
F754.638799327876
tp381
a(g380
S'1124'
p382
F343.5463299595581
tp383
a(g382
S'1191'
p384
F174.33202285262382
tp385
aF112.85520107738738
g373
S'2012-03-02 18:38:48'
p386
I29
F1880.9200179564561
F504.85921155369584
tp387
a((lp388
(S'1124'
p389
g384
F174.33203340072617
tp390
a(g384
g281
F193.2938700010573
tp391
aF22.05755420410701
g386
S'2012-03-02 18:39:48'
p392
I14
F367.6259034017835
F260.7399092501382
tp393
a((lp394
(S'1191'
p395
g281
F71.4603580354003
tp396
a(g281
S'1045'
p397
F380.2508287917065
tp398
a(g397
g255
F161.05814139702346
tp399
a(g255
S'955'
p400
F135.70247565144197
tp401
a(g400
S'813'
p402
F28.332335707953956
tp403
aF46.60824837501158
g392
S'2012-03-02 18:40:48'
p404
I50
F776.8041395835262
F663.6909353337774
tp405
a((lp406
(S'955'
p407
g402
F28.332333907014746
tp408
a(g402
S'921'
p409
F182.17650096521103
tp410
a(g409
S'927'
p411
F195.5482192140499
tp412
a(g411
S'959'
p413
F106.9390388791336
tp414
a(g413
S'1213'
p415
F159.27354120793285
tp416
a(g415
S'888'
p417
F398.42229143270566
tp418
a(g417
S'923'
p419
F58.00822408848276
tp420
aF66.61181211311984
g404
S'2012-03-02 18:41:49'
p421
I16
F1128.7001496945306
F340.10194583656954
tp422
a((lp423
(S'888'
p424
g419
F260.04732492484914
tp425
a(g419
S'1066'
p426
F54.22837436366241
tp427
aF9.838195803814274
g421
S'2012-03-02 18:43:44'
p428
I31
F314.27569928851153
F484.7350122271005
tp429
a((lp430
(S'923'
p431
g426
F353.3059777040007
tp432
a(g426
S'923'
p433
F407.0709608455492
tp434
aF228.113081564865
g428
S'2012-03-02 18:43:56'
p435
I0
F760.37693854955
F57.27485375996594
tp436
a((lp437
(S'1066'
p438
g433
F0.4633912117419407
tp439
a(g433
S'101'
p440
F930.3605400765287
tp441
a(g440
S'231'
p442
F2128.2368240663845
tp443
a(g442
S'5'
p444
F373.65454097386885
tp445
a(g444
S'26'
p446
F259.35658898200876
tp447
a(g446
S'336'
p448
F160.71094618009516
tp449
aF115.58348494471885
g435
S'2012-03-02 18:45:56'
p450
I18
F3852.782831490628
F2111.7085936873614
tp451
a((lp452
(S'26'
p453
g448
F160.71189559140225
tp454
a(g448
S'271'
p455
F145.7434125243181
tp456
a(g455
S'1072'
p457
F227.5684896632307
tp458
aF32.04142786673707
g450
S'2012-03-02 18:46:56'
p459
I25
F534.0237977789511
F487.79315901492777
tp460
a((lp461
(S'271'
p462
g457
F227.57038572236442
tp463
a(g457
S'271'
p464
F227.57038572236442
tp465
aF27.30844628668373
g459
S'2012-03-02 18:47:56'
p466
I29
F455.14077144472884
F275.6591187579067
tp467
a((lp468
(S'1072'
p469
g464
F227.5684896632307
tp470
a(g464
g457
F455.13887535379115
tp471
a(g457
S'1137'
p472
F827.5221670782628
tp473
a(g472
S'1072'
p474
F413.7618398450044
tp475
aF36.84238797332468
g466
S'2012-03-02 18:51:04'
p476
I0
F1923.991371940289
F655.8777024042228
tp477
a((lp478
(S'1137'
p479
g474
F413.7603273962519
tp480
a(g474
g472
F827.5221670782628
tp481
a(g472
S'871'
p482
F404.8816121047468
tp483
a(g482
S'1137'
p484
F39.226688658406594
tp485
aF126.4043096428251
g476
S'2012-03-02 18:51:52'
p486
I0
F1685.390795237668
F30.800900741323
tp487
a((lp488
(S'871'
p489
g484
F365.65492344673686
tp490
a(g484
g482
F202.4407755745264
tp491
aF17.783865360665633
g486
S'2012-03-02 18:53:47'
p492
I12
F568.0956990212633
F685.0810388860335
tp493
a((lp494
(g479
g482
F202.44083653138995
tp495
a(g482
S'1382'
p496
F803.5379876651724
tp497
a(g496
S'1264'
p498
F245.57522623737435
tp499
aF31.954571500440938
g492
S'2012-03-02 18:56:08'
p500
I0
F1251.5540504339367
F990.8144242685164
tp501
a((lp502
(S'1382'
p503
g498
F245.5740171113495
tp504
a(g498
S'1344'
p505
F368.4326560017038
tp506
a(g505
S'1240'
p507
F140.54436628168642
tp508
aF19.973409866331345
g500
S'2012-03-02 18:58:24'
p509
I0
F754.5510393947396
F577.5175445805805
tp510
a((lp511
(S'1344'
p512
g507
F140.54438713622974
tp513
a(g507
S'1310'
p514
F388.8414992769568
tp515
a(g514
S'1389'
p516
F319.02403759519916
tp517
a(g516
S'1330'
p518
F389.4707510404453
tp519
a(g518
S'1345'
p520
F225.3777301642604
tp521
a(g520
S'1330'
p522
F112.68886432277836
tp523
aF94.55683617215217
g509
S'2012-03-02 18:59:24'
p524
I24
F1575.9472695358695
F616.5266937066423
tp525
a((lp526
(S'1345'
p527
g522
F112.68886584149843
tp528
a(g522
S'1389'
p529
F389.4707510404453
tp530
a(g529
S'1282'
p531
F262.3624076285935
tp532
a(g531
S'1395'
p533
F260.0708660303539
tp534
aF80.18553056406974
g524
S'2012-03-02 19:00:10'
p535
I44
F1024.5928905408912
F273.55025440249545
tp536
a((lp537
(S'1282'
p538
g533
F260.0708738838822
tp539
a(g533
S'1282'
p540
F520.1417399140412
tp541
a(g540
S'1333'
p542
F357.59837183442505
tp543
aF68.26865913794092
g535
S'2012-03-02 19:01:10'
p544
I37
F1137.8109856323485
F405.5667547447338
tp545
a((lp546
(g538
g542
F324.06966666422755
tp547
a(g542
S'1309'
p548
F162.00591869977353
tp549
aF29.164535121840068
g544
S'2012-03-02 19:02:10'
p550
I37
F486.0755853640011
F288.9372867583311
tp551
a((lp552
(S'1333'
p553
g548
F162.00567983469674
tp554
a(g548
S'1333'
p555
F324.0115985246878
tp556
a(g555
S'1396'
p557
F244.28731304118864
tp558
a(g557
S'1389'
p559
F668.5410650565225
tp560
a(g559
S'1396'
p561
F80.52139255222207
tp562
aF34.13923959252272
g550
S'2012-03-02 19:04:46'
p563
I5
F1479.3670490093177
F597.469417115217
tp564
a((lp565
(S'1389'
p566
g561
F588.0196725405552
tp567
a(g561
S'1333'
p568
F244.28731304118864
tp569
a(g568
S'1282'
p570
F681.6680384078383
tp571
a(g570
S'1362'
p572
F148.64400371507355
tp573
aF427.53060712405426
g563
S'2012-03-02 19:05:00'
p574
I0
F1662.6190277046555
F36.587529226590966
tp575
a((lp576
(g538
g572
F148.64416678694204
tp577
a(g572
S'1310'
p578
F228.28934279398425
tp579
a(g578
S'1240'
p580
F388.8414992769568
tp581
a(g580
S'1344'
p582
F281.08875341763786
tp583
a(g582
S'1264'
p584
F368.4326560017038
tp585
a(g584
S'1402'
p586
F228.23448105151797
tp587
a(g586
S'1284'
p588
F532.13818844487
tp589
a(g588
S'1303'
p590
F393.0490934460226
tp591
a(g590
S'463'
p592
F916.7454369448138
tp593
a(g592
S'406'
p594
F523.1406006777456
tp595
a(g594
S'37'
p596
F354.9465351928403
tp597
aF42.68690955034274
g574
S'2012-03-02 19:11:08'
p598
I24
F4363.550754035035
F2606.5747511624104
tp599
a((lp600
(S'406'
p601
g596
F354.9488993033982
tp602
a(g596
S'231'
p603
F1230.1532257749107
tp604
a(g603
S'101'
p605
F2128.2368240663845
tp606
a(g605
S'307'
p607
F516.3741780275716
tp608
a(g607
S'12'
p609
F336.87317808984017
tp610
a(g609
S'324'
p611
F348.33486400960794
tp612
a(g611
S'233'
p613
F522.2079091612247
tp614
a(g613
S'1158'
p615
F505.9919712639641
tp616
a(g615
S'371'
p617
F343.4160234801613
tp618
a(g617
S'323'
p619
F502.52151206068487
tp620
a(g619
S'195'
p621
F899.3736486026992
tp622
a(g621
S'160'
p623
F1654.504702992569
tp624
a(g623
S'348'
p625
F749.9190888032648
tp626
a(g625
S'40'
p627
F401.59962843252373
tp628
a(g627
S'400'
p629
F175.03635260490466
tp630
a(g629
S'359'
p631
F368.9484986175782
tp632
a(g631
S'220'
p633
F423.40012907983873
tp634
a(g633
S'196'
p635
F611.7560822228065
tp636
a(g635
S'328'
p637
F208.72880849237106
tp638
a(g637
S'196'
p639
F104.36427714974283
tp640
aF247.73379604472086
g598
S'2012-03-02 19:14:08'
p641
I64
F12386.689802236044
F2011.1707608477207
tp642
a((lp643
(S'328'
p644
g639
F104.36453134539046
tp645
a(g639
S'220'
p646
F611.7560822228065
tp647
a(g646
S'359'
p648
F423.40012907983873
tp649
a(g648
S'400'
p650
F368.9484986175782
tp651
a(g650
S'40'
p652
F175.03635260490466
tp653
a(g652
S'348'
p654
F401.59962843252373
tp655
a(g654
S'160'
p656
F749.9190888032648
tp657
a(g656
S'195'
p658
F1654.504702992569
tp659
a(g658
S'323'
p660
F899.3736486026992
tp661
a(g660
S'200'
p662
F638.105914332198
tp663
a(g662
S'190'
p664
F32.98384518829947
tp665
aF90.89988633333111
g641
S'2012-03-02 19:18:08'
p666
I66
F6059.992422222073
F4535.818800162533
tp667
a.