(lp0
((lp1
(S'969'
p2
S'1177'
p3
F548.8103971096077
tp4
a(g3
S'1133'
p5
F544.2648983785294
tp6
a(g5
S'1177'
p7
F272.1323385959024
tp8
aF38.09881769536855
S'2012-03-02 09:01:11'
p9
S'2012-03-02 09:03:20'
p10
I35
F1365.2076340840397
F1340.880031644629
tp11
a((lp12
(S'1133'
p13
g7
F272.1325597882723
tp14
a(g7
g5
F544.2648983785294
tp15
a(g5
S'1182'
p16
F12.743405002588746
tp17
a(g16
S'822'
p18
F298.5349557647092
tp19
a(g18
S'1164'
p20
F283.6887402029948
tp21
aF54.633466805306874
g10
S'2012-03-02 09:04:53'
p22
I0
F1411.3645591370944
F363.3806318458469
tp23
a((lp24
(S'822'
p25
g20
F13.891572911975622
tp26
a(g20
S'1187'
p27
F539.6604647224013
tp28
a(g27
S'933'
p29
F62.361946624317454
tp30
a(g29
S'1152'
p31
F252.16482039578787
tp32
a(g31
S'1114'
p33
F1003.2970238685477
tp34
a(g33
S'809'
p35
F639.1126192225747
tp36
a(g35
S'900'
p37
F674.794246559625
tp38
a(g37
S'967'
p39
F217.51739317672622
tp40
a(g39
S'1127'
p41
F190.65766483400054
tp42
a(g41
S'988'
p43
F152.49726409143645
tp44
a(g43
S'937'
p45
F84.85729485795852
tp46
a(g45
S'1061'
p47
F930.5990375079346
tp48
a(g47
S'1062'
p49
F442.8992981334369
tp50
a(g49
S'974'
p51
F183.41867360754313
tp52
a(g51
S'991'
p53
F656.1638760738123
tp54
a(g53
S'814'
p55
F594.5517113284113
tp56
a(g55
S'792'
p57
F350.26427291339104
tp58
a(g57
S'1013'
p59
F441.0365406997711
tp60
a(g59
S'1376'
p61
F3427.8290189273157
tp62
a(g61
S'1378'
p63
F272.91033738062805
tp64
a(g63
S'1381'
p65
F486.319094641144
tp66
a(g65
S'1279'
p67
F595.3972903281316
tp68
a(g67
S'1294'
p69
F383.85231039779774
tp70
a(g69
S'1279'
p71
F373.8757970189105
tp72
aF8.40989669538993
g22
S'2012-03-02 10:37:25'
p73
I29
F12969.92957022358
F9349.72932149265
tp74
a((lp75
(S'1294'
p76
g71
F9.976513380465722
tp77
a(g71
g69
F383.85231039779774
tp78
a(g69
S'1335'
p79
F103.32787894202782
tp80
aF74.5735054080437
g73
S'2012-03-02 10:37:49'
p81
I0
F497.1567027202913
F68.21681816173941
tp82
a((lp83
(g76
g79
F361.58493486401454
tp84
a(g79
S'1294'
p85
F232.45639735845438
tp86
aF20.762609669911534
g81
S'2012-03-02 10:39:32'
p87
I25
F594.0413322224689
F459.3715594452738
tp88
a((lp89
(S'1335'
p90
g85
F232.45641644769134
tp91
a(g85
g71
F383.85231039779774
tp92
a(g71
S'1381'
p93
F595.3972903281316
tp94
a(g93
S'1334'
p95
F170.54848114184347
tp96
aF82.93526989892786
g87
S'2012-03-02 10:40:32'
p97
I27
F1382.2544983154642
F402.72246308486183
tp98
a((lp99
(S'1381'
p100
g95
F381.870041965436
tp101
a(g95
S'1257'
p102
F385.80769194553045
tp103
a(g102
S'1300'
p104
F403.00030894705344
tp105
aF70.2406825714812
g97
S'2012-03-02 10:41:32'
p106
I29
F1170.67804285802
F448.88635342786944
tp107
a((lp108
(S'1257'
p109
g104
F506.131565234804
tp110
a(g104
S'1328'
p111
F1023.4121880864786
tp112
a(g111
S'1384'
p113
F573.9604384116748
tp114
a(g113
S'1336'
p115
F270.0346910770018
tp116
a(g115
S'1268'
p117
F155.42560320927745
tp118
a(g117
S'1336'
p119
F77.71287446941268
tp120
aF39.10016040732974
g106
S'2012-03-02 10:45:32'
p121
I37
F2606.6773604886494
F1720.3703103841362
tp122
a((lp123
(S'1268'
p124
g119
F77.71272874079754
tp125
a(g119
g117
F155.42560320927745
tp126
a(g117
S'1344'
p127
F260.9910907964827
tp128
a(g127
S'1264'
p129
F368.4326560017038
tp130
a(g129
S'1402'
p131
F228.23448105151797
tp132
a(g131
S'451'
p133
F195.73729249951427
tp134
aF77.19203113795763
g121
S'2012-03-02 10:46:32'
p135
I40
F1286.5338522992938
F459.3933613528104
tp136
a((lp137
(S'1402'
p138
g133
F195.73727341438163
tp139
a(g133
S'1402'
p140
F391.4745659135401
tp141
a(g140
S'1264'
p142
F228.23448105151797
tp143
a(g142
S'1382'
p144
F491.1492433133898
tp145
a(g144
S'1284'
p146
F134.76395610065305
tp147
aF247.09020339316845
g135
S'2012-03-02 10:46:53'
p148
I29
F1441.3595197934826
F54.112221113121095
tp149
a((lp150
(S'1382'
p151
g146
F134.76385743889404
tp152
a(g146
S'1402'
p153
F532.13818844487
tp154
a(g153
g142
F228.23448105151797
tp155
a(g142
S'1344'
p156
F368.4326560017038
tp157
a(g156
g129
F184.21633753914764
tp158
aF148.91508210611659
g148
S'2012-03-02 10:47:28'
p159
I0
F1447.7855204761336
F67.22748028522118
tp160
a((lp161
(S'1344'
p162
g129
F184.21631846289074
tp163
a(g129
g144
F239.87356009389174
tp164
aF25.44539271340695
g159
S'2012-03-02 10:48:28'
p165
I37
F424.0898785567825
F329.08759075884427
tp166
a((lp167
(S'1264'
p168
g144
F251.27568325483745
tp169
a(g144
g146
F269.5278135383138
tp170
a(g146
S'1303'
p171
F362.2255158611113
tp172
aF52.98174075925575
g165
S'2012-03-02 10:49:28'
p173
I16
F883.0290126542625
F456.8069236807239
tp174
a((lp175
(S'1284'
p176
g171
F30.823577585324657
tp177
a(g171
S'1284'
p178
F196.5245109622374
tp179
aF22.734808854756206
g173
S'2012-03-02 10:50:04'
p180
I0
F227.34808854756204
F231.5965169043327
tp181
a((lp182
(S'1303'
p183
g178
F196.5245824851148
tp184
a(g178
g171
F393.0490934460226
tp185
a(g171
S'463'
p186
F292.0450540110151
tp187
aF79.34568569479372
g180
S'2012-03-02 10:50:44'
p188
I0
F881.6187299421524
F89.59999692886274
tp189
a((lp190
(g183
g186
F624.7003829392584
tp191
a(g186
S'25'
p192
F2.860321139559918
tp193
aF77.90408740288778
g188
S'2012-03-02 10:51:13'
p194
I46
F627.5607040788183
F154.469178320121
tp195
a((lp196
(S'463'
p197
g192
F695.5401841154568
tp198
a(g192
S'463'
p199
F698.4005052534098
tp200
a(g199
S'1303'
p201
F916.7454369448138
tp202
a(g201
S'1137'
p203
F362.5597038245652
tp204
aF320.78949961658947
g194
S'2012-03-02 10:51:43'
p205
I0
F2673.2458301382453
F35.62309623821925
tp206
a((lp207
(g183
g203
F362.56131056663236
tp208
a(g203
S'1303'
p209
F725.1210142806609
tp210
a(g209
g178
F196.5245109622374
tp211
aF67.00209578136682
g205
S'2012-03-02 10:52:52'
p212
I14
F1284.2068358095307
F200.44006669201625
tp213
a((lp214
(g183
g178
F196.5245824851148
tp215
a(g178
g171
F393.0490934460226
tp216
a(g171
g203
F725.1210142806609
tp217
a(g203
S'1072'
p218
F827.5221670782628
tp219
a(g218
S'271'
p220
F227.57038572236442
tp221
aF52.33885935487565
g212
S'2012-03-02 10:55:35'
p222
I25
F2369.7872430124253
F1291.2282588170367
tp223
a((lp224
(S'1072'
p225
g220
F227.5684896632307
tp226
a(g220
S'336'
p227
F145.7434125243181
tp228
a(g227
S'5'
p229
F138.30106860481882
tp230
aF30.696778247542056
g222
S'2012-03-02 10:56:35'
p231
I27
F511.6129707923676
F498.65352195726024
tp232
a((lp233
(S'336'
p234
g229
F138.301062532923
tp235
a(g229
S'336'
p236
F276.60213113766173
tp237
a(g236
S'271'
p238
F72.87170610656864
tp239
aF117.06597594651682
g231
S'2012-03-02 10:56:50'
p240
I31
F487.7748997771534
F29.66773326414373
tp241
a((lp242
(g234
g238
F72.87170641775162
tp243
a(g238
S'1072'
p244
F455.13887535379115
tp245
a(g244
g220
F165.5503808692278
tp246
aF208.0682887922312
g240
S'2012-03-02 10:57:02'
p247
I0
F693.5609626407706
F68.27915768201036
tp248
a((lp249
(g225
g220
F289.5884945138856
tp250
a(g220
g227
F145.7434125243181
tp251
a(g227
g229
F276.60213113766173
tp252
a(g229
S'231'
p253
F373.65454097386885
tp254
a(g253
S'101'
p255
F2128.2368240663845
tp256
a(g255
S'307'
p257
F516.3741780275716
tp258
a(g257
S'12'
p259
F336.87317808984017
tp260
a(g259
S'1104'
p261
F340.35709427387536
tp262
a(g261
S'121'
p263
F90.13444441758749
tp264
aF59.74624159738
g247
S'2012-03-02 11:01:33'
p265
I42
F4497.564298024994
F3208.8651508854427
tp266
a((lp267
(S'1104'
p268
g268
F0.0
tp269
aF5.060512602407081
g265
S'2012-03-02 11:02:33'
p270
I0
F84.34187670678467
F484.71396938062
tp271
a((lp272
(g268
g263
F174.4757442789197
tp273
a(g263
S'1104'
p274
F348.95206538914294
tp275
a(g274
S'1145'
p276
F725.1024325879025
tp277
a(g276
S'1028'
p278
F210.6065185280842
tp279
a(g278
S'772'
p280
F230.208379433524
tp281
a(g280
S'819'
p282
F232.03849592151013
tp283
a(g282
S'1233'
p284
F140.052458302599
tp285
aF309.2154141662524
g270
S'2012-03-02 11:02:57'
p286
I1
F2061.4360944416826
F59.016856600939015
tp287
a((lp288
(S'819'
p289
g284
F140.05273812434007
tp290
a(g284
S'820'
p291
F255.3750506846333
tp292
a(g291
S'970'
p293
F247.7378419176489
tp294
a(g293
S'774'
p295
F377.3364418971982
tp296
a(g295
S'895'
p297
F268.4210662990969
tp298
a(g297
S'1016'
p299
F364.23495779569595
tp300
a(g299
S'1150'
p301
F476.5728920163904
tp302
a(g301
S'1062'
p303
F194.7563084101235
tp304
a(g303
S'1061'
p305
F442.8992981334369
tp306
a(g305
S'937'
p307
F930.5990375079346
tp308
a(g307
S'988'
p309
F84.85729485795852
tp310
a(g309
S'1127'
p311
F152.49726409143645
tp312
a(g311
S'967'
p313
F190.65766483400054
tp314
a(g313
S'900'
p315
F217.51739317672622
tp316
a(g315
S'809'
p317
F674.794246559625
tp318
a(g317
S'1114'
p319
F639.1126192225747
tp320
a(g319
S'993'
p321
F865.1525280555261
tp322
a(g321
S'918'
p323
F353.8824181427403
tp324
a(g323
S'1141'
p325
F333.92501272121706
tp326
a(g325
S'821'
p327
F136.45982608649493
tp328
aF1.4884704171267529
g286
S'2012-03-02 15:59:06'
p329
I18
F7346.841900534798
F6333.29386189834
tp330
a((lp331
(S'1141'
p332
g327
F136.4598663466409
tp333
a(g327
S'999'
p334
F328.92127087434676
tp335
a(g334
S'932'
p336
F291.88001401002714
tp337
a(g336
S'843'
p338
F128.74320289035185
tp339
aF40.892508651755385
g329
S'2012-03-02 16:00:24'
p340
I25
F886.0043541213666
F91.86506049187429
tp341
a((lp342
(S'932'
p343
g338
F367.6156642573746
tp344
a(g338
S'999'
p345
F386.00713792245193
tp346
a(g345
S'821'
p347
F328.92127087434676
tp348
a(g347
S'960'
p349
F150.36696590160864
tp350
aF33.88152473466272
g340
S'2012-03-02 16:02:35'
p351
I27
F1232.911038955782
F699.3869003192797
tp352
a((lp353
(S'821'
p354
g349
F150.3669868853373
tp355
a(g349
S'1133'
p356
F313.9016806177561
tp357
a(g356
g7
F544.2648983785294
tp358
a(g7
S'997'
p359
F478.6095004805797
tp360
a(g359
S'1172'
p361
F110.18305281232932
tp362
aF95.83956715047194
g351
S'2012-03-02 16:03:35'
p363
I64
F1597.326119174532
F609.5316736042721
tp364
a.