(lp0
((lp1
(S'1'
p2
S'333'
p3
F487.9369439738851
tp4
a(g3
S'117'
p5
F172.715636685259
tp6
a(g5
S'219'
p7
F439.0234501785394
tp8
a(g7
S'209'
p9
F348.12509298251837
tp10
a(g9
S'69'
p11
F560.4047888183237
tp12
a(g11
S'114'
p13
F138.59090513124823
tp14
aF64.4039045330932
S'2012-03-02 08:14:46'
p15
S'2012-03-02 08:16:46'
p16
I29
F2146.7968177697735
F946.7767975689204
tp17
a((lp18
(S'69'
p19
g19
F0.0
tp20
aF5.742860905011695
g16
S'2012-03-02 08:17:50'
p21
I40
F102.09530497798569
F473.0218080029184
tp22
a((lp23
(g19
g13
F240.6861064293658
tp24
a(g13
S'322'
p25
F293.16190634917444
tp26
a(g25
S'47'
p27
F119.49955394119547
tp28
aF69.17797765267791
g21
S'2012-03-02 08:18:24'
p29
I35
F653.3475667197357
F215.46877199082175
tp30
a((lp31
(S'322'
p32
g27
F119.49955846453616
tp33
a(g27
S'322'
p34
F238.99911240568
tp35
a(g34
S'362'
p36
F196.0316382659179
tp37
a(g36
S'322'
p38
F191.25044150339437
tp39
aF134.2405351151151
g29
S'2012-03-02 08:18:44'
p40
I0
F745.7807506395284
F26.499880340999503
tp41
a((lp42
(S'362'
p43
g38
F4.781196762538777
tp44
a(g38
S'114'
p45
F293.16190634917444
tp46
a(g45
S'69'
p47
F277.18170658049786
tp48
a(g47
S'209'
p49
F560.4047888183237
tp50
a(g49
S'219'
p51
F348.12509298251837
tp52
a(g51
S'117'
p53
F439.0234501785394
tp54
a(g53
S'97'
p55
F580.435699134164
tp56
aF25.031138408057565
g40
S'2012-03-02 08:24:44'
p57
I16
F2503.1138408057564
F1132.5713157502666
tp58
a((lp59
(S'117'
p60
g55
F580.4410190124515
tp61
a(g55
S'117'
p62
F1160.876717687237
tp63
a(g62
S'333'
p64
F172.715636685259
tp65
a(g64
S'27'
p66
F259.6926790125702
tp67
aF434.7452104795036
g57
S'2012-03-02 08:25:02'
p68
I1
F2173.726052397518
F9.446459394630365
tp69
a((lp70
(S'333'
p71
g66
F2770.6185669794236
tp72
a(g66
S'423'
p73
F360.14779166603097
tp74
a(g73
S'87'
p75
F723.5563566983903
tp76
a(g75
S'322'
p77
F661.5915995108642
tp78
a(g77
g45
F293.16190634917444
tp79
a(g45
g47
F277.18170658049786
tp80
a(g47
g49
F560.4047888183237
tp81
a(g49
g51
F348.12509298251837
tp82
a(g51
S'190'
p83
F12.170190652844136
tp84
aF296.2335452172198
g68
S'2012-03-02 08:26:15'
p85
I0
F6006.958000238067
F46.505898500663335
tp86
a((lp87
(S'219'
p88
g83
F804.0094962336613
tp89
a(g83
g2
F133.23962227802784
tp90
a(g2
S'371'
p91
F725.2487623614271
tp92
a(g91
S'1158'
p93
F343.4160234801613
tp94
a(g93
S'233'
p95
F505.9919712639641
tp96
a(g95
S'324'
p97
F261.1046835832608
tp98
aF39.45785775937474
g85
S'2012-03-02 08:30:28'
p99
I25
F2773.0105592005025
F1840.3272625200434
tp100
a((lp101
(S'233'
p102
g97
F261.1032256207329
tp103
a(g97
S'233'
p104
F522.2079091612247
tp105
a(g104
S'1222'
p106
F314.42150737049457
tp107
a(g106
S'886'
p108
F498.13109666342655
tp109
a(g108
S'1233'
p110
F203.95830291726205
tp111
a(g110
S'820'
p112
F255.3750506846333
tp113
a(g112
S'970'
p114
F123.86886871137345
tp115
aF65.92132319382296
g99
S'2012-03-02 08:32:27'
p116
I33
F2179.0659611291476
F961.287074490868
tp117
a((lp118
(S'820'
p119
g114
F123.8689732074665
tp120
a(g114
S'820'
p121
F247.7378419176489
tp122
a(g121
S'1233'
p123
F255.3750506846333
tp124
a(g123
g112
F127.68752524574234
tp125
aF33.9601225974971
g116
S'2012-03-02 08:33:47'
p126
I9
F754.669391055491
F282.2435958258723
tp127
a((lp128
(S'1233'
p129
g112
F127.68752543889336
tp130
a(g112
g123
F255.3750506846333
tp131
a(g123
S'886'
p132
F102.67933791400263
tp133
aF29.14451484225176
g126
S'2012-03-02 08:34:47'
p134
I0
F485.7419140375293
F11.886755359441752
tp135
a((lp136
(g129
g132
F101.27896500353368
tp137
a(g132
g110
F203.95830291726205
tp138
a(g110
S'819'
p139
F280.1051964205321
tp140
a(g139
S'790'
p141
F145.5823712882947
tp142
a(g141
S'860'
p143
F108.13434072706384
tp144
a(g143
S'1030'
p145
F230.54817177966603
tp146
a(g145
S'860'
p147
F115.27397627173178
tp148
aF266.5982979918189
g134
S'2012-03-02 08:35:03'
p149
I0
F1184.881324408084
F53.856051881769616
tp150
a((lp151
(S'1030'
p152
g147
F115.27419551153403
tp153
a(g147
S'1069'
p154
F231.70867622577373
tp155
a(g154
S'970'
p156
F300.1901722143531
tp157
a(g156
g121
F247.7378419176489
tp158
a(g121
S'887'
p159
F380.11243302033404
tp160
aF30.600559653351446
g149
S'2012-03-02 08:37:33'
p161
I35
F1275.0233188896436
F718.9672733367086
tp162
a((lp163
(g119
g159
F662.6672820393303
tp164
a(g159
S'1189'
p165
F211.8840444636607
tp166
a(g165
S'987'
p167
F541.0596802687863
tp168
a(g167
S'1073'
p169
F292.6580334691347
tp170
aF32.53845790935071
g161
S'2012-03-02 08:40:42'
p171
I27
F1708.269040240912
F719.0478927633732
tp172
a((lp173
(S'987'
p174
g169
F292.6584642322717
tp175
a(g169
S'987'
p176
F585.3164976896943
tp177
a(g176
S'1229'
p178
F0.8201951311191295
tp179
aF57.52113755256558
g171
S'2012-03-02 08:41:37'
p180
I70
F878.7951570530852
F331.69033595234316
tp181
a((lp182
(g174
g178
F827.7855452699138
tp183
a(g178
S'987'
p184
F828.6057404004235
tp185
a(g184
g169
F292.6580334691347
tp186
aF250.5920553179321
g180
S'2012-03-02 08:42:05'
p187
I0
F1949.0493191394721
F44.23030484485758
tp188
a((lp189
(g174
g169
F292.6584642322717
tp190
a(g169
g176
F585.3164976896943
tp191
a(g176
g178
F70.62015631564269
tp192
aF30.7652470779765
g187
S'2012-03-02 08:43:56'
p193
I25
F948.5951182376087
F72.52383886414044
tp194
a((lp195
(g174
g178
F757.9855841353781
tp196
a(g178
S'895'
p197
F124.68490737910783
tp198
aF44.75512351341055
g193
S'2012-03-02 08:45:07'
p199
I0
F882.6704915144859
F588.2567718666872
tp200
a((lp201
(S'1229'
p202
g202
F0.0
tp203
aF0.0
g199
S'2012-03-02 08:46:23'
p204
I25
F0.0
F602.2613394179566
tp205
a((lp206
(g202
g197
F124.68486948402185
tp207
a(g197
S'973'
p208
F444.35669521011835
tp209
a(g208
S'920'
p210
F365.8646493676239
tp211
a(g210
S'867'
p212
F87.15555536486724
tp213
aF51.822850280786945
g204
S'2012-03-02 08:47:34'
p214
I0
F1022.0617694266314
F342.24384786795395
tp215
a((lp216
(S'920'
p217
g212
F321.6865562395265
tp218
a(g212
S'1191'
p219
F360.6074231124015
tp220
a(g219
S'1124'
p221
F69.97312717833354
tp222
aF45.13602639181569
g214
S'2012-03-02 08:48:34'
p223
I12
F752.2671065302616
F401.2798608306252
tp224
a((lp225
(S'1191'
p226
g221
F278.69092907058194
tp227
a(g221
S'1135'
p228
F864.7731774810748
tp229
a(g228
S'927'
p230
F240.4485615059529
tp231
a(g230
S'959'
p232
F106.9390388791336
tp233
a(g232
S'1170'
p234
F135.9977572931447
tp235
a(g234
S'1066'
p236
F134.29559832461862
tp237
a(g236
S'923'
p238
F203.76793276645955
tp239
aF23.50062054204478
g223
S'2012-03-02 08:53:35'
p240
I42
F1964.9129953209663
F1094.5894565236788
tp241
a((lp242
(S'1066'
p243
g238
F203.7664193135748
tp244
a(g238
S'1066'
p245
F407.53435205726896
tp246
a(g245
S'1213'
p247
F126.00604095646439
tp248
a(g247
S'1066'
p249
F63.003045058211704
tp250
aF205.79396332770511
g240
S'2012-03-02 08:53:49'
p251
I0
F800.3098573855199
F34.63404184584195
tp252
a((lp253
(S'1213'
p254
g249
F63.0029958985286
tp255
a(g249
S'1170'
p256
F134.29559832461862
tp257
a(g256
S'959'
p258
F135.9977572931447
tp259
a(g258
S'806'
p260
F197.56237677218394
tp261
a(g260
S'1207'
p262
F141.0377369821515
tp263
a(g262
S'799'
p264
F101.1060544565955
tp265
a(g264
S'1215'
p266
F216.60117519723585
tp267
a(g266
S'1111'
p268
F235.85216675763905
tp269
a(g268
S'1046'
p270
F224.7758530051457
tp271
a(g270
S'869'
p272
F156.17213501704404
tp273
a(g272
S'986'
p274
F313.4132600262387
tp275
a(g274
S'774'
p276
F231.65772823205882
tp277
aF29.904669562414306
g251
S'2012-03-02 08:58:08'
p278
I11
F2151.474837962585
F1376.102715866195
tp279
a((lp280
(S'986'
p281
g276
F231.65758300061262
tp282
a(g276
S'895'
p283
F268.4210662990969
tp284
a(g283
S'1229'
p285
F249.3697768587104
tp286
a(g285
g184
F127.06717084745576
tp287
aF43.22542670165962
g278
S'2012-03-02 08:59:21'
p288
I0
F876.5155970058756
F478.13212741954527
tp289
a((lp290
(g202
g202
F0.0
tp291
aF5.892468332216388
g288
S'2012-03-02 09:00:53'
p292
I37
F150.58530182330767
F150.67180747384205
tp293
a((lp294
(g202
g184
F550.9532678803733
tp295
a(g184
g169
F585.3164976896943
tp296
a(g169
S'1185'
p297
F401.933419412357
tp298
a(g297
S'777'
p299
F465.5645320107461
tp300
a(g299
S'988'
p301
F428.69502991180303
tp302
a(g301
S'1127'
p303
F76.24863198841386
tp304
aF48.29604793591548
g292
S'2012-03-02 09:04:00'
p305
I22
F2508.7113788933875
F1651.5843138329851
tp306
a((lp307
(S'988'
p308
g303
F76.2486321030234
tp309
a(g303
S'988'
p310
F152.49726409143645
tp311
a(g310
S'777'
p312
F428.69502991180303
tp313
a(g312
S'1185'
p314
F465.5645320107461
tp315
a(g314
S'1073'
p316
F401.933419412357
tp317
a(g316
g176
F585.3164976896943
tp318
a(g176
S'1189'
p319
F541.0596802687863
tp320
a(g319
S'887'
p321
F211.8840444636607
tp322
a(g321
S'1027'
p323
F974.3320508593303
tp324
a(g323
S'887'
p325
F487.1655712218048
tp326
aF1.3487748591629136
g305
S'2012-03-02 12:16:23'
p327
I55
F4324.696722032642
F3668.6809376465335
tp328
a((lp329
(S'1027'
p330
g325
F487.166479678937
tp331
a(g325
g165
F211.8840444636607
tp332
a(g165
g167
F541.0596802687863
tp333
a(g167
g169
F585.3164976896943
tp334
a(g169
g297
F401.933419412357
tp335
a(g297
g299
F465.5645320107461
tp336
a(g299
g301
F428.69502991180303
tp337
a(g301
g303
F152.49726409143645
tp338
a(g303
S'1082'
p339
F6.8306029289612695
tp340
a(g339
S'838'
p341
F427.5037898483401
tp342
a(g341
S'936'
p343
F690.8846058389883
tp344
a(g343
S'873'
p345
F117.95681148015007
tp346
a(g345
S'1292'
p347
F5581.023855259741
tp348
a(g347
S'1325'
p349
F459.79492426068333
tp350
a(g349
S'1371'
p351
F608.3419648915227
tp352
a(g351
S'1250'
p353
F372.02148712378835
tp354
aF55.53276732750607
g327
S'2012-03-02 12:28:51'
p355
I51
F11538.474989159595
F10018.622643357188
tp356
a((lp357
(S'1371'
p358
g353
F57.946198781986105
tp359
a(g353
S'1261'
p360
F299.5365199052857
tp361
a(g360
S'1371'
p362
F15.408115904850618
tp363
aF17.66325005962685
g355
S'2012-03-02 12:30:07'
p364
I0
F372.89083459212236
F55.45846984839223
tp365
a((lp366
(S'1261'
p367
g362
F400.58263507561577
tp368
a(g362
S'1325'
p369
F608.3419648915227
tp370
a(g369
g351
F68.54034592485681
tp371
aF64.64789675351972
g364
S'2012-03-02 12:31:07'
p372
I40
F1077.4649458919953
F940.4549439131059
tp373
a((lp374
(S'1325'
p375
g351
F539.8016189920735
tp376
a(g351
g369
F608.3419648915227
tp377
a(g369
S'1292'
p378
F229.89747588904686
tp379
aF40.00764367081867
g372
S'2012-03-02 12:33:11'
p380
I0
F1378.0410597726432
F324.1398182258736
tp381
a((lp382
(g375
g378
F229.89744837223802
tp383
a(g378
S'873'
p384
F441.30009024063025
tp385
aF5.479163580513211
g380
S'2012-03-02 12:40:32'
p386
I0
F671.1975386128682
F729.9720171914134
tp387
a((lp388
(S'1292'
p389
g384
F5139.723779518084
tp390
a(g384
S'936'
p391
F117.95681148015007
tp392
a(g391
S'791'
p393
F263.909236928096
tp394
a(g393
S'1107'
p395
F226.13434667854332
tp396
a(g395
S'1044'
p397
F278.424131296127
tp398
a(g397
S'778'
p399
F302.5121384580218
tp400
a(g399
S'963'
p401
F513.8652496215955
tp402
a(g401
S'994'
p403
F521.73314507341
tp404
a(g403
S'814'
p405
F15.491722285946167
tp406
aF111.15942268127156
g386
S'2012-03-02 12:44:31'
p407
I0
F7379.7505613399735
F4361.170163075562
tp408
a((lp409
(S'994'
p410
g405
F359.87067703643896
tp411
a(g405
S'991'
p412
F594.5517113284113
tp413
a(g412
S'874'
p414
F19.245572510257222
tp415
aF28.968633546697415
g407
S'2012-03-02 12:46:32'
p416
I61
F973.6679608751076
F612.7628801415391
tp417
a((lp418
(S'991'
p419
g414
F217.83071826757256
tp420
a(g414
S'991'
p421
F237.07629077782101
tp422
a(g421
S'974'
p423
F8.37149092928046
tp424
aF42.76416922843145
g416
S'2012-03-02 12:47:11'
p425
I0
F463.27849997467405
F56.63340424701819
tp426
a((lp427
(g419
g423
F647.7923851485806
tp428
a(g423
S'1062'
p429
F183.41867360754313
tp430
a(g429
S'1061'
p431
F221.44961548283868
tp432
aF36.09122311676443
g425
S'2012-03-02 12:48:56'
p433
I37
F1052.6606742389624
F678.2939968278354
tp434
a((lp435
(S'1062'
p436
g431
F221.44968267532803
tp437
a(g431
S'1062'
p438
F442.8992981334369
tp439
a(g438
S'1150'
p440
F194.7563084101235
tp441
a(g440
S'1016'
p442
F476.5728920163904
tp443
a(g442
S'895'
p444
F364.23495779569595
tp445
a(g444
g285
F249.3697768587104
tp446
a(g285
g197
F124.68490737910783
tp447
aF68.49801985107939
g433
S'2012-03-02 12:50:45'
p448
I42
F2073.967823268793
F930.5752513343705
tp449
a((lp450
(g202
g202
F0.0
tp451
aF0.4291559512214168
g448
S'2012-03-02 12:52:32'
p452
I0
F12.755468550192111
F463.1767902379375
tp453
a((lp454
(g202
g197
F137.44033803397392
tp455
a(g197
S'774'
p456
F268.4210662990969
tp457
a(g456
S'986'
p458
F463.31531120431856
tp459
a(g458
S'1218'
p460
F211.67355320611276
tp461
aF38.14765654388832
g452
S'2012-03-02 12:54:14'
p462
I38
F1080.8502687435023
F571.4119994653491
tp463
a((lp464
(g281
g460
F211.67350826537785
tp465
a(g460
S'1045'
p466
F380.2508287917065
tp467
a(g466
S'844'
p468
F161.05814139702346
tp469
a(g468
S'1111'
p470
F216.35782443809995
tp471
a(g470
S'1215'
p472
F235.85216675763905
tp473
a(g472
S'799'
p474
F108.3006930785425
tp475
aF78.80958976370336
g462
S'2012-03-02 12:55:14'
p476
I42
F1313.4931627283893
F436.28549569191165
tp477
a((lp478
(S'1215'
p479
g479
F0.0
tp480
aF0.0
g476
S'2012-03-02 13:12:45'
p481
I14
F0.0
F24.139818647061574
tp482
a((lp483
(g479
g474
F108.30048212169622
tp484
a(g474
S'844'
p485
F240.77579445686675
tp486
a(g485
S'1045'
p487
F80.52906084177697
tp488
aF25.776320245220397
g481
S'2012-03-02 13:13:45'
p489
I22
F429.60533742033994
F437.60986289417684
tp490
a((lp491
(S'844'
p492
g487
F80.52908055539564
tp493
a(g487
S'1218'
p494
F380.2508287917065
tp495
a(g494
S'1191'
p496
F264.7542280364345
tp497
a(g496
S'1218'
p498
F132.37711583648567
tp499
aF71.82512817656001
g489
S'2012-03-02 13:14:28'
p500
I33
F857.9112532200224
F298.2390686990312
tp501
a((lp502
(g226
g498
F132.37711219999466
tp503
a(g498
g496
F264.7542280364345
tp504
a(g496
S'973'
p505
F412.40913364934164
tp506
a(g505
g210
F182.93232458689576
tp507
aF255.20729103582852
g500
S'2012-03-02 13:14:42'
p508
I0
F992.4727984726666
F51.567095329370574
tp509
a((lp510
(S'973'
p511
g210
F182.93232478073145
tp512
a(g210
S'973'
p513
F365.8646493676239
tp514
a(g513
S'895'
p515
F222.17837349862467
tp516
aF23.1292604294094
g508
S'2012-03-02 13:16:42'
p517
I27
F770.9753476469799
F896.198652886366
tp518
a((lp519
(g511
g515
F222.1783217364848
tp520
a(g515
g285
F249.3697768587104
tp521
a(g285
g184
F248.66319853746927
tp522
aF31.238080357561344
g517
S'2012-03-02 13:18:05'
p523
I31
F720.2112971326644
F489.1417467384085
tp524
a((lp525
(g202
g184
F579.9425419993219
tp526
a(g184
g169
F585.3164976896943
tp527
a(g169
S'1151'
p528
F8.892208407956126
tp529
aF29.767214740486622
g523
S'2012-03-02 13:20:27'
p530
I22
F1174.1512480969723
F733.5601557067945
tp531
a((lp532
(S'1073'
p533
g528
F745.0063901678219
tp534
a(g528
S'1073'
p535
F753.8985985699695
tp536
a(g535
g297
F401.933419412357
tp537
a(g297
S'1061'
p538
F186.6367659651378
tp539
aF123.19525617729559
g530
S'2012-03-02 13:21:28'
p540
I0
F2087.4751741152863
F33.302440036801514
tp541
a((lp542
(S'1185'
p543
g543
F0.0
tp544
aF0.0
g540
S'2012-03-02 13:22:28'
p545
I0
F0.0
F12.821853423281
tp546
a((lp547
(g543
g538
F186.6371677035762
tp548
a(g538
S'1185'
p549
F373.27393365369306
tp550
a(g549
g316
F401.933419412357
tp551
a(g316
g176
F585.3164976896943
tp552
a(g176
g319
F37.11102829127768
tp553
aF39.883771806308765
g545
S'2012-03-02 13:24:51'
p554
I0
F1584.2720467505983
F631.2129198372461
tp555
a((lp556
(g174
g319
F503.9486519798556
tp557
a(g319
g321
F124.6034192863449
tp558
aF37.713124275972035
g554
S'2012-03-02 13:25:51'
p559
I31
F628.5520712662005
F627.2792880638777
tp560
a((lp561
(S'1189'
p562
g321
F87.28062517790906
tp563
a(g321
g165
F211.8840444636607
tp564
a(g165
g167
F270.52965352844495
tp565
aF28.885909343831734
g559
S'2012-03-02 13:27:02'
p566
I3
F569.6943231700147
F20.802808700806576
tp567
a((lp568
(g562
g167
F270.53002674972004
tp569
a(g167
g319
F541.0596802687863
tp570
a(g319
g321
F211.8840444636607
tp571
a(g321
g323
F974.3320508593303
tp572
a(g323
S'842'
p573
F54.21176934563721
tp574
aF54.72046857832358
g566
S'2012-03-02 13:29:17'
p575
I0
F2052.0175716871345
F612.0979631437061
tp576
a((lp577
(g330
g573
F54.21170407237851
tp578
a(g573
S'929'
p579
F138.91582185729666
tp580
a(g579
S'414'
p581
F303.12038890948725
tp582
a(g581
S'203'
p583
F110.55925503297553
tp584
a(g583
S'431'
p585
F369.98613606887915
tp586
a(g585
S'392'
p587
F457.83618440901
tp588
a(g587
S'270'
p589
F95.85961614434376
tp590
a(g589
S'433'
p591
F330.3168336032497
tp592
a(g591
S'372'
p593
F585.0976094380715
tp594
a(g593
S'97'
p595
F63.758701035611004
tp596
a(g595
S'413'
p597
F1079.6824743926077
tp598
a(g597
S'182'
p599
F501.6805211022033
tp600
a(g599
S'274'
p601
F3369.3816751715854
tp602
aF58.25914298580416
g575
S'2012-03-02 13:36:58'
p603
I12
F7460.4069212377
F4331.43975348496
tp604
a.