(lp0
((lp1
(S'1154'
p2
S'873'
p3
F329.8313892272522
tp4
a(g3
S'1292'
p5
F2790.4800623446363
tp6
aF187.2186870943133
S'2012-03-02 07:04:28'
p7
S'2012-03-02 07:05:28'
p8
I75
F3120.3114515718885
F666.371240645436
tp9
a((lp10
(S'873'
p11
g5
F2790.5438426946735
tp12
a(g5
S'873'
p13
F5581.023855259741
tp14
a(g13
S'817'
p15
F214.99477288859876
tp16
a(g15
S'909'
p17
F286.06989179438705
tp18
a(g17
S'1139'
p19
F384.6361930519455
tp20
a(g19
S'1160'
p21
F999.898841596365
tp22
a(g21
S'1113'
p23
F282.7294827992773
tp24
a(g23
S'906'
p25
F504.1784455245772
tp26
a(g25
S'830'
p27
F1055.3265253741486
tp28
a(g27
S'942'
p29
F565.0355820413071
tp30
a(g29
S'1056'
p31
F259.19830405018683
tp32
a(g31
S'1015'
p33
F555.5730496771731
tp34
a(g33
S'1056'
p35
F277.7865232372502
tp36
aF156.23086156455102
g8
S'2012-03-02 07:10:45'
p37
I24
F13756.995309989632
F2438.7207588215424
tp38
a((lp39
(S'1015'
p40
g40
F0.0
tp41
aF12.661949734917108
g37
S'2012-03-02 07:11:38'
p42
I20
F186.41203776405743
F297.8456752181403
tp43
a((lp44
(g40
g35
F464.198564204018
tp45
a(g35
S'942'
p46
F259.19830405018683
tp47
a(g46
S'830'
p48
F565.0355820413071
tp49
a(g48
S'906'
p50
F1055.3265253741486
tp51
a(g50
S'1113'
p52
F504.1784455245772
tp53
a(g52
g25
F252.0890413053084
tp54
aF93.00079387498639
g42
S'2012-03-02 07:13:38'
p55
I0
F3100.026462499546
F422.9401075150392
tp56
a((lp57
(S'1113'
p58
g25
F252.08940425577936
tp59
a(g25
g52
F504.1784455245772
tp60
a(g52
S'1160'
p61
F282.7294827992773
tp62
a(g61
S'1139'
p63
F999.898841596365
tp64
a(g63
S'909'
p65
F384.6361930519455
tp66
a(g65
S'817'
p67
F286.06989179438705
tp68
a(g67
S'873'
p69
F214.99477288859876
tp70
a(g69
S'1154'
p71
F329.8313892272522
tp72
aF27.828841605932197
g55
S'2012-03-02 07:20:39'
p73
I0
F3254.428421138182
F2256.462504042716
tp74
a((lp75
(g11
g71
F329.8328088956252
tp76
a(g71
S'967'
p77
F633.0663908294133
tp78
a(g77
S'900'
p79
F217.51739317672622
tp80
a(g79
S'809'
p81
F337.39539286240483
tp82
aF91.06871914585018
g73
S'2012-03-02 07:21:39'
p83
I68
F1517.8119857641695
F1157.634860770119
tp84
a((lp85
(S'900'
p86
g81
F337.39885379462476
tp87
a(g81
S'1157'
p88
F755.0004704445299
tp89
a(g88
S'901'
p90
F329.43858562166434
tp91
a(g90
S'1232'
p92
F500.4166198457959
tp93
a(g92
S'1151'
p94
F572.8013873462398
tp95
a(g94
S'1036'
p96
F499.30418929770127
tp97
a(g96
S'989'
p98
F786.7860140536283
tp99
a(g98
S'887'
p100
F412.0125736885612
tp101
aF3.4229866890553025
g83
S'2012-03-02 08:35:09'
p102
I70
F4193.1586940927455
F3332.095350565313
tp103
a((lp104
(S'989'
p105
g100
F278.9037647609724
tp106
a(g100
S'820'
p107
F521.3918988810026
tp108
aF77.86660511111108
g102
S'2012-03-02 08:35:46'
p109
I42
F800.295663641975
F245.37216469828928
tp110
a((lp111
(S'887'
p112
g107
F521.3878162028419
tp113
a(g107
S'970'
p114
F247.7378419176489
tp115
a(g114
S'1069'
p116
F150.0952898730258
tp117
aF30.359590942905136
g109
S'2012-03-02 08:37:35'
p118
I0
F919.2209479935166
F665.8861936797937
tp119
a((lp120
(S'970'
p121
g116
F150.09488234932238
tp122
a(g116
S'970'
p123
F300.1901722143531
tp124
a(g123
S'774'
p125
F188.66800201074003
tp126
aF38.33718339446492
g118
S'2012-03-02 08:38:35'
p127
I31
F638.9530565744154
F480.66720667967365
tp128
a((lp129
(g121
g125
F188.66843989381914
tp130
a(g125
S'970'
p131
F377.3364418971982
tp132
a(g131
g116
F300.1901722143531
tp133
a(g116
S'860'
p134
F231.70867622577373
tp135
a(g134
S'1030'
p136
F230.54817177966603
tp137
a(g136
S'1215'
p138
F229.64658602255514
tp139
a(g138
S'799'
p140
F216.60117519723585
tp141
a(g140
S'1207'
p142
F101.1060544565955
tp143
a(g142
S'806'
p144
F70.51891718618961
tp145
aF58.38973904620158
g127
S'2012-03-02 08:40:35'
p146
I16
F1946.324634873386
F943.3577421633161
tp147
a((lp148
(S'1207'
p149
g144
F70.51881979679669
tp150
a(g144
S'1020'
p151
F68.75482386085511
tp152
aF71.6264453096495
g146
S'2012-03-02 08:40:42'
p153
I0
F139.2736436576518
F1.4960666825351305
tp154
a((lp155
(S'806'
p156
g151
F68.75480325342474
tp157
a(g151
S'806'
p158
F137.50962711414766
tp159
a(g158
S'921'
p160
F107.48268907765393
tp161
a(g160
S'813'
p162
F182.17650096521103
tp163
a(g162
S'955'
p164
F56.66466961496389
tp165
a(g164
S'844'
p166
F135.70247565144197
tp167
a(g166
S'1045'
p168
F161.05814139702346
tp169
a(g168
S'869'
p170
F4.3990694728664925
tp171
aF33.04830876955096
g153
S'2012-03-02 08:42:15'
p172
I0
F853.7479765467331
F148.66500384365708
tp173
a((lp174
(S'1045'
p175
g170
F438.7783893324886
tp176
a(g170
S'1046'
p177
F156.17213501704404
tp178
a(g177
S'1030'
p179
F233.06353457732175
tp180
a(g179
S'1203'
p181
F110.13414101381557
tp182
a(g181
S'818'
p183
F115.08878908444478
tp184
aF51.23855622284342
g172
S'2012-03-02 08:43:29'
p185
I0
F1053.2369890251148
F56.235183481132104
tp186
a((lp187
(S'1203'
p188
g183
F115.08858076068931
tp189
a(g183
S'1215'
p190
F104.64593136867637
tp191
a(g190
S'1030'
p192
F229.64658602255514
tp193
a(g192
S'860'
p194
F230.54817177966603
tp195
a(g194
S'1069'
p196
F231.70867622577373
tp197
a(g196
g123
F150.09488234932238
tp198
aF47.188125711408134
g185
S'2012-03-02 08:44:50'
p199
I0
F1061.732828506683
F394.9643576670201
tp200
a((lp201
(S'1069'
p202
g202
F0.0
tp203
aF0.6304776452511904
g199
S'2012-03-02 08:45:50'
p204
I25
F10.507960754186506
F480.6156461763468
tp205
a((lp206
(g202
g123
F160.60325062696393
tp207
a(g123
g125
F377.3364418971982
tp208
a(g125
S'895'
p209
F268.4210662990969
tp210
a(g209
S'1016'
p211
F182.11747827519673
tp212
aF37.06793389119209
g204
S'2012-03-02 08:47:26'
p213
I40
F988.4782370984557
F386.5470175577035
tp214
a((lp215
(S'895'
p216
g211
F182.11747952052085
tp217
a(g211
S'895'
p218
F364.23495779569595
tp219
a(g218
S'774'
p220
F268.4210662990969
tp221
a(g220
g131
F377.3364418971982
tp222
a(g131
g116
F300.1901722143531
tp223
a(g116
g134
F231.70867622577373
tp224
a(g134
g136
F230.54817177966603
tp225
a(g136
g138
F229.64658602255514
tp226
a(g138
g140
F216.60117519723585
tp227
a(g140
g142
F101.1060544565955
tp228
a(g142
g144
F141.0377369821515
tp229
a(g144
S'959'
p230
F197.56237677218394
tp231
a(g230
S'1213'
p232
F79.63684457582836
tp233
aF56.82449655708041
g213
S'2012-03-02 08:50:31'
p234
I9
F2920.1477397388544
F957.3497508083806
tp235
a((lp236
(S'959'
p237
g232
F79.63669663332959
tp238
a(g232
S'959'
p239
F159.27354120793285
tp240
a(g239
S'806'
p241
F197.56237677218394
tp242
a(g241
g151
F68.75482386085511
tp243
aF16.84091461581005
g234
S'2012-03-02 08:52:19'
p244
I0
F505.2274384743015
F496.88398597528544
tp245
a((lp246
(g156
g151
F68.75480325342474
tp247
a(g151
S'1145'
p248
F138.3852165812993
tp249
a(g248
S'1104'
p250
F725.1024325879025
tp251
a(g250
S'12'
p252
F340.35709427387536
tp253
a(g252
S'307'
p254
F168.43690802019574
tp255
aF45.909125990974445
g244
S'2012-03-02 08:54:12'
p256
I0
F1441.0364547166978
F725.8582715558401
tp257
a((lp258
(S'12'
p259
g254
F168.43627008119236
tp260
a(g254
S'12'
p261
F336.87317808984017
tp262
a(g261
S'1104'
p263
F340.35709427387536
tp264
a(g263
S'1145'
p265
F725.1024325879025
tp266
a(g265
S'1028'
p267
F210.6065185280842
tp268
a(g267
S'772'
p269
F230.208379433524
tp270
a(g269
S'1203'
p271
F143.30202102050836
tp272
a(g271
S'790'
p273
F230.2415955502278
tp274
a(g273
S'860'
p275
F54.06716616285325
tp276
aF20.186438530162825
g256
S'2012-03-02 09:01:27'
p277
I0
F2439.194655728008
F1319.8829043474802
tp278
a((lp279
(S'790'
p280
g275
F54.06717456425333
tp281
a(g275
g196
F231.70867622577373
tp282
a(g196
g123
F300.1901722143531
tp283
a(g123
g125
F377.3364418971982
tp284
a(g125
g209
F33.76779926387514
tp285
aF25.457113127628606
g277
S'2012-03-02 09:03:48'
p286
I37
F997.0702641654536
F623.2650616155363
tp287
a((lp288
(S'774'
p289
g209
F234.65326703526785
tp290
a(g209
S'973'
p291
F444.35669521011835
tp292
a(g291
S'920'
p293
F365.8646493676239
tp294
a(g293
S'867'
p295
F204.42107961437014
tp296
aF74.95774147364283
g286
S'2012-03-02 09:04:48'
p297
I31
F1249.2956912273803
F386.2389637186583
tp298
a((lp299
(S'920'
p300
g295
F204.42103199643964
tp301
a(g295
S'1191'
p302
F360.6074231124015
tp303
a(g302
S'973'
p304
F412.40913364934164
tp305
a(g304
S'1191'
p306
F206.2045647552044
tp307
aF109.25927570892804
g297
S'2012-03-02 09:05:27'
p308
I24
F1183.6421535133873
F74.38060676929841
tp309
a((lp310
(S'973'
p311
g306
F206.2045689141139
tp312
a(g306
S'867'
p313
F360.6074231124015
tp314
a(g313
S'920'
p315
F408.84211159134935
tp316
a(g315
S'1016'
p317
F448.76378212167555
tp318
a(g317
g218
F281.5538748233419
tp319
aF51.179152816886464
g308
S'2012-03-02 09:07:27'
p320
I27
F1705.971760562882
F338.627488662008
tp321
a((lp322
(S'1016'
p323
g218
F82.6810829723764
tp324
a(g218
S'1229'
p325
F249.3697768587104
tp326
a(g325
S'987'
p327
F828.6057404004235
tp328
a(g327
S'1073'
p329
F16.478004163617562
tp330
aF29.225410867741104
g320
S'2012-03-02 09:09:52'
p331
I12
F1177.1346043951278
F973.8908308413831
tp332
a((lp333
(S'987'
p334
g329
F568.8384935273561
tp335
a(g329
S'1151'
p336
F753.8985985699695
tp337
a(g336
S'1232'
p338
F286.4005288174328
tp339
aF33.29250250168466
g331
S'2012-03-02 09:12:46'
p340
I0
F1609.1376209147586
F998.2747079349894
tp341
a((lp342
(S'1151'
p343
g343
F0.0
tp344
aF0.0
g340
S'2012-03-02 09:12:57'
p345
I5
F0.0
F2.0936703412129845
tp346
a((lp347
(g343
g338
F286.4008585376268
tp348
a(g338
g94
F572.8013873462398
tp349
a(g94
g96
F499.30418929770127
tp350
a(g96
S'987'
p351
F700.189491494048
tp352
a(g351
S'1189'
p353
F541.0596802687863
tp354
a(g353
S'987'
p355
F270.52965352844495
tp356
aF1.90716628602847
g345
S'2012-03-02 10:43:15'
p357
I0
F2870.2852604728473
F1405.274393564477
tp358
a((lp359
(S'1189'
p360
g355
F270.53002674972004
tp361
a(g355
g329
F585.3164976896943
tp362
a(g329
S'1185'
p363
F401.933419412357
tp364
a(g363
S'777'
p365
F465.5645320107461
tp366
a(g365
S'988'
p367
F428.69502991180303
tp368
a(g367
S'1127'
p369
F152.49726409143645
tp370
a(g369
S'967'
p371
F190.65766483400054
tp372
a(g371
S'1154'
p373
F633.0663908294133
tp374
a(g373
g3
F329.8328088956252
tp375
aF51.87140451637193
g357
S'2012-03-02 10:47:15'
p376
I0
F3458.0936344247953
F3341.897773620294
tp377
a((lp378
(g2
g3
F329.8313892272522
tp379
a(g3
g5
F5581.023855259741
tp380
a(g5
S'1286'
p381
F873.144134384409
tp382
a(g381
S'1367'
p383
F722.8074771960407
tp384
a(g383
S'1347'
p385
F75.20003428675591
tp386
aF61.8939337988098
g376
S'2012-03-02 10:54:36'
p387
I74
F7582.0068903542
F7285.952473300942
tp388
a((lp389
(S'1367'
p390
g385
F613.551801550582
tp391
a(g385
S'1367'
p392
F688.7518358012903
tp393
a(g392
S'1279'
p394
F341.78005737059686
tp395
aF159.96490002705107
g387
S'2012-03-02 10:55:13'
p396
I33
F1644.0836947224693
F197.03902173948126
tp397
a((lp398
(g390
g394
F341.7800573568124
tp399
a(g394
S'1367'
p400
F683.5601147274087
tp401
a(g400
g385
F322.7245126248209
tp402
aF242.6516432476276
g396
S'2012-03-02 10:55:33'
p403
I0
F1348.064684709042
F50.77236140688201
tp404
a((lp405
(g390
g385
F366.02732326891925
tp406
a(g385
S'1394'
p407
F257.0060428400835
tp408
aF47.72170463813639
g403
S'2012-03-02 10:56:20'
p409
I25
F623.0333661090028
F84.57029450867076
tp410
a((lp411
(S'1347'
p412
g407
F257.00597265301525
tp413
a(g407
S'1347'
p414
F514.0120154544768
tp415
a(g414
S'1354'
p416
F263.90845312637975
tp417
a(g416
S'1294'
p418
F247.93670054049184
tp419
aF87.13787378090016
g409
S'2012-03-02 10:57:13'
p420
I25
F1282.8631417743636
F273.31304662083403
tp421
a((lp422
(S'1354'
p423
g418
F247.93657684377476
tp424
a(g418
S'1354'
p425
F495.8732773813718
tp426
a(g425
S'1347'
p427
F263.90845312637975
tp428
a(g427
g407
F257.0060428400835
tp429
aF82.78195746708718
g420
S'2012-03-02 10:58:08'
p430
I0
F1264.7243501916098
F3.3821721953331876
tp431
a((lp432
(g412
g407
F257.00597265301525
tp433
a(g407
g414
F514.0120154544768
tp434
a(g414
g416
F69.00045015955558
tp435
aF54.001185317167355
g430
S'2012-03-02 10:59:04'
p436
I0
F840.0184382670477
F50.20458730774753
tp437
a((lp438
(g412
g416
F194.9080029713557
tp439
a(g416
g418
F263.82587576547394
tp440
aF27.52403272420978
g436
S'2012-03-02 11:00:04'
p441
I24
F458.73387873682964
F386.9447799466036
tp442
a((lp443
(g423
g423
F0.0
tp444
aF17.360342619744593
g441
S'2012-03-02 11:00:49'
p445
I38
F217.00428274680743
F217.44340801395953
tp446
a((lp447
(g423
g418
F15.043118872103232
tp448
a(g418
S'1335'
p449
F464.9128138057232
tp450
a(g449
S'1334'
p451
F112.75945498202559
tp452
aF35.56292325959112
g445
S'2012-03-02 11:01:49'
p453
I29
F592.715387659852
F468.37881629846174
tp454
a((lp455
(S'1335'
p456
g451
F238.94434743222214
tp457
a(g451
S'1381'
p458
F552.4185230642412
tp459
a(g458
S'1378'
p460
F486.319094641144
tp461
a(g460
S'1300'
p462
F195.5525912949026
tp463
a(g462
S'1328'
p464
F1023.4121880864786
tp465
a(g464
S'1377'
p466
F328.35338240576175
tp467
a(g466
S'1395'
p468
F573.4757749753169
tp469
a(g468
S'1282'
p470
F16.778810973310545
tp471
aF63.70423298623917
g453
S'2012-03-02 11:05:02'
p472
I25
F3415.2547128733777
F1481.175333806762
tp473
a((lp474
(S'1395'
p475
g470
F503.36292894076473
tp476
a(g470
S'1389'
p477
F262.3624076285935
tp478
a(g477
S'1330'
p479
F389.4707510404453
tp480
a(g479
S'1264'
p481
F612.8101096718462
tp482
a(g481
S'1402'
p483
F228.23448105151797
tp484
a(g483
S'1284'
p485
F532.13818844487
tp486
a(g485
S'1303'
p487
F393.0490934460226
tp488
a(g487
S'451'
p489
F82.49667342354607
tp490
aF18.23630468993488
g472
S'2012-03-02 11:14:55'
p491
I37
F3003.9246336476062
F1680.9293307363032
tp492
a((lp493
(S'1303'
p494
g489
F476.2334039562602
tp495
a(g489
S'1402'
p496
F391.4745659135401
tp497
a(g496
g485
F532.13818844487
tp498
a(g485
S'871'
p499
F365.5542327430593
tp500
aF635.5441407807828
g491
S'2012-03-02 11:15:05'
p501
I0
F1765.4003910577298
F60.49941086842366
tp502
a((lp503
(S'1284'
p504
g499
F365.5560589475872
tp505
a(g499
S'1137'
p506
F404.8816121047468
tp507
a(g506
S'1072'
p508
F413.7618398450044
tp509
aF71.0519706538403
g501
S'2012-03-02 11:16:05'
p510
I31
F1184.1995108973383
F550.1852970617865
tp511
a((lp512
(S'1137'
p513
g508
F413.7603273962519
tp514
a(g508
S'1137'
p515
F827.5221670782628
tp516
a(g515
S'871'
p517
F404.8816121047468
tp518
a(g517
g506
F202.44083653138995
tp519
aF190.14222271995274
g510
S'2012-03-02 11:16:40'
p520
I42
F1848.6049431106514
F129.59459393412564
tp521
a((lp522
(S'871'
p523
g506
F202.4407755745264
tp524
a(g506
g508
F288.2652054645064
tp525
aF16.059468470368344
g520
S'2012-03-02 11:18:30'
p526
I0
F490.7059810390328
F599.223872061441
tp527
a((lp528
(g513
g508
F539.2569617618265
tp529
a(g508
S'271'
p530
F82.15574931429687
tp531
aF37.2847626645674
g526
S'2012-03-02 11:19:30'
p532
I31
F621.4127110761233
F621.8248285479104
tp533
a((lp534
(S'1072'
p535
g530
F372.983126058193
tp536
a(g530
S'336'
p537
F145.7434125243181
tp538
a(g537
S'5'
p539
F276.60213113766173
tp540
a(g539
S'231'
p541
F373.65454097386885
tp542
a(g541
S'101'
p543
F2128.2368240663845
tp544
a(g543
S'307'
p545
F516.3741780275716
tp546
a(g545
g261
F336.87317808984017
tp547
a(g261
S'324'
p548
F348.33486400960794
tp549
a(g548
S'233'
p550
F522.2079091612247
tp551
a(g550
S'1222'
p552
F314.42150737049457
tp553
a(g552
S'886'
p554
F498.13109666342655
tp555
a(g554
S'1233'
p556
F203.95830291726205
tp557
a(g556
S'820'
p558
F255.3750506846333
tp559
a(g558
S'887'
p560
F1042.7797147525323
tp561
a(g560
S'989'
p562
F690.9163383539549
tp563
a(g562
g100
F33.201121644429335
tp564
aF1.3398252616904072
g532
S'2012-03-02 17:20:26'
p565
I37
F8059.793296435404
F5900.091511387011
tp566
a((lp567
(g105
g105
F0.0
tp568
aF24.043740810180935
g565
S'2012-03-02 17:21:26'
p569
I22
F400.7290135030156
F400.8766062794216
tp570
a((lp571
(g105
g100
F256.98620330628165
tp572
a(g100
g107
F521.3918988810026
tp573
aF175.13507299213896
g569
S'2012-03-02 17:21:42'
p574
I9
F778.3781021872842
F15.298294008681816
tp575
a((lp576
(g112
g107
F521.3878162028419
tp577
a(g107
g560
F1042.7797147525323
tp578
a(g560
g562
F690.9163383539549
tp579
a(g562
g100
F498.4095330530295
tp580
aF450.571647659295
g574
S'2012-03-02 17:22:04'
p581
I0
F2753.4934023623587
F49.08905068553341
tp582
a((lp583
(g105
g100
F192.50680538075184
tp584
a(g100
S'1189'
p585
F211.8840444636607
tp586
a(g585
g355
F541.0596802687863
tp587
a(g355
g329
F292.6580334691347
tp588
aF74.28651381494002
g581
S'2012-03-02 17:23:04'
p589
I18
F1238.1085635823335
F317.48557319032767
tp590
a((lp591
(g334
g329
F292.6584642322717
tp592
a(g329
S'987'
p593
F585.3164976896943
tp594
a(g593
S'1036'
p595
F14.107929076159355
tp596
aF91.75709735980719
g589
S'2012-03-02 17:23:39'
p597
I40
F892.0828909981254
F200.7892296843324
tp598
a((lp599
(g334
g595
F686.0815624263242
tp600
a(g595
g351
F700.189491494048
tp601
a(g351
g329
F292.6580334691347
tp602
aF49.13938792359532
g597
S'2012-03-02 17:25:42'
p603
I0
F1678.929087389507
F269.8784430589837
tp604
a((lp605
(g334
g329
F292.6584642322717
tp606
a(g329
g363
F401.933419412357
tp607
a(g363
S'1061'
p608
F186.6367659651378
tp609
aF44.06143248048833
g603
S'2012-03-02 17:26:54'
p610
I24
F881.2286496097665
F523.7374442034106
tp611
a((lp612
(S'1185'
p613
g608
F186.6371677035762
tp614
a(g608
S'1185'
p615
F373.27393365369306
tp616
a(g615
g365
F232.78220771594508
tp617
aF66.36502122473422
g610
S'2012-03-02 17:27:37'
p618
I0
F792.6933090732143
F28.61092910753624
tp619
a((lp620
(g613
g365
F232.78232429736136
tp621
a(g365
S'1185'
p622
F465.5645320107461
tp623
a(g622
S'1073'
p624
F401.933419412357
tp625
a(g624
g363
F354.84453066596456
tp626
aF87.30748838318574
g618
S'2012-03-02 17:28:37'
p627
I5
F1455.124806386429
F396.6286543093784
tp628
a((lp629
(S'1073'
p630
g363
F47.08888874895749
tp631
a(g363
g608
F373.27393365369306
tp632
a(g608
g615
F186.6371677035762
tp633
aF25.70823487508725
g627
S'2012-03-02 17:30:02'
p634
I5
F606.9999901062267
F46.53092768864804
tp635
a((lp636
(S'1061'
p637
g615
F186.6367659651378
tp638
a(g615
g365
F66.12199092756444
tp639
aF28.435360150429005
g634
S'2012-03-02 17:30:34'
p640
I1
F252.75875689270225
F64.43136519013748
tp641
a((lp642
(g613
g365
F399.4425410844161
tp643
a(g365
g622
F465.5645320107461
tp644
a(g622
g608
F69.87696472828843
tp645
aF49.49386082594739
g640
S'2012-03-02 17:31:42'
p646
I22
F934.8840378234506
F251.89736607050918
tp647
a((lp648
(g613
g608
F303.3969689345281
tp649
a(g608
g615
F373.27393365369306
tp650
a(g615
g365
F373.4488431626992
tp651
aF94.51077711758283
g646
S'2012-03-02 17:32:22'
p652
I0
F1050.1197457509204
F55.42419924838646
tp653
a((lp654
(g613
g365
F92.11568884965872
tp655
a(g365
g367
F428.69502991180303
tp656
a(g367
g369
F152.49726409143645
tp657
a(g369
S'1082'
p658
F6.8306029289612695
tp659
a(g658
S'900'
p660
F202.63300154119344
tp661
aF25.02344656978733
g652
S'2012-03-02 17:34:29'
p662
I5
F882.7715873230529
F496.33563672625604
tp663
a((lp664
(S'1082'
p665
g660
F202.633294358626
tp666
a(g660
S'1082'
p667
F405.2662958943754
tp668
a(g667
S'1127'
p669
F3.4153016754152574
tp670
aF36.678893515705
g662
S'2012-03-02 17:35:29'
p671
I25
F611.3148919284166
F332.6605039027209
tp672
a((lp673
(g665
g669
F3.4153012535461205
tp674
a(g669
g658
F6.8306029289612695
tp675
a(g658
S'796'
p676
F137.28505847111882
tp677
a(g676
S'1032'
p678
F361.8967412680692
tp679
a(g678
S'903'
p680
F252.73118138571948
tp681
aF182.9181324737796
g671
S'2012-03-02 17:35:44'
p682
I1
F762.158885307415
F7.4810171526298515
tp683
a((lp684
(S'1032'
p685
g680
F252.7311593741106
tp686
a(g680
S'777'
p687
F350.9006773558848
tp688
a(g687
g367
F428.69502991180303
tp689
a(g367
S'937'
p690
F84.85729485795852
tp691
a(g690
S'1061'
p692
F465.30118275375077
tp693
aF111.70484782965937
g682
S'2012-03-02 17:36:35'
p694
I0
F1582.4853442535077
F105.28809170629467
tp695
a((lp696
(S'937'
p697
g692
F465.29785488945123
tp698
a(g692
S'937'
p699
F930.5990375079346
tp700
a(g699
S'988'
p701
F84.85729485795852
tp702
a(g701
g369
F152.49726409143645
tp703
a(g369
g658
F6.8306029289612695
tp704
a(g658
g676
F0.7002666602468619
tp705
aF131.26258567487912
g694
S'2012-03-02 17:37:20'
p706
I0
F1640.7823209359888
F57.31169786714033
tp707
a((lp708
(g665
g676
F136.58479181102817
tp709
a(g676
S'937'
p710
F117.72042469973982
tp711
a(g710
g692
F465.30118275375077
tp712
aF112.63404510227251
g706
S'2012-03-02 17:37:43'
p713
I24
F719.6063992645188
F50.35952086336173
tp714
a((lp715
(g697
g692
F465.29785488945123
tp716
a(g692
g699
F930.5990375079346
tp717
a(g699
g701
F84.85729485795852
tp718
a(g701
g369
F152.49726409143645
tp719
a(g369
g658
F6.8306029289612695
tp720
a(g658
g676
F83.07050143563322
tp721
aF57.4384185237125
g713
S'2012-03-02 17:39:31'
p722
I0
F1723.152555711375
F33.40132936838947
tp723
a((lp724
(g665
g676
F54.21455703553217
tp725
a(g676
S'988'
p726
F37.46020309095503
tp727
a(g726
S'777'
p728
F311.73227079907537
tp729
aF24.204421855533756
g722
S'2012-03-02 17:40:31'
p730
I7
F403.4070309255626
F386.80031713794574
tp731
a((lp732
(S'988'
p733
g728
F116.96275911274832
tp734
a(g728
g622
F465.5645320107461
tp735
a(g622
g624
F401.933419412357
tp736
a(g624
g593
F585.3164976896943
tp737
a(g593
g353
F541.0596802687863
tp738
a(g353
S'887'
p739
F211.8840444636607
tp740
a(g739
g107
F21.893757093641806
tp741
aF35.614400355214705
g730
S'2012-03-02 17:44:28'
p742
I33
F2344.6146900516346
F2503.750529198429
tp743
a((lp744
(g112
g107
F1020.8859576862741
tp745
a(g107
g560
F1042.7797147525323
tp746
a(g560
g585
F211.8840444636607
tp747
a(g585
g739
F105.94205205410044
tp748
aF142.88950613739405
g742
S'2012-03-02 17:45:28'
p749
I0
F2381.4917689565673
F15.037728663997092
tp750
a((lp751
(g360
g739
F105.9419924101466
tp752
a(g739
g585
F105.9419924101466
tp753
aF12.713039089217592
g749
S'2012-03-02 17:46:28'
p754
I0
F211.8839848202932
F2.820742302530053
tp755
a((lp756
(g112
g585
F105.94205205410044
tp757
a(g585
g739
F211.8840444636607
tp758
a(g739
S'1027'
p759
F255.47350530972517
tp760
aF23.189646815493827
g754
S'2012-03-02 17:47:57'
p761
I0
F573.2996018274863
F70.5964341633398
tp762
a((lp763
(g112
g112
F0.0
tp764
aF7.835944354043852
g761
S'2012-03-02 17:48:57'
p765
I5
F130.59907256739754
F130.44937731604736
tp766
a((lp767
(g112
g759
F588.2594730241855
tp768
a(g759
S'887'
p769
F974.3320508593303
tp770
a(g769
g585
F105.9419924101466
tp771
aF546.0655144233805
g765
S'2012-03-02 17:49:08'
p772
I7
F1668.5335162936624
F5.022894115038024
tp773
a((lp774
(g112
g585
F105.94205205410044
tp775
a(g585
g739
F211.8840444636607
tp776
a(g739
g759
F974.3320508593303
tp777
a(g759
S'842'
p778
F54.21176934563721
tp779
aF40.05728677852746
g772
S'2012-03-02 17:51:09'
p780
I0
F1346.3699167227287
F111.7081637572241
tp781
a((lp782
(S'1027'
p783
g778
F54.21170407237851
tp784
a(g778
S'929'
p785
F138.91582185729666
tp786
a(g785
S'414'
p787
F151.56028654025312
tp788
aF20.6812687481957
g780
S'2012-03-02 17:52:09'
p789
I16
F344.6878124699283
F358.9034091317514
tp790
a.