(lp0
((lp1
(S'34'
p2
S'105'
p3
F298.1064329761966
tp4
a(g3
S'157'
p5
F366.4817423643772
tp6
a(g5
S'91'
p7
F37.65702774404083
tp8
aF84.26942437015377
S'2012-03-02 07:07:36'
p9
S'2012-03-02 07:08:06'
p10
I83
F702.2452030846147
F252.01322449828234
tp11
a((lp12
(S'157'
p13
g7
F368.5753358302328
tp14
a(g7
S'34'
p15
F362.9857541263605
tp16
a(g15
g3
F213.17905823848017
tp17
aF125.96535309267648
g10
S'2012-03-02 07:08:33'
p18
I0
F944.7401481950735
F74.74192666471893
tp19
a((lp20
(g2
g3
F213.17902705830284
tp21
a(g3
S'34'
p22
F213.17902705830284
tp23
aF1.0839611545337433
g18
S'2012-03-02 07:32:09'
p24
I38
F426.3580541166057
F22.147054894812946
tp25
a((lp26
(S'105'
p27
g27
F0.0
tp28
aF27.358423046959803
g24
S'2012-03-02 07:32:34'
p29
I0
F189.98904893722087
F67.9656859107281
tp30
a((lp31
(g27
g22
F403.1681071751649
tp32
a(g22
S'171'
p33
F361.50220986718784
tp34
a(g33
S'79'
p35
F258.8430387665728
tp36
a(g35
S'206'
p37
F340.8639244928786
tp38
a(g37
S'160'
p39
F2977.933896935319
tp40
a(g39
S'195'
p41
F1654.504702992569
tp42
a(g41
S'323'
p43
F899.3736486026992
tp44
a(g43
S'371'
p45
F502.52151206068487
tp46
a(g45
S'1158'
p47
F343.4160234801613
tp48
a(g47
S'233'
p49
F505.9919712639641
tp50
a(g49
S'324'
p51
F522.2079091612247
tp52
a(g51
S'12'
p53
F348.33486400960794
tp54
a(g53
S'307'
p55
F336.87317808984017
tp56
a(g55
S'101'
p57
F516.3741780275716
tp58
a(g57
S'231'
p59
F2128.2368240663845
tp60
a(g59
S'37'
p61
F1230.1532257749107
tp62
a(g61
S'406'
p63
F709.895434390015
tp64
a(g63
S'463'
p65
F261.5702670797571
tp66
aF858.1058949741906
g29
S'2012-03-02 07:33:34'
p67
I38
F14301.76491623651
F1221.3259846224273
tp68
a((lp69
(S'406'
p70
g65
F261.57033359964294
tp71
a(g65
S'1303'
p72
F458.3726468154194
tp73
aF26.997861765564835
g67
S'2012-03-02 07:35:10'
p74
I29
F719.9429804150623
F369.1265522480111
tp75
a((lp76
(S'463'
p77
g72
F458.3727901356485
tp78
a(g72
S'1284'
p79
F196.5245109622374
tp80
aF9.906009596438611
g74
S'2012-03-02 07:39:08'
p81
I42
F654.8973010978859
F1839.8306084082435
tp82
a((lp83
(S'1303'
p84
g79
F196.5245824851148
tp85
a(g79
S'1382'
p86
F269.5278135383138
tp87
a(g86
S'1384'
p88
F446.6556103196644
tp89
a(g88
S'1328'
p90
F573.9604384116748
tp91
a(g90
S'1300'
p92
F1023.4121880864786
tp93
a(g92
S'1328'
p94
F511.70610670809936
tp95
aF50.83379561858713
g81
S'2012-03-02 07:42:42'
p96
I50
F3021.786739549346
F2662.7746591742184
tp97
a((lp98
(S'1300'
p99
g94
F511.7060813796159
tp100
a(g94
g92
F1023.4121880864786
tp101
a(g92
S'1378'
p102
F195.5525912949026
tp103
a(g102
S'1373'
p104
F295.93932331244935
tp105
aF214.58225478424725
g96
S'2012-03-02 07:43:16'
p106
I0
F2026.6101840734464
F74.89776101677265
tp107
a((lp108
(S'1378'
p109
g104
F952.1405732564776
tp110
a(g104
S'1292'
p111
F384.22281782747393
tp112
aF80.1818034650371
g106
S'2012-03-02 07:44:16'
p113
I44
F1336.3633910839517
F936.5440067235314
tp114
a((lp115
(S'1373'
p116
g111
F384.22282759274657
tp117
a(g111
S'873'
p118
F5581.023855259741
tp119
a(g118
S'936'
p120
F117.95681148015007
tp121
a(g120
S'791'
p122
F263.909236928096
tp123
a(g122
S'1107'
p124
F226.13434667854332
tp125
a(g124
S'1044'
p126
F278.424131296127
tp127
a(g126
S'778'
p128
F302.5121384580218
tp129
a(g128
S'963'
p130
F513.8652496215955
tp131
a(g130
S'994'
p132
F260.866937235092
tp133
aF96.75964720128952
g113
S'2012-03-02 07:49:11'
p134
I53
F7928.915534550113
F4681.294482248423
tp135
a((lp136
(S'963'
p137
g132
F260.86620785541925
tp138
a(g132
S'963'
p139
F521.73314507341
tp140
a(g139
S'778'
p141
F513.8652496215955
tp142
a(g141
S'1044'
p143
F302.5121384580218
tp144
a(g143
S'1107'
p145
F278.424131296127
tp146
a(g145
S'791'
p147
F226.13434667854332
tp148
a(g147
S'936'
p149
F263.909236928096
tp150
a(g149
S'873'
p151
F117.95681148015007
tp152
a(g151
S'1292'
p153
F104.75936224590268
tp154
aF86.33868765457552
g134
S'2012-03-02 07:50:59'
p155
I0
F2590.1606296372656
F971.5215425185007
tp156
a((lp157
(S'873'
p158
g153
F5476.2644966814905
tp159
a(g153
g118
F5581.023855259741
tp160
a(g118
S'817'
p161
F214.99477288859876
tp162
a(g161
S'909'
p163
F286.06989179438705
tp164
a(g163
S'827'
p165
F390.24923028502263
tp166
a(g165
S'1010'
p167
F133.4050554004001
tp168
aF1449.840876277157
g155
S'2012-03-02 07:51:29'
p169
I0
F12082.007302309641
F30.98183196157889
tp170
a((lp171
(S'827'
p172
g167
F133.40539116580342
tp173
a(g167
S'827'
p174
F266.8104465605856
tp175
a(g174
S'1041'
p176
F689.5118116434894
tp177
a(g176
S'847'
p178
F288.7112847132398
tp179
aF82.7063360449871
g169
S'2012-03-02 07:52:29'
p180
I11
F1378.4389340831183
F965.1439711628968
tp181
a((lp182
(S'1041'
p183
g178
F404.04038190045407
tp184
a(g178
S'1160'
p185
F352.8185604851902
tp186
a(g185
S'1113'
p187
F282.7294827992773
tp188
a(g187
S'1160'
p189
F141.36476668318906
tp190
aF86.76390797398365
g180
S'2012-03-02 07:53:18'
p191
I64
F1180.9531918681107
F433.39205350934236
tp192
a((lp193
(S'1113'
p194
g189
F141.36471611676043
tp195
a(g189
g187
F66.11213110310715
tp196
aF57.455126922424874
g191
S'2012-03-02 07:53:31'
p197
I0
F207.47684721986758
F66.29156031834025
tp198
a((lp199
(S'1160'
p200
g187
F216.61735169669686
tp201
a(g187
g189
F282.7294827992773
tp202
a(g189
S'847'
p203
F176.40913115213897
tp204
aF40.54535793888679
g197
S'2012-03-02 07:54:31'
p205
I37
F675.7559656481131
F455.9503145117895
tp206
a((lp207
(g200
g203
F176.40942934564782
tp208
a(g203
g185
F352.8185604851902
tp209
a(g185
g187
F282.7294827992773
tp210
a(g187
S'835'
p211
F375.85086485067745
tp212
aF115.57054094407714
g205
S'2012-03-02 07:55:08'
p213
I0
F1187.8083374807927
F38.51568295094509
tp214
a((lp215
(g194
g194
F0.0
tp216
aF5.6005347068808335
g213
S'2012-03-02 07:55:54'
p217
I14
F71.5623879212551
F123.19135799838918
tp218
a((lp219
(g194
g211
F3425.9112285490023
tp220
a(g211
S'1057'
p221
F3008.537946635903
tp222
a(g221
S'894'
p223
F310.6033695711171
tp224
a(g223
S'942'
p225
F338.90166780966075
tp226
a(g225
S'1056'
p227
F259.19830405018683
tp228
a(g227
S'1015'
p229
F555.5730496771731
tp230
a(g229
S'1056'
p231
F277.7865232372502
tp232
aF201.61262686513055
g217
S'2012-03-02 07:58:20'
p233
I0
F8176.512089530294
F156.6829314768011
tp234
a((lp235
(S'1015'
p236
g231
F277.7865264400078
tp237
a(g231
S'942'
p238
F129.5991518697285
tp239
aF19.297216340987507
g233
S'2012-03-02 07:59:36'
p240
I5
F407.38567830973625
F283.7082275653886
tp241
a((lp242
(S'1056'
p243
g243
F0.0
tp244
aF0.0
g240
S'2012-03-02 07:59:50'
p245
I0
F0.0
F38.315991874568375
tp246
a((lp247
(g243
g238
F129.5991521804622
tp248
a(g238
S'894'
p249
F169.45083057557812
tp250
aF17.94299896536242
g245
S'2012-03-02 08:00:50'
p251
I18
F299.0499827560403
F224.63923933174263
tp252
a((lp253
(S'942'
p254
g249
F169.45083723419
tp255
a(g249
S'908'
p256
F381.46114351867436
tp257
a(g256
S'1040'
p258
F317.40151119147816
tp259
a(g258
S'924'
p260
F390.8242373664505
tp261
a(g260
S'951'
p262
F547.8429876275782
tp263
a(g262
S'978'
p264
F1557.618327029169
tp265
a(g264
S'787'
p266
F194.91903596099056
tp267
a(g266
S'1011'
p268
F271.60557515279095
tp269
a(g268
S'801'
p270
F321.910257709427
tp271
a(g270
S'865'
p272
F279.7788946582385
tp273
a(g272
S'884'
p274
F426.25271257126974
tp275
a(g274
S'969'
p276
F571.7259596354602
tp277
a(g276
S'1177'
p278
F848.8710851126325
tp279
a(g278
S'969'
p280
F138.64973207312343
tp281
aF0.9083945694538961
g251
S'2012-03-02 15:04:46'
p282
I14
F6418.312296841472
F3115.251133767411
tp283
a((lp284
(S'1177'
p285
g280
F710.2213530633369
tp286
a(g280
g278
F848.8710851126325
tp287
a(g278
S'1133'
p288
F272.1325597882723
tp289
aF24.507100344502863
g282
S'2012-03-02 15:09:15'
p290
I48
F1831.2249979642418
F59.018055180952004
tp291
a((lp292
(g285
g285
F0.0
tp293
aF0.0
g290
S'2012-03-02 15:09:49'
p294
I18
F0.0
F78.61953690751344
tp295
a((lp296
(g285
g288
F272.1323385959024
tp297
a(g288
S'1182'
p298
F12.743405002588746
tp299
a(g298
S'822'
p300
F298.5349557647092
tp301
a(g300
S'1164'
p302
F148.79017599815626
tp303
aF43.9320525216814
g294
S'2012-03-02 15:10:49'
p304
I31
F732.2008753613566
F819.9747606258329
tp305
a((lp306
(S'822'
p307
g302
F148.79013711729505
tp308
a(g302
S'1141'
p309
F158.79105622633665
tp310
aF18.152332721919247
g304
S'2012-03-02 15:11:50'
p311
I22
F307.5811933436317
F309.33922574283986
tp312
a((lp313
(S'1164'
p314
g309
F158.79109795386518
tp315
a(g309
S'821'
p316
F272.9196924326181
tp317
a(g316
S'999'
p318
F53.30870779569254
tp319
aF9.864803352857814
g311
S'2012-03-02 15:14:47'
p320
I0
F485.0194981821758
F251.1883330433492
tp321
a((lp322
(S'821'
p323
g318
F275.61256308422975
tp324
a(g318
S'918'
p325
F301.7988616334008
tp326
a(g325
S'993'
p327
F353.8824181427403
tp328
a(g327
S'1114'
p329
F865.1525280555261
tp330
a(g329
S'809'
p331
F639.1126192225747
tp332
a(g331
S'900'
p333
F674.794246559625
tp334
a(g333
S'1101'
p335
F1058.824251630271
tp336
a(g335
S'996'
p337
F1288.4416554530242
tp338
a(g337
S'906'
p339
F449.506110149901
tp340
aF354.42751523587765
g320
S'2012-03-02 15:15:47'
p341
I33
F5907.125253931294
F704.5262635161296
tp342
a((lp343
(S'996'
p344
g344
F0.0
tp345
aF0.0
g341
S'2012-03-02 15:16:22'
p346
I70
F0.0
F279.53449212901666
tp347
a((lp348
(g344
g344
F0.0
tp349
aF0.0
g346
S'2012-03-02 15:16:59'
p350
I0
F0.0
F50.479695871722704
tp351
a((lp352
(g344
g339
F449.50481231354973
tp353
a(g339
S'1010'
p354
F1626.56736988427
tp355
a(g354
S'1154'
p356
F507.7471347885134
tp357
a(g356
S'967'
p358
F633.0663908294133
tp359
a(g358
S'900'
p360
F217.51739317672622
tp361
a(g360
S'809'
p362
F674.794246559625
tp363
a(g362
S'1114'
p364
F639.1126192225747
tp365
a(g364
S'993'
p366
F865.1525280555261
tp367
a(g366
g329
F432.57659226443593
tp368
aF362.762345225678
g350
S'2012-03-02 15:17:59'
p369
I22
F6046.039087094634
F660.4176117280433
tp370
a((lp371
(S'993'
p372
g372
F0.0
tp373
aF0.0
g369
S'2012-03-02 15:18:09'
p374
I3
F0.0
F0.745006008069149
tp375
a((lp376
(g372
g329
F432.5759358176602
tp377
a(g329
g331
F639.1126192225747
tp378
a(g331
g333
F674.794246559625
tp379
a(g333
g335
F1058.824251630271
tp380
a(g335
S'900'
p381
F529.4124019444542
tp382
aF129.08591439385492
g374
S'2012-03-02 15:19:42'
p383
I0
F3334.719455174585
F583.1347375129149
tp384
a((lp385
(S'1101'
p386
g381
F529.411849713408
tp387
a(g381
S'1082'
p388
F405.2662958943754
tp389
a(g388
S'796'
p390
F68.64253555349875
tp391
aF60.19924086967693
g383
S'2012-03-02 15:20:42'
p392
I48
F1003.3206811612821
F1144.5022555350631
tp393
a((lp394
(S'1082'
p395
g390
F68.64252291770168
tp396
a(g390
S'988'
p397
F37.46020309095503
tp398
a(g397
S'777'
p399
F428.69502991180303
tp400
a(g399
S'1185'
p401
F225.0987390971269
tp402
aF45.5937897010552
g392
S'2012-03-02 15:21:42'
p403
I68
F759.8964950175866
F1155.740742307851
tp404
a((lp405
(S'777'
p406
g401
F240.4657929161631
tp407
a(g401
S'1061'
p408
F373.27393365369306
tp409
a(g408
S'1062'
p410
F442.8992981334369
tp411
a(g410
S'1150'
p412
F194.7563084101235
tp413
a(g412
S'1016'
p414
F476.5728920163904
tp415
a(g414
S'895'
p416
F182.11747952052085
tp417
aF83.85742117977048
g403
S'2012-03-02 15:23:04'
p418
I77
F1910.0857046503277
F707.84428754458
tp419
a((lp420
(S'1016'
p421
g416
F182.11747827519673
tp422
a(g416
S'1229'
p423
F249.3697768587104
tp424
a(g423
S'987'
p425
F828.6057404004235
tp426
a(g425
S'1073'
p427
F585.3164976896943
tp428
a(g427
S'987'
p429
F292.6584642322717
tp430
aF334.654115080116
g418
S'2012-03-02 15:23:27'
p431
I0
F2138.067957456297
F20.538545442638046
tp432
a((lp433
(S'1073'
p434
g429
F292.6580334691347
tp435
a(g429
S'1229'
p436
F828.6057404004235
tp437
a(g436
g425
F257.8291006247251
tp438
aF37.32882968555955
g431
S'2012-03-02 15:25:40'
p439
I14
F1379.0928744942833
F513.2067018212905
tp440
a((lp441
(S'1229'
p442
g425
F570.7766399148564
tp443
a(g425
S'1189'
p444
F541.0596802687863
tp445
a(g444
S'887'
p446
F211.8840444636607
tp447
a(g446
S'989'
p448
F138.86318537379373
tp449
aF22.79350987045866
g439
S'2012-03-02 15:29:31'
p450
I0
F1462.5835500210974
F1126.4969065988303
tp451
a((lp452
(S'887'
p453
g448
F552.0531530439665
tp454
a(g448
S'1036'
p455
F786.7860140536283
tp456
a(g455
S'1151'
p457
F499.30418929770127
tp458
a(g457
S'1232'
p459
F572.8013873462398
tp460
a(g459
S'901'
p461
F500.4166198457959
tp462
a(g461
S'937'
p463
F654.3387647481585
tp464
a(g463
S'988'
p465
F84.85729485795852
tp466
a(g465
S'1127'
p467
F152.49726409143645
tp468
a(g467
S'967'
p469
F190.65766483400054
tp470
a(g469
S'1154'
p471
F633.0663908294133
tp472
a(g471
S'1010'
p473
F507.7471347885134
tp474
a(g473
S'906'
p475
F1626.56736988427
tp476
a(g475
S'830'
p477
F1055.3265253741486
tp478
a(g477
S'942'
p479
F565.0355820413071
tp480
a(g479
S'985'
p481
F262.1011850602843
tp482
a(g481
S'1179'
p483
F158.9184749043537
tp484
aF3.4538321584745764
g450
S'2012-03-02 18:02:26'
p485
I51
F8802.475015001177
F6687.587072374739
tp486
a((lp487
(S'985'
p488
g483
F116.42869959373118
tp489
a(g483
S'1056'
p490
F270.4413970166197
tp491
a(g490
g238
F259.19830405018683
tp492
a(g238
S'830'
p493
F565.0355820413071
tp494
a(g493
S'906'
p495
F1055.3265253741486
tp496
a(g495
S'1113'
p497
F504.1784455245772
tp498
a(g497
g189
F141.36476668318906
tp499
aF58.23947440567519
g485
S'2012-03-02 18:05:26'
p500
I11
F2911.9737202837596
F801.9128859921136
tp501
a((lp502
(g194
g194
F0.0
tp503
aF0.0
g500
S'2012-03-02 18:05:33'
p504
I0
F0.0
F0.0
tp505
a((lp506
(g194
g189
F141.36471611676043
tp507
a(g189
g187
F282.7294827992773
tp508
a(g187
S'906'
p509
F504.1784455245772
tp510
a(g509
g477
F1055.3265253741486
tp511
a(g477
g479
F565.0355820413071
tp512
a(g479
g227
F259.19830405018683
tp513
a(g227
g229
F555.5730496771731
tp514
a(g229
g231
F277.7865232372502
tp515
aF198.61050702658255
g504
S'2012-03-02 18:06:39'
p516
I0
F3641.1926288206805
F95.19819310418244
tp517
a((lp518
(g236
g236
F0.0
tp519
aF0.0
g516
S'2012-03-02 18:07:39'
p520
I0
F0.0
F0.0
tp521
a((lp522
(g236
g231
F277.7865264400078
tp523
a(g231
g238
F259.19830405018683
tp524
a(g238
g493
F565.0355820413071
tp525
a(g493
g495
F1055.3265253741486
tp526
a(g495
g497
F504.1784455245772
tp527
a(g497
g189
F141.36476668318906
tp528
aF325.4969206583323
g520
S'2012-03-02 18:08:10'
p529
I0
F2802.8901501134164
F47.219378806741496
tp530
a((lp531
(g194
g189
F141.36471611676043
tp532
a(g189
g187
F282.7294827992773
tp533
a(g187
g509
F252.0890413053084
tp534
aF40.570994413280765
g529
S'2012-03-02 18:09:10'
p535
I11
F676.1832402213461
F441.0248191882894
tp536
a((lp537
(g194
g509
F252.08940425577936
tp538
a(g509
g497
F504.1784455245772
tp539
a(g497
g189
F282.7294827992773
tp540
a(g189
g203
F148.15089540166764
tp541
aF71.2288936788781
g535
S'2012-03-02 18:10:10'
p542
I5
F1187.1482279813015
F328.98639052689913
tp543
a((lp544
(g200
g203
F204.6676650957854
tp545
a(g203
g185
F352.8185604851902
tp546
a(g185
g187
F282.7294827992773
tp547
a(g187
g509
F365.4690571188208
tp548
aF65.76462357267674
g542
S'2012-03-02 18:11:16'
p549
I31
F1205.6847654990736
F183.16706243762755
tp550
a((lp551
(g194
g509
F138.7093884348367
tp552
a(g509
g497
F504.1784455245772
tp553
a(g497
g189
F282.7294827992773
tp554
a(g189
g203
F352.8185604851902
tp555
a(g203
S'1041'
p556
F692.7516666069633
tp557
a(g556
S'827'
p558
F344.7561028117509
tp559
aF138.95661879975574
g549
S'2012-03-02 18:12:16'
p560
I20
F2315.9436466625957
F545.9068328167656
tp561
a((lp562
(g183
g558
F344.7557088444622
tp563
a(g558
S'909'
p564
F286.9985168714168
tp565
aF18.952626771476375
g560
S'2012-03-02 18:14:16'
p566
I24
F631.7542257158791
F856.2932431637063
tp567
a((lp568
(g172
g564
F103.25071342692777
tp569
a(g564
S'817'
p570
F286.06989179438705
tp571
a(g570
S'873'
p572
F214.99477288859876
tp573
a(g572
g120
F58.978414960644486
tp574
aF125.67671868705311
g566
S'2012-03-02 18:14:35'
p575
I38
F663.2937930705581
F53.00169078977909
tp576
a((lp577
(g158
g120
F58.978396519606406
tp578
a(g120
g151
F117.95681148015007
tp579
a(g151
g161
F214.99477288859876
tp580
a(g161
g163
F286.06989179438705
tp581
a(g163
g165
F390.24923028502263
tp582
a(g165
g564
F374.43761284021923
tp583
aF259.68360884543716
g575
S'2012-03-02 18:14:55'
p584
I0
F1442.686715807984
F35.41625702219092
tp585
a((lp586
(g172
g564
F15.811617447477257
tp587
a(g564
g570
F286.06989179438705
tp588
a(g570
g572
F214.99477288859876
tp589
a(g572
g120
F117.95681148015007
tp590
a(g120
S'838'
p591
F345.4438150249189
tp592
aF63.01780126942706
g584
S'2012-03-02 18:15:51'
p593
I12
F980.2769086355321
F443.1249815409693
tp594
a((lp595
(S'936'
p596
g596
F0.0
tp597
aF0.0
g593
S'2012-03-02 18:16:51'
p598
I0
F0.0
F0.0
tp599
a((lp600
(g596
g591
F345.4407909150074
tp601
a(g591
S'936'
p602
F690.8846058389883
tp603
a(g602
g122
F263.909236928096
tp604
a(g122
S'852'
p605
F126.29152994364514
tp606
aF171.18313963508842
g598
S'2012-03-02 18:17:21'
p607
I0
F1426.526163625737
F36.21814243365865
tp608
a((lp609
(S'791'
p610
g605
F126.2914924350047
tp611
a(g605
S'833'
p612
F363.99526731937345
tp613
a(g612
S'974'
p614
F480.1669052301094
tp615
a(g614
S'991'
p616
F656.1638760738123
tp617
a(g616
S'874'
p618
F237.07629077782101
tp619
a(g618
S'867'
p620
F492.04911934836207
tp621
a(g620
S'874'
p622
F46.36711463746982
tp623
aF25.065496339011684
g607
S'2012-03-02 18:23:06'
p624
I14
F2402.110065821953
F2158.6152083098173
tp625
a((lp626
(S'867'
p627
g622
F445.6820047108927
tp628
a(g622
g620
F492.04911934836207
tp629
a(g620
S'1191'
p630
F360.6074231124015
tp631
a(g630
S'1218'
p632
F264.7542280364345
tp633
a(g632
S'1045'
p634
F380.2508287917065
tp635
a(g634
S'844'
p636
F161.05814139702346
tp637
a(g636
S'955'
p638
F135.70247565144197
tp639
a(g638
S'813'
p640
F56.66466961496389
tp641
a(g640
S'921'
p642
F182.17650096521103
tp643
a(g642
S'806'
p644
F107.48268907765393
tp645
a(g644
S'1207'
p646
F118.5615402962831
tp647
aF74.90740488929652
g624
S'2012-03-02 18:25:16'
p648
I0
F2704.9896210023744
F1161.2523358318756
tp649
a((lp650
(S'806'
p651
g646
F22.47619668633514
tp652
a(g646
S'799'
p653
F101.1060544565955
tp654
a(g653
S'844'
p655
F240.77579445686675
tp656
a(g655
g638
F135.70247565144197
tp657
a(g638
g640
F15.838879422359135
tp658
aF46.43094606062387
g648
S'2012-03-02 18:25:56'
p659
I0
F515.8994006735985
F64.02130476751223
tp660
a((lp661
(S'955'
p662
g640
F40.82579019269018
tp663
a(g640
S'955'
p664
F56.66466961496389
tp665
a(g664
S'1135'
p666
F207.71700266283523
tp667
a(g666
S'1124'
p668
F432.3865346114144
tp669
aF32.781955425862385
g659
S'2012-03-02 18:27:17'
p670
I35
F737.5939970819037
F176.43333453881317
tp671
a((lp672
(S'1135'
p673
g668
F432.3866428741164
tp674
a(g668
S'1135'
p675
F864.7731774810748
tp676
a(g675
S'927'
p677
F240.4485615059529
tp678
a(g677
S'959'
p679
F106.9390388791336
tp680
a(g679
S'1170'
p681
F135.9977572931447
tp682
a(g681
S'1066'
p683
F134.29559832461862
tp684
a(g683
S'923'
p685
F407.53435205726896
tp686
a(g685
S'101'
p687
F930.3605400765287
tp688
a(g687
g59
F2128.2368240663845
tp689
a(g59
g61
F615.0803976398846
tp690
aF71.9526346823773
g670
S'2012-03-02 18:32:17'
p691
I9
F5996.052890198108
F2800.792635615226
tp692
a((lp693
(S'231'
p694
g694
F0.0
tp695
aF14.632014723420632
g691
S'2012-03-02 18:33:17'
p696
I74
F243.86691205701052
F859.4891837527059
tp697
a((lp698
(g694
g61
F858.93974059391
tp699
a(g61
g63
F294.93453539486774
tp700
aF29.460619812479436
g696
S'2012-03-02 18:35:38'
p701
I25
F1153.8742759887778
F1153.8812357902614
tp702
a((lp703
(S'37'
p704
g63
F414.96089909846273
tp705
a(g63
S'37'
p706
F709.895434390015
tp707
a(g706
S'231'
p708
F1230.1532257749107
tp709
a(g708
S'101'
p710
F2128.2368240663845
tp711
a(g710
S'307'
p712
F516.3741780275716
tp713
a(g712
S'12'
p714
F336.87317808984017
tp715
a(g714
S'324'
p716
F348.33486400960794
tp717
a(g716
S'233'
p718
F522.2079091612247
tp719
a(g718
S'1158'
p720
F505.9919712639641
tp721
a(g720
S'371'
p722
F343.4160234801613
tp723
a(g722
S'323'
p724
F502.52151206068487
tp725
a(g724
S'195'
p726
F899.3736486026992
tp727
a(g726
S'160'
p728
F1654.504702992569
tp729
a(g728
S'206'
p730
F2977.933896935319
tp731
a(g730
S'79'
p732
F170.43208766457536
tp733
aF795.6726213370795
g701
S'2012-03-02 18:36:38'
p734
I66
F13261.210355617992
F617.6182124926102
tp735
a((lp736
(S'206'
p737
g732
F170.43183683220096
tp738
a(g732
g37
F340.8639244928786
tp739
a(g37
g39
F2977.933896935319
tp740
a(g39
g41
F1654.504702992569
tp741
a(g41
g43
F899.3736486026992
tp742
a(g43
g45
F502.52151206068487
tp743
a(g45
g47
F343.4160234801613
tp744
a(g47
g49
F505.9919712639641
tp745
a(g49
g51
F522.2079091612247
tp746
a(g51
g53
F348.33486400960794
tp747
a(g53
g55
F336.87317808984017
tp748
a(g55
g57
F516.3741780275716
tp749
a(g57
g59
F2128.2368240663845
tp750
a(g59
g61
F1230.1532257749107
tp751
a(g61
g63
F709.895434390015
tp752
a(g63
S'235'
p753
F1280.716757645314
tp754
a(g753
S'340'
p755
F1103.42528522692
tp756
a(g755
S'398'
p757
F1116.2253471445076
tp758
a(g757
S'158'
p759
F980.5492056374832
tp760
a(g759
S'49'
p761
F292.9656849527447
tp762
aF87.49605342196645
g734
S'2012-03-02 18:48:57'
p763
I62
F17960.995410787003
F4420.296208512334
tp764
a((lp765
(S'158'
p766
g761
F292.9658755635183
tp767
a(g761
S'158'
p768
F585.9315605109871
tp769
a(g768
S'75'
p770
F22.418115047590312
tp771
aF33.10955085754637
g763
S'2012-03-02 18:50:35'
p772
I72
F901.3155511220956
F423.5450957670516
tp773
a((lp774
(g766
g770
F1074.317361425015
tp775
a(g770
S'18'
p776
F607.417478032252
tp777
a(g776
S'119'
p778
F613.0875607873952
tp779
a(g778
S'367'
p780
F713.9276386045469
tp781
a(g780
S'216'
p782
F713.5193081364987
tp783
a(g782
S'8'
p784
F398.96257087638463
tp785
aF61.05528767203101
g772
S'2012-03-02 18:54:38'
p786
I29
F4121.231917862093
F2866.297305822973
tp787
a((lp788
(S'216'
p789
g784
F398.9634384339472
tp790
a(g784
S'243'
p791
F497.6064972180614
tp792
a(g791
S'341'
p793
F638.123806512667
tp794
a(g793
S'1366'
p795
F217.98258037300695
tp796
aF27.196701556619214
g786
S'2012-03-02 18:58:30'
p797
I37
F1752.6763225376826
F1254.9086827922122
tp798
a((lp799
(S'341'
p800
g800
F0.0
tp801
aF0.0
g797
S'2012-03-02 18:59:37'
p802
I0
F0.0
F0.0
tp803
a((lp804
(g800
g795
F217.98279978554208
tp805
a(g795
S'1399'
p806
F395.8211378514845
tp807
a(g806
S'1327'
p808
F433.91775760016844
tp809
a(g808
S'1337'
p810
F195.32055395033115
tp811
aF33.39516490354548
g802
S'2012-03-02 19:01:51'
p812
I0
F1243.042249187526
F1121.933764524037
tp813
a((lp814
(S'1327'
p815
g810
F195.32075055134882
tp816
a(g810
S'1379'
p817
F435.7628592679397
tp818
a(g817
S'1337'
p819
F217.88108723331283
tp820
aF47.754264209208834
g812
S'2012-03-02 19:02:55'
p821
I62
F848.9646970526014
F818.1053904543131
tp822
a((lp823
(S'1379'
p824
g819
F217.88177205876093
tp825
a(g819
g817
F435.7628592679397
tp826
a(g817
S'1253'
p827
F169.6879575593227
tp828
a(g827
S'1287'
p829
F215.9995211997082
tp830
a(g829
S'1236'
p831
F500.94138389154773
tp832
a(g831
S'1267'
p833
F465.5891016569359
tp834
a(g833
S'1243'
p835
F285.58268750573745
tp836
a(g835
S'1312'
p837
F457.99147004036877
tp838
a(g837
S'1301'
p839
F298.40658492761906
tp840
a(g839
S'1304'
p841
F266.44641447656124
tp842
a(g841
S'1301'
p843
F133.2230436060419
tp844
aF40.29560411131803
g821
S'2012-03-02 19:08:03'
p845
I0
F3447.5127961905428
F2001.8898583331652
tp846
a((lp847
(S'1304'
p848
g843
F133.22337087611348
tp849
a(g843
S'1312'
p850
F298.40658492761906
tp851
a(g850
S'1243'
p852
F457.99147004036877
tp853
a(g852
S'1267'
p854
F285.58268750573745
tp855
a(g854
S'1236'
p856
F465.5891016569359
tp857
a(g856
S'428'
p858
F1389.6055465674801
tp859
a(g858
S'269'
p860
F877.6751615116247
tp861
a(g860
S'1289'
p862
F1103.0742901715685
tp863
a(g862
S'269'
p864
F551.53845730894
tp865
aF75.28448125578569
g845
S'2012-03-02 19:12:29'
p866
I0
F5562.686670566387
F1674.5808909866723
tp867
a.