(lp0
((lp1
(S'392'
p2
S'1'
p3
F537.506149808377
tp4
a(g3
S'190'
p5
F133.23962227802784
tp6
a(g5
S'200'
p7
F65.9676834156334
tp8
a(g7
S'323'
p9
F319.0511671649834
tp10
aF63.34587736002129
S'2012-03-02 09:34:26'
p11
S'2012-03-02 09:35:26'
p12
I68
F1055.7646226670215
F1078.2031086514298
tp13
a((lp14
(S'200'
p15
g9
F319.05474725281863
tp16
a(g9
S'200'
p17
F638.105914332198
tp18
a(g17
S'35'
p19
F387.3959371257266
tp20
aF127.37904619364939
g12
S'2012-03-02 09:36:04'
p21
I57
F1344.5565987107434
F190.47714198430359
tp22
a((lp23
(g15
g19
F387.3908021397188
tp24
a(g19
S'200'
p25
F774.7867391124779
tp26
a(g25
S'190'
p27
F65.9676834156334
tp28
a(g27
S'219'
p29
F816.17968688634
tp30
a(g29
S'209'
p31
F348.12509298251837
tp32
a(g31
S'69'
p33
F560.4047888183237
tp34
a(g33
S'114'
p35
F138.59090513124823
tp36
aF61.82891396972521
g21
S'2012-03-02 09:39:04'
p37
I12
F3091.4456984862604
F1295.7204458891024
tp38
a((lp39
(S'69'
p40
g35
F138.59080145535074
tp41
a(g35
S'69'
p42
F277.18170658049786
tp43
a(g42
S'209'
p44
F560.4047888183237
tp45
a(g44
S'219'
p46
F348.12509298251837
tp47
a(g46
S'190'
p48
F816.17968688634
tp49
a(g48
g7
F65.9676834156334
tp50
a(g7
g19
F774.7867391124779
tp51
a(g19
S'290'
p52
F413.7189959181754
tp53
a(g52
S'234'
p54
F126.8531339355929
tp55
a(g54
S'141'
p56
F178.77671362478299
tp57
aF177.62809645102527
g37
S'2012-03-02 09:40:19'
p58
I0
F3700.585342729693
F628.9409415684595
tp59
a((lp60
(S'234'
p61
g56
F178.77682239255012
tp62
a(g56
S'234'
p63
F357.5535360155081
tp64
a(g63
S'416'
p65
F278.7385191726647
tp66
a(g65
S'234'
p67
F139.3693131016716
tp68
aF143.16572860235917
g58
S'2012-03-02 09:40:43'
p69
I29
F954.4381906823944
F121.64250260958045
tp70
a((lp71
(S'416'
p72
g67
F139.3692060771959
tp73
a(g67
S'290'
p74
F126.8531339355929
tp75
a(g74
S'35'
p76
F413.7189959181754
tp77
a(g76
g25
F774.7867391124779
tp78
a(g25
g27
F65.9676834156334
tp79
a(g27
g29
F816.17968688634
tp80
a(g29
g31
F348.12509298251837
tp81
a(g31
g33
F560.4047888183237
tp82
a(g33
g35
F277.18170658049786
tp83
a(g35
S'285'
p84
F232.99989193956105
tp85
a(g84
S'47'
p86
F145.3691182954254
tp87
aF117.02868131885226
g69
S'2012-03-02 09:42:43'
p88
I0
F3900.9560439617417
F738.7718081462962
tp89
a((lp90
(S'285'
p91
g86
F145.36905793285626
tp92
a(g86
S'285'
p93
F290.73817622125813
tp94
a(g93
S'114'
p95
F232.99989193956105
tp96
a(g95
g42
F277.18170658049786
tp97
a(g42
g44
F560.4047888183237
tp98
a(g44
g46
F348.12509298251837
tp99
a(g46
S'117'
p100
F439.0234501785394
tp101
a(g100
S'333'
p102
F172.715636685259
tp103
a(g102
S'117'
p104
F86.35782974770132
tp105
aF79.22841613716773
g88
S'2012-03-02 09:44:39'
p106
I0
F2552.9156310865155
F835.1236293817071
tp107
a((lp108
(S'333'
p109
g104
F86.35780693774298
tp110
a(g104
S'97'
p111
F580.435699134164
tp112
aF34.292237455126646
g106
S'2012-03-02 09:45:49'
p113
I0
F666.793506071907
F38.945878112910016
tp114
a((lp115
(S'117'
p116
g111
F580.4410190124515
tp117
a(g111
S'372'
p118
F63.758701035611004
tp119
a(g118
S'433'
p120
F585.0976094380715
tp121
a(g120
S'270'
p122
F330.3168336032497
tp123
a(g122
S'392'
p124
F95.85961614434376
tp125
a(g124
S'431'
p126
F457.83618440901
tp127
a(g126
S'203'
p128
F369.98613606887915
tp129
a(g128
S'414'
p130
F110.55925503297553
tp131
a(g130
S'371'
p132
F739.6760747221767
tp133
a(g132
S'1158'
p134
F343.4160234801613
tp135
a(g134
S'233'
p136
F505.9919712639641
tp137
a(g136
S'1222'
p138
F314.42150737049457
tp139
a(g138
S'886'
p140
F498.13109666342655
tp141
a(g140
S'1233'
p142
F203.95830291726205
tp143
a(g142
S'820'
p144
F127.68752524574234
tp145
aF65.45288833811655
g113
S'2012-03-02 09:50:42'
p146
I20
F5327.1378564078195
F2741.46217807898
tp147
a((lp148
(S'1233'
p149
g144
F127.68752543889336
tp150
a(g144
S'970'
p151
F247.7378419176489
tp152
a(g151
S'774'
p153
F377.3364418971982
tp154
a(g153
S'895'
p155
F268.4210662990969
tp156
a(g155
S'1016'
p157
F364.23495779569595
tp158
a(g157
S'1150'
p159
F476.5728920163904
tp160
a(g159
S'1062'
p161
F194.7563084101235
tp162
a(g161
S'1061'
p163
F442.8992981334369
tp164
a(g163
S'937'
p165
F930.5990375079346
tp166
a(g165
S'988'
p167
F84.85729485795852
tp168
a(g167
S'1127'
p169
F152.49726409143645
tp170
a(g169
S'967'
p171
F190.65766483400054
tp172
a(g171
S'900'
p173
F217.51739317672622
tp174
a(g173
S'809'
p175
F674.794246559625
tp176
a(g175
S'1114'
p177
F639.1126192225747
tp178
a(g177
S'993'
p179
F865.1525280555261
tp180
a(g179
S'843'
p181
F298.54352314033923
tp182
a(g181
S'932'
p183
F496.3588671175418
tp184
a(g183
S'960'
p185
F325.1238765614434
tp186
a(g185
S'1133'
p187
F313.9016806177561
tp188
a(g187
S'1177'
p189
F544.2648983785294
tp190
a(g189
S'997'
p191
F478.6095004805797
tp192
a(g191
S'1172'
p193
F110.18305281232932
tp194
aF1.4338593708773324
g146
S'2012-03-02 15:59:51'
p195
I66
F8821.819779322786
F6660.354554449148
tp196
a((lp197
(S'997'
p198
g193
F110.18305281162199
tp199
a(g193
S'997'
p200
F220.3661056239513
tp201
a(g200
S'1177'
p202
F478.6095004805797
tp203
a(g202
S'1133'
p204
F544.2648983785294
tp205
a(g204
S'960'
p206
F313.9016806177561
tp207
a(g206
S'932'
p208
F325.1238765614434
tp209
a(g208
S'999'
p210
F291.88001401002714
tp211
a(g210
S'821'
p212
F164.46056830372257
tp213
aF7.927736428449168
g195
S'2012-03-02 16:18:23'
p214
I27
F2448.789696787632
F937.28098229794
tp215
a((lp216
(S'999'
p217
g212
F164.4607025807541
tp218
a(g212
S'999'
p219
F328.92127087434676
tp220
a(g219
S'843'
p221
F193.00381368915248
tp222
aF16.256505484995472
g214
S'2012-03-02 16:20:55'
p223
I24
F686.3857871442533
F532.0140450052616
tp224
a((lp225
(g217
g221
F193.0033242499445
tp226
a(g221
S'999'
p227
F386.00713792245193
tp228
a(g227
S'918'
p229
F256.132801322787
tp230
aF53.68778122469037
g223
S'2012-03-02 16:21:51'
p231
I0
F835.1432634951834
F42.05551189540335
tp232
a((lp233
(g217
g229
F45.66606031087571
tp234
a(g229
S'999'
p235
F301.7988616334008
tp236
a(g235
g221
F67.03123155239518
tp237
aF2.617870443136874
g231
S'2012-03-02 16:31:21'
p238
I18
F414.4961534966717
F554.7635578900813
tp239
a((lp240
(g217
g221
F318.97590637944245
tp241
a(g221
S'993'
p242
F298.54352314033923
tp243
a(g242
S'1114'
p244
F865.1525280555261
tp245
a(g244
S'809'
p246
F639.1126192225747
tp247
a(g246
S'900'
p248
F674.794246559625
tp249
a(g248
S'967'
p250
F217.51739317672622
tp251
a(g250
S'1154'
p252
F633.0663908294133
tp253
a(g252
S'1010'
p254
F507.7471347885134
tp255
a(g254
S'827'
p256
F266.8104465605856
tp257
a(g256
S'1041'
p258
F689.5118116434894
tp259
a(g258
S'847'
p260
F692.7516666069633
tp261
a(g260
S'1160'
p262
F352.8185604851902
tp263
a(g262
S'1113'
p264
F267.0891622394093
tp265
aF197.65819660577841
g238
S'2012-03-02 16:33:18'
p266
I48
F6423.891389687798
F2048.9952608884073
tp267
a((lp268
(S'1160'
p269
g264
F15.640320560055942
tp270
a(g264
S'1160'
p271
F282.7294827992773
tp272
a(g271
S'847'
p273
F352.8185604851902
tp274
a(g273
g262
F176.40942934564782
tp275
aF74.4838013871154
g266
S'2012-03-02 16:33:58'
p276
I0
F827.5977931901712
F75.3866227366686
tp277
a((lp278
(S'847'
p279
g262
F176.40913115213897
tp280
a(g262
S'1139'
p281
F999.898841596365
tp282
a(g281
S'909'
p283
F384.6361930519455
tp284
a(g283
S'817'
p285
F286.06989179438705
tp286
a(g285
S'873'
p287
F214.99477288859876
tp288
a(g287
S'1292'
p289
F5581.023855259741
tp290
a(g289
S'1286'
p291
F18.292867713673832
tp292
aF14.462911375167625
g276
S'2012-03-02 17:05:45'
p293
I44
F7661.325553456851
F5491.815338244572
tp294
a((lp295
(S'1292'
p296
g291
F854.8512666861862
tp297
a(g291
S'1292'
p298
F873.144134384409
tp299
a(g298
S'873'
p300
F5581.023855259741
tp301
a(g300
S'936'
p302
F117.95681148015007
tp303
a(g302
S'791'
p304
F263.909236928096
tp305
a(g304
S'1107'
p306
F226.13434667854332
tp307
a(g306
S'1044'
p308
F278.424131296127
tp309
a(g308
S'778'
p310
F151.2560712772991
tp311
aF79.0739986167526
g293
S'2012-03-02 17:12:05'
p312
I0
F8346.699853990553
F4862.09448314058
tp313
a((lp314
(S'1044'
p315
g310
F151.25606718078186
tp316
a(g310
S'963'
p317
F513.8652496215955
tp318
a(g317
S'994'
p319
F521.73314507341
tp320
a(g319
S'814'
p321
F375.362399322151
tp322
a(g321
S'792'
p323
F350.26427291339104
tp324
a(g323
S'1186'
p325
F286.3078153483026
tp326
aF48.86197665465849
g312
S'2012-03-02 17:14:47'
p327
I0
F2198.788949459632
F1240.8201221840486
tp328
a((lp329
(S'792'
p330
g325
F147.30435498701965
tp331
a(g325
S'1007'
p332
F322.0478439414783
tp333
a(g332
S'1009'
p334
F681.3552137071262
tp335
a(g334
S'982'
p336
F377.31950972392406
tp337
aF91.68161534157288
g327
S'2012-03-02 17:15:47'
p338
I31
F1528.026922359548
F645.8144857459948
tp339
a((lp340
(S'1009'
p341
g336
F377.3192896118172
tp342
a(g336
S'1009'
p343
F754.638799327876
tp344
a(g343
S'1007'
p345
F47.76007678656088
tp346
aF44.70510943804752
g338
S'2012-03-02 17:17:22'
p347
I25
F1179.718165726254
F104.35672592666937
tp348
a((lp349
(g341
g345
F633.595136921781
tp350
a(g345
g334
F681.3552137071262
tp351
a(g334
g336
F21.49370869590542
tp352
aF155.19995527642985
g347
S'2012-03-02 17:17:53'
p353
I0
F1336.4440593248125
F69.11537823164004
tp354
a((lp355
(g341
g336
F733.1450906328396
tp356
a(g336
S'804'
p357
F140.04113628613734
tp358
a(g357
S'1122'
p359
F146.42713811944114
tp360
aF61.17680190230508
g353
S'2012-03-02 17:18:53'
p361
I37
F1019.613365038418
F707.2662737437543
tp362
a((lp363
(S'804'
p364
g364
F0.0
tp365
aF0.7803235011658014
g361
S'2012-03-02 17:18:56'
p366
I0
F0.6502695843048345
F2.2464201727590387
tp367
a((lp368
(g364
g359
F790.948561716419
tp369
a(g359
S'804'
p370
F936.7254302074238
tp371
a(g370
S'888'
p372
F436.4498289725836
tp373
a(g372
S'1213'
p374
F398.42229143270566
tp375
a(g374
S'1059'
p376
F24.347670935949793
tp377
a(g376
S'1213'
p378
F12.173836716424715
tp379
aF99.53875991418536
g366
S'2012-03-02 17:20:30'
p380
I0
F2599.0676199815066
F859.8709740883897
tp381
a((lp382
(S'1059'
p383
g378
F12.17383421952932
tp384
a(g378
S'1066'
p385
F126.00604095646439
tp386
a(g385
S'923'
p387
F407.53435205726896
tp388
a(g387
S'1066'
p389
F203.7664193135748
tp390
aF35.04065360478721
g380
S'2012-03-02 17:21:47'
p391
I0
F749.4806465468375
F463.2070839257919
tp392
a((lp393
(S'923'
p394
g389
F203.76793276645955
tp395
a(g389
S'1170'
p396
F134.29559832461862
tp397
a(g396
S'959'
p398
F135.9977572931447
tp399
a(g398
S'806'
p400
F197.56237677218394
tp401
a(g400
S'1207'
p402
F141.0377369821515
tp403
a(g402
S'818'
p404
F213.60182895150257
tp405
a(g404
S'1203'
p406
F115.08858076068931
tp407
aF22.330796318819026
g391
S'2012-03-02 17:24:51'
p408
I5
F1141.3518118507502
F340.8457893155558
tp409
a((lp410
(S'818'
p411
g406
F115.08878908444478
tp412
a(g406
S'772'
p413
F143.30202102050836
tp414
a(g413
S'1028'
p415
F230.208379433524
tp416
a(g415
S'1145'
p417
F210.6065185280842
tp418
a(g417
S'1104'
p419
F432.47262310861487
tp420
aF43.34087225777271
g408
S'2012-03-02 17:26:25'
p421
I12
F1131.6783311751763
F379.0122952091495
tp422
a((lp423
(S'1145'
p424
g419
F292.6298094923953
tp425
a(g419
S'12'
p426
F50.45402850571367
tp427
aF17.90002633033612
g421
S'2012-03-02 17:27:34'
p428
I29
F343.08383799810895
F342.6171536969428
tp429
a((lp430
(S'1104'
p431
g426
F289.9030657687884
tp432
a(g426
S'324'
p433
F348.33486400960794
tp434
a(g433
S'233'
p435
F261.1032256207329
tp436
aF53.960469323947756
g428
S'2012-03-02 17:28:34'
p437
I38
F899.3411553991293
F429.569373113002
tp438
a((lp439
(S'324'
p440
g435
F261.1046835832608
tp441
a(g435
S'1158'
p442
F505.9919712639641
tp443
a(g442
S'371'
p444
F171.70805954741536
tp445
aF28.16414143183921
g437
S'2012-03-02 17:30:34'
p446
I12
F938.8047143946403
F1104.0009026384512
tp447
a((lp448
(S'1158'
p449
g444
F171.70796393428762
tp450
a(g444
g3
F725.2487623614271
tp451
a(g3
g5
F133.23962227802784
tp452
a(g5
g29
F408.08987777061185
tp453
aF86.29717358066127
g446
S'2012-03-02 17:31:34'
p454
I35
F1438.2862263443544
F349.1090968912481
tp455
a.