(lp0
((lp1
(S'1151'
p2
S'1073'
p3
F376.94818222012105
tp4
a(g3
S'1151'
p5
F753.8985985699695
tp6
a(g5
S'1232'
p7
F233.6276162417082
tp8
aF81.86846382190794
S'2012-03-02 11:13:13'
p9
S'2012-03-02 11:14:13'
p10
I24
F1364.4743970317988
F338.01873145389885
tp11
a((lp12
(g2
g7
F339.1737711129937
tp13
a(g7
S'1031'
p14
F536.64824962327
tp15
a(g14
S'1232'
p16
F467.30656040744867
tp17
aF39.96085034807739
g10
S'2012-03-02 11:16:14'
p18
I46
F1343.1285811437124
F356.34010647914874
tp19
a((lp20
(S'1031'
p21
g16
F69.34168923593404
tp22
a(g16
S'1151'
p23
F305.1457979791291
tp24
aF22.46924923290379
g18
S'2012-03-02 11:17:14'
p25
I1
F374.48748721506314
F321.24096576661617
tp26
a((lp27
(S'1232'
p28
g23
F267.6555893758344
tp29
a(g23
S'1036'
p30
F499.30418929770127
tp31
a(g30
S'989'
p32
F393.39337356847
tp33
aF32.38194843466063
g25
S'2012-03-02 11:19:23'
p34
I27
F1160.3531522420058
F762.4702460027423
tp35
a((lp36
(S'1036'
p37
g32
F393.39264051199774
tp38
a(g32
S'1115'
p39
F555.6982853501218
tp40
aF56.94545555172717
g34
S'2012-03-02 11:20:23'
p41
I12
F949.0909258621195
F782.5596061249106
tp42
a((lp43
(S'989'
p44
g39
F555.6981253322997
tp45
a(g39
S'263'
p46
F104.11490945865852
tp47
aF19.794391043728748
g41
S'2012-03-02 11:22:23'
p48
I61
F659.8130347909582
F1222.9645240822097
tp49
a((lp50
(S'1115'
p51
g46
F368.30574737330164
tp52
a(g46
S'179'
p53
F271.04410293769325
tp54
a(g53
S'263'
p55
F135.52211498208828
tp56
aF35.76332147506538
g48
S'2012-03-02 11:23:41'
p57
I33
F774.8719652930832
F353.4359843388983
tp58
a((lp59
(S'179'
p60
g55
F135.5219879613142
tp61
a(g55
S'140'
p62
F435.87853113202175
tp63
a(g62
S'431'
p64
F334.7646258643055
tp65
a(g64
S'392'
p66
F457.83618440901
tp67
a(g66
S'431'
p68
F448.43508333241897
tp69
aF0.7263465530130974
g57
S'2012-03-02 13:53:24'
p70
I9
F1812.4364126990704
F561.9851002421539
tp71
a((lp72
(S'392'
p73
g68
F9.401101078628333
tp74
a(g68
S'203'
p75
F369.98613606887915
tp76
a(g75
S'414'
p77
F110.55925503297553
tp78
a(g77
S'929'
p79
F303.12038890948725
tp80
a(g79
S'842'
p81
F138.91582185729666
tp82
a(g81
S'1027'
p83
F108.42347341772006
tp84
a(g83
S'887'
p85
F331.69312891341724
tp86
aF25.997671047380287
g70
S'2012-03-02 13:56:34'
p87
I24
F1372.099305278404
F1339.2732086941473
tp88
a((lp89
(S'1027'
p90
g85
F642.6389219831465
tp91
a(g85
S'1189'
p92
F211.8840444636607
tp93
a(g92
S'987'
p94
F541.0596802687863
tp95
a(g94
S'1036'
p96
F295.93175855639856
tp97
aF17.650585098490353
g87
S'2012-03-02 14:02:19'
p98
I29
F1691.514405271992
F1432.8741895027845
tp99
a((lp100
(S'987'
p101
g96
F404.2577330404157
tp102
a(g96
g32
F786.7860140536283
tp103
a(g32
g39
F555.6982853501218
tp104
aF27.947872519106653
g98
S'2012-03-02 14:06:04'
p105
I42
F1746.7420324441657
F620.0591231946678
tp106
a((lp107
(g44
g39
F555.6981253322997
tp108
a(g39
S'842'
p109
F254.80707880381686
tp110
aF24.315156124083497
g105
S'2012-03-02 14:08:04'
p111
I38
F810.5052041361166
F1326.2892095790032
tp112
a((lp113
(g51
g109
F254.80585084508155
tp114
a(g109
g83
F108.42347341772006
tp115
a(g83
g85
F974.3320508593303
tp116
a(g85
g92
F211.8840444636607
tp117
a(g92
g94
F541.0596802687863
tp118
a(g94
S'1073'
p119
F585.3164976896943
tp120
a(g119
S'1185'
p121
F401.933419412357
tp122
a(g121
S'777'
p123
F465.5645320107461
tp124
a(g123
S'988'
p125
F428.69502991180303
tp126
a(g125
S'1127'
p127
F152.49726409143645
tp128
a(g127
S'967'
p129
F190.65766483400054
tp130
a(g129
S'900'
p131
F217.51739317672622
tp132
a(g131
S'809'
p133
F674.794246559625
tp134
a(g133
S'900'
p135
F19.351296134046844
tp136
aF2.59682539293818
g111
S'2012-03-02 16:08:50'
p137
I0
F5226.8324436750145
F4326.72842292673
tp138
a((lp139
(S'809'
p140
g135
F655.4429504365024
tp141
a(g135
S'967'
p142
F217.51739317672622
tp143
a(g142
S'1127'
p144
F190.65766483400054
tp145
a(g144
S'988'
p146
F152.49726409143645
tp147
a(g146
S'777'
p148
F428.69502991180303
tp149
a(g148
S'1185'
p150
F122.04907548821434
tp151
aF53.00578133816049
g137
S'2012-03-02 16:10:50'
p152
I55
F1766.8593779386829
F1559.1803574748415
tp153
a((lp154
(S'777'
p155
g150
F343.5154565244991
tp156
a(g150
S'1073'
p157
F401.933419412357
tp158
a(g157
S'987'
p159
F585.3164976896943
tp160
a(g159
S'1189'
p161
F270.53002674972004
tp162
aF96.07772402257622
g152
S'2012-03-02 16:11:50'
p163
I75
F1601.2954003762704
F1253.939442314495
tp164
a((lp165
(g101
g161
F270.52965352844495
tp166
a(g161
S'887'
p167
F211.8840444636607
tp168
a(g167
S'1027'
p169
F485.33329697573356
tp170
aF58.06481969807035
g163
S'2012-03-02 16:12:50'
p171
I75
F967.7469949678392
F1313.6401134427085
tp172
a((lp173
(S'887'
p174
g169
F488.9987539250461
tp175
a(g169
S'842'
p176
F108.42347341772006
tp177
a(g176
S'929'
p178
F138.91582185729666
tp179
a(g178
S'414'
p180
F303.12038890948725
tp181
a(g180
S'203'
p182
F110.55925503297553
tp183
a(g182
S'431'
p184
F369.98613606887915
tp185
a(g184
g66
F457.83618440901
tp186
a(g66
S'270'
p187
F95.85961614434376
tp188
a(g187
S'433'
p189
F160.30455864833507
tp190
aF67.02012565239282
g171
S'2012-03-02 16:14:50'
p191
I83
F2234.0041884130937
F2187.7762574067065
tp192
a((lp193
(S'270'
p194
g189
F170.01227495658657
tp195
a(g189
S'372'
p196
F585.0976094380715
tp197
a(g196
S'97'
p198
F63.758701035611004
tp199
a(g198
S'117'
p200
F1160.876717687237
tp201
a(g200
S'333'
p202
F172.715636685259
tp203
a(g202
S'117'
p204
F86.35782974770132
tp205
aF40.2987378519084
g191
S'2012-03-02 16:18:10'
p206
I62
F2238.8187695504666
F1198.273759542482
tp207
a((lp208
(S'333'
p209
g204
F86.35780693774298
tp210
a(g204
S'132'
p211
F2691.837296797234
tp212
a(g211
S'86'
p213
F128.8300153163401
tp214
aF26.228798066628425
g206
S'2012-03-02 16:24:49'
p215
I22
F2907.0251190513172
F2609.24137197858
tp216
a((lp217
(S'132'
p218
g213
F279.3375594936728
tp219
a(g213
S'331'
p220
F697.8413564130648
tp221
a(g220
S'86'
p222
F25.392863711480466
tp223
aF23.136271837343493
g215
S'2012-03-02 16:27:25'
p224
I18
F1002.571779618218
F801.786621975216
tp225
a((lp226
(S'331'
p227
g222
F672.4484927032543
tp228
a(g222
S'58'
p229
F905.5130865393613
tp230
a(g229
S'182'
p231
F1050.0893319780932
tp232
a(g231
S'413'
p233
F501.6805211022033
tp234
a(g233
S'97'
p235
F1079.6824743926077
tp236
a(g235
S'372'
p237
F63.758701035611004
tp238
a(g237
S'433'
p239
F585.0976094380715
tp240
a(g239
S'270'
p241
F330.3168336032497
tp242
a(g241
S'392'
p243
F95.85961614434376
tp244
a(g243
g68
F457.83618440901
tp245
a(g68
g75
F369.98613606887915
tp246
a(g75
g77
F110.55925503297553
tp247
a(g77
g79
F303.12038890948725
tp248
a(g79
g81
F138.91582185729666
tp249
a(g81
g83
F108.42347341772006
tp250
a(g83
g85
F487.1655712218048
tp251
aF6.022495989003293
g224
S'2012-03-02 17:39:45'
p252
I0
F7260.453497853969
F5670.576881707103
tp253
a((lp254
(g90
g90
F0.0
tp255
aF12.758289495186155
g252
S'2012-03-02 17:40:45'
p256
I7
F212.63815825310257
F435.1371919811251
tp257
a((lp258
(g90
g85
F699.8046379190771
tp259
a(g85
g92
F211.8840444636607
tp260
a(g92
g94
F541.0596802687863
tp261
a(g94
S'1229'
p262
F414.30323862276333
tp263
aF62.81668938866761
g256
S'2012-03-02 17:42:32'
p264
I50
F1867.0516012742873
F1136.306431666931
tp265
a((lp266
(g101
g262
F414.30250194001013
tp267
a(g262
S'987'
p268
F828.6057404004235
tp269
a(g268
g161
F541.0596802687863
tp270
a(g161
g167
F211.8840444636607
tp271
a(g167
g92
F105.9419924101466
tp272
aF445.0857796552293
g264
S'2012-03-02 17:42:49'
p273
I0
F2101.7939594830273
F23.955958311154802
tp274
a((lp275
(g174
g92
F105.94205205410044
tp276
a(g92
g94
F541.0596802687863
tp277
a(g94
g119
F292.6580334691347
tp278
aF56.37958594752129
g273
S'2012-03-02 17:43:49'
p279
I7
F939.6597657920215
F253.68082263431972
tp280
a((lp281
(g101
g119
F292.6584642322717
tp282
a(g119
g121
F401.933419412357
tp283
a(g121
g123
F465.5645320107461
tp284
a(g123
g125
F428.69502991180303
tp285
a(g125
g127
F152.49726409143645
tp286
a(g127
g129
F190.65766483400054
tp287
a(g129
g131
F217.51739317672622
tp288
a(g131
g133
F430.8962987923447
tp289
aF38.706300996925286
g279
S'2012-03-02 17:47:49'
p290
I22
F2580.4200664616856
F2665.9000240150485
tp291
a((lp292
(S'900'
p293
g133
F243.8979478572756
tp294
a(g133
S'1157'
p295
F755.0004704445299
tp296
a(g295
S'1075'
p297
F42.87757714138974
tp298
a(g297
S'1159'
p299
F653.229543764915
tp300
a(g299
S'763'
p301
F12.65872730361995
tp302
a(g301
S'793'
p303
F807.7571788598872
tp304
a(g303
S'893'
p305
F548.5613550549398
tp306
aF183.83896802559343
g290
S'2012-03-02 17:48:49'
p307
I46
F3063.9828004265573
F663.3614256021833
tp308
a.