(lp0
((lp1
(S'871'
p2
S'1382'
p3
F601.8466065451202
tp4
a(g3
S'1384'
p5
F435.10104776375016
tp6
aF62.216859258532224
S'2012-03-02 07:01:22'
p7
S'2012-03-02 07:02:22'
p8
I62
F1036.9476543088704
F811.8515025690893
tp9
a((lp10
(S'1382'
p11
g5
F11.55456255672467
tp12
a(g5
S'1328'
p13
F573.9604384116748
tp14
a(g13
S'1300'
p15
F176.25292995445815
tp16
aF44.95679592331619
g8
S'2012-03-02 07:03:23'
p17
I66
F761.7679309228577
F762.1587879255895
tp18
a((lp19
(S'1328'
p20
g15
F847.159258132736
tp21
a(g15
S'1378'
p22
F195.5525912949026
tp23
a(g22
S'1373'
p24
F1248.079896567967
tp25
a(g24
S'1292'
p26
F384.22281782747393
tp27
aF62.94151914877835
g17
S'2012-03-02 07:05:56'
p28
I70
F2675.0145638230797
F2036.1958838544938
tp29
a((lp30
(S'1373'
p31
g26
F384.22282759274657
tp32
a(g26
S'1286'
p33
F873.144134384409
tp34
a(g33
S'1367'
p35
F722.8074771960407
tp36
a(g35
S'1347'
p37
F344.3759649732717
tp38
aF84.52910560532612
g28
S'2012-03-02 07:07:35'
p39
I68
F2324.5504041464683
F686.4975702271661
tp40
a((lp41
(S'1367'
p42
g37
F344.3758709209317
tp43
a(g37
S'1367'
p44
F688.7518358012903
tp45
a(g44
S'1234'
p46
F289.64644841021203
tp47
aF144.30263510535647
g39
S'2012-03-02 07:08:08'
p48
I0
F1322.774155132434
F30.406374607210815
tp49
a((lp50
(g42
g46
F137.31393400597076
tp51
a(g46
S'1373'
p52
F459.64164505681646
tp53
a(g52
S'1378'
p54
F624.0399593767115
tp55
aF52.32838021883567
g48
S'2012-03-02 07:09:32'
p56
I33
F1220.995538439499
F524.5549524195285
tp57
a((lp58
(g31
g54
F624.039937192576
tp59
a(g54
S'1376'
p60
F272.91033738062805
tp61
a(g60
S'1013'
p62
F3427.8290189273157
tp63
a(g62
S'792'
p64
F441.0365406997711
tp65
a(g64
S'814'
p66
F350.26427291339104
tp67
a(g66
S'994'
p68
F375.362399322151
tp69
a(g68
S'963'
p70
F521.73314507341
tp71
a(g70
S'778'
p72
F513.8652496215955
tp73
a(g72
S'1044'
p74
F302.5121384580218
tp75
a(g74
S'1107'
p76
F278.424131296127
tp77
a(g76
S'791'
p78
F226.13434667854332
tp79
a(g78
S'936'
p80
F263.909236928096
tp81
a(g80
S'873'
p82
F117.95681148015007
tp83
a(g82
S'1154'
p84
F400.91337056751456
tp85
aF71.44451680083483
g56
S'2012-03-02 07:16:21'
p86
I0
F8116.890936539291
F6018.603553578214
tp87
a((lp88
(S'873'
p89
g84
F258.7508275515162
tp90
a(g84
S'967'
p91
F633.0663908294133
tp92
a(g91
S'1127'
p93
F190.65766483400054
tp94
a(g93
S'988'
p95
F76.2486321030234
tp96
aF69.52341091907722
g86
S'2012-03-02 07:17:21'
p97
I70
F1158.7235153179536
F770.0993491425019
tp98
a((lp99
(S'1127'
p100
g95
F76.24863198841386
tp101
a(g95
S'937'
p102
F84.85729485795852
tp103
a(g102
S'901'
p104
F654.3387647481585
tp105
a(g104
S'1232'
p106
F500.4166198457959
tp107
a(g106
S'901'
p108
F220.3085137938586
tp109
aF25.602830420569756
g97
S'2012-03-02 07:20:57'
p110
I12
F1536.1698252341853
F1086.241131195024
tp111
a((lp112
(S'1232'
p113
g108
F280.10810605504776
tp114
a(g108
g106
F320.32008266265746
tp115
aF90.06422830765578
g110
S'2012-03-02 07:21:21'
p116
I0
F600.4281887177052
F40.2235076047151
tp117
a((lp118
(S'901'
p119
g106
F180.09653718604193
tp120
a(g106
g108
F132.51956781543794
tp121
aF31.261610500147988
g116
S'2012-03-02 07:21:57'
p122
I12
F312.61610500147987
F47.55789697118995
tp123
a((lp124
(g113
g108
F367.8970520328016
tp125
a(g108
g106
F410.95146934471614
tp126
aF54.97754268547184
g122
S'2012-03-02 07:22:48'
p127
I0
F778.8485213775177
F43.0432738560934
tp128
a((lp129
(g119
g106
F89.46515050290641
tp130
a(g106
S'1031'
p131
F536.64824962327
tp132
a(g131
S'824'
p133
F232.11631470971224
tp134
aF51.49378289015332
g127
S'2012-03-02 07:23:48'
p135
I12
F858.2297148358887
F472.70642248452833
tp136
a((lp137
(S'1031'
p138
g133
F232.11675073755046
tp139
a(g133
S'1031'
p140
F464.2330654185904
tp141
a(g140
S'1232'
p142
F536.64824962327
tp143
a(g142
S'1151'
p144
F572.8013873462398
tp145
a(g144
S'1036'
p146
F499.30418929770127
tp147
a(g146
S'987'
p148
F700.189491494048
tp149
a(g148
S'1229'
p150
F828.6057404004235
tp151
a(g150
S'895'
p152
F124.68490737910783
tp153
aF11.681066896810616
g135
S'2012-03-02 07:44:08'
p154
I20
F3958.583781696931
F2027.0841753041432
tp155
a((lp156
(S'1229'
p157
g152
F124.68486948402185
tp158
a(g152
S'973'
p159
F444.35669521011835
tp160
a(g159
S'1191'
p161
F412.40913364934164
tp162
a(g161
S'867'
p163
F360.6074231124015
tp164
a(g163
S'874'
p165
F6.010186167277363
tp166
aF18.9572105759507
g154
S'2012-03-02 07:48:24'
p167
I16
F1348.0683076231608
F1502.9739178969962
tp168
a((lp169
(S'867'
p170
g165
F486.0389331810893
tp171
a(g165
S'867'
p172
F492.04911934836207
tp173
a(g172
S'1191'
p174
F360.6074231124015
tp175
a(g174
S'1124'
p176
F157.6969616199754
tp177
aF316.8831043613284
g167
S'2012-03-02 07:48:41'
p178
I0
F1496.3924372618283
F60.203648420923166
tp179
a((lp180
(S'1191'
p181
g176
F190.967094633152
tp182
a(g176
S'1191'
p183
F348.66405624127844
tp184
a(g183
S'1218'
p185
F57.134458503830956
tp186
aF33.5680655275272
g178
S'2012-03-02 07:49:45'
p187
I40
F596.7656093782614
F443.68274954306276
tp188
a((lp189
(g181
g185
F207.6197695326218
tp190
a(g185
S'1045'
p191
F380.2508287917065
tp192
a(g191
S'844'
p193
F80.52908055539564
tp194
aF40.10398073278344
g187
S'2012-03-02 07:50:45'
p195
I37
F668.399678879724
F560.2126093105293
tp196
a((lp197
(S'1045'
p198
g193
F80.52906084177697
tp199
a(g193
S'955'
p200
F135.70247565144197
tp201
a(g200
S'813'
p202
F56.66466961496389
tp203
a(g202
S'921'
p204
F182.17650096521103
tp205
a(g204
S'927'
p206
F195.5482192140499
tp207
a(g206
S'1125'
p208
F136.19141480974062
tp209
a(g208
S'927'
p210
F110.8976749407764
tp211
aF111.4398640598848
g195
S'2012-03-02 07:51:14'
p212
I37
F897.7100160379608
F53.76209990341982
tp213
a((lp214
(S'1125'
p215
g210
F25.293739869378864
tp216
a(g210
S'1135'
p217
F240.4485615059529
tp218
a(g217
S'982'
p219
F77.60248429117173
tp220
aF9.022198747440967
g212
S'2012-03-02 07:53:31'
p221
I0
F343.34478566650347
F5.26118177767008
tp222
a((lp223
(S'1135'
p224
g219
F443.05587844609863
tp225
a(g219
S'1009'
p226
F167.65988400967063
tp227
aF219.8576744840769
g221
S'2012-03-02 07:53:41'
p228
I0
F610.7157624557692
F6.967809758255767
tp229
a((lp230
(S'982'
p231
g226
F586.9789153236408
tp232
a(g226
S'1124'
p233
F343.5463299595581
tp234
a(g233
g183
F348.66405624127844
tp235
a(g183
g185
F264.7542280364345
tp236
a(g185
g191
F380.2508287917065
tp237
a(g191
g193
F2.998148847367748
tp238
aF50.641554933722254
g228
S'2012-03-02 07:55:58'
p239
I0
F1927.1925071999858
F72.84865328659569
tp240
a((lp241
(g198
g193
F158.05999254965653
tp242
a(g193
g200
F135.70247565144197
tp243
a(g200
S'1135'
p244
F207.71700266283523
tp245
a(g244
S'927'
p246
F120.22430990588461
tp247
aF2238.133610771346
g239
S'2012-03-02 07:55:59'
p248
I29
F621.7037807698183
F9.295318658374386
tp249
a((lp250
(g224
g246
F120.22425160072342
tp251
a(g246
S'921'
p252
F195.5482192140499
tp253
a(g252
S'799'
p254
F138.23991683994163
tp255
a(g254
S'1215'
p256
F216.60117519723585
tp257
a(g256
S'1030'
p258
F229.64658602255514
tp259
a(g258
S'860'
p260
F230.54817177966603
tp261
a(g260
S'1069'
p262
F231.70867622577373
tp263
a(g262
S'970'
p264
F150.09488234932238
tp265
aF36.30268510150244
g248
S'2012-03-02 07:58:29'
p266
I31
F1512.6118792292682
F1020.7298532036915
tp267
a((lp268
(S'1069'
p269
g264
F150.0952898730258
tp270
a(g264
S'1069'
p271
F300.1901722143531
tp272
a(g271
S'1046'
p273
F233.21024744024461
tp274
a(g273
S'869'
p275
F156.17213501704404
tp276
a(g275
S'986'
p277
F123.34132397942467
tp278
aF27.95833069908655
g266
S'2012-03-02 08:00:33'
p279
I18
F963.0091685240923
F382.4279210145094
tp280
a((lp281
(S'869'
p282
g277
F190.0719360477321
tp283
a(g277
S'774'
p284
F463.31531120431856
tp285
a(g284
S'970'
p286
F377.3364418971982
tp287
a(g286
S'820'
p288
F247.7378419176489
tp289
a(g288
S'887'
p290
F521.3878162028419
tp291
aF31.30172777860417
g279
S'2012-03-02 08:04:00'
p292
I12
F1799.8493472697396
F347.25102372894753
tp293
a((lp294
(S'820'
p295
g290
F521.3918988810026
tp296
a(g290
S'820'
p297
F1042.7797147525323
tp298
a(g297
S'970'
p299
F247.7378419176489
tp300
a(g299
g271
F150.0952898730258
tp301
aF261.600632723228
g292
S'2012-03-02 08:04:27'
p302
I0
F1962.0047454242097
F75.58495044115783
tp303
a((lp304
(S'970'
p305
g271
F150.09488234932238
tp306
a(g271
S'860'
p307
F231.70867622577373
tp308
a(g307
S'1030'
p309
F230.54817177966603
tp310
a(g309
S'1215'
p311
F229.64658602255514
tp312
a(g311
S'799'
p313
F216.60117519723585
tp314
a(g313
S'1207'
p315
F101.1060544565955
tp316
a(g315
S'806'
p317
F141.0377369821515
tp318
a(g317
S'959'
p319
F197.56237677218394
tp320
a(g319
S'1213'
p321
F79.63684457582836
tp322
aF55.1513885019488
g302
S'2012-03-02 08:06:10'
p323
I42
F1577.9425043613128
F671.1285460531282
tp324
a((lp325
(S'959'
p326
g321
F79.63669663332959
tp327
a(g321
S'959'
p328
F159.27354120793285
tp329
a(g328
S'927'
p330
F106.9390388791336
tp331
a(g330
g252
F195.5482192140499
tp332
a(g252
S'813'
p333
F182.17650096521103
tp334
a(g333
S'955'
p335
F28.332333907014746
tp336
aF42.96607604609554
g323
S'2012-03-02 08:07:13'
p337
I0
F751.9063308066718
F227.40255939514606
tp338
a((lp339
(S'813'
p340
g335
F28.332335707953956
tp341
a(g335
S'844'
p342
F135.70247565144197
tp343
a(g342
S'799'
p344
F240.77579445686675
tp345
a(g344
g315
F101.1060544565955
tp346
a(g315
S'1145'
p347
F142.994246033289
tp348
a(g347
S'1104'
p349
F27.32868597060038
tp350
aF60.861563304907285
g337
S'2012-03-02 08:07:53'
p351
I0
F676.2395922767475
F82.52755541466567
tp352
a((lp353
(S'1145'
p354
g349
F697.7737466192604
tp355
a(g349
S'121'
p356
F93.4068913815707
tp357
aF15.823612760016625
g351
S'2012-03-02 08:10:53'
p358
I44
F791.1806380008311
F1032.1363756186472
tp359
a((lp360
(S'1104'
p361
g356
F255.54517401737985
tp362
a(g356
S'1104'
p363
F348.95206538914294
tp364
a(g363
S'12'
p365
F340.35709427387536
tp366
a(g365
S'307'
p367
F98.42756263600043
tp368
aF3755.814826739035
g358
S'2012-03-02 08:10:54'
p369
I0
F1043.2818963163986
F0.0
tp370
a((lp371
(S'12'
p372
g367
F238.44561546336965
tp373
a(g367
S'101'
p374
F516.3741780275716
tp375
a(g374
S'923'
p376
F374.2260890538792
tp377
aF13.967577928389531
g369
S'2012-03-02 08:15:45'
p378
I0
F1129.0458825448204
F901.9467428148929
tp379
a((lp380
(S'101'
p381
g376
F556.1344510440405
tp382
a(g376
S'101'
p383
F930.3605400765287
tp384
a(g383
S'307'
p385
F258.18637125569205
tp386
aF114.19732553735527
g378
S'2012-03-02 08:16:40'
p387
I0
F1744.681362376261
F33.952649713780296
tp388
a((lp389
(g381
g381
F0.0
tp390
aF0.0
g387
S'2012-03-02 08:18:25'
p391
I12
F0.0
F54.64728460196246
tp392
a((lp393
(g381
g385
F258.18780681327013
tp394
a(g385
S'121'
p395
F355.28771301773605
tp396
a(g395
S'915'
p397
F317.2464914021481
tp398
a(g397
S'1170'
p399
F209.34014213040564
tp400
aF56.22224317957282
g391
S'2012-03-02 08:19:38'
p401
I5
F1140.06215336356
F279.5231796817447
tp402
a((lp403
(S'915'
p404
g399
F209.34024229024962
tp405
a(g399
S'1066'
p406
F134.29559832461862
tp407
a(g406
S'923'
p408
F203.76793276645955
tp409
aF15.516957355691183
g401
S'2012-03-02 08:21:45'
p410
I20
F547.4037733813278
F230.1909028076062
tp411
a((lp412
(S'1066'
p413
g408
F203.7664193135748
tp414
a(g408
S'888'
p415
F318.05554901056104
tp416
a(g415
S'804'
p417
F436.4498289725836
tp418
a(g417
S'982'
p419
F140.04113628613734
tp420
a(g419
g226
F754.638799327876
tp421
a(g226
g233
F135.9424668369718
tp422
aF34.258464684649454
g410
S'2012-03-02 08:25:14'
p423
I0
F1988.8941997477043
F1657.4410813228835
tp424
a((lp425
(S'1009'
p426
g426
F0.0
tp427
aF9.409922685992516
g423
S'2012-03-02 08:25:55'
p428
I12
F107.16856392380366
F107.87540515463968
tp429
a((lp430
(g426
g233
F100.43529921234672
tp431
a(g233
g183
F348.66405624127844
tp432
a(g183
g185
F264.7542280364345
tp433
a(g185
S'986'
p434
F211.67350826537785
tp435
aF111.06325101065251
g428
S'2012-03-02 08:26:25'
p436
I0
F925.5270917554376
F52.414374756535885
tp437
a((lp438
(S'1218'
p439
g434
F211.67355320611276
tp440
a(g434
S'1218'
p441
F423.3470614498756
tp442
a(g441
S'1191'
p443
F264.7542280364345
tp444
a(g443
g176
F348.66405624127844
tp445
a(g176
S'1009'
p446
F343.5463299595581
tp447
a(g446
S'1007'
p448
F681.3552137071262
tp449
a(g448
S'814'
p450
F199.64182178534386
tp451
aF148.3789358631438
g436
S'2012-03-02 08:27:25'
p452
I16
F2472.9822643857296
F597.3509949512588
tp453
a((lp454
(S'1007'
p455
g455
F0.0
tp456
aF8.093066215439706
g452
S'2012-03-02 08:28:25'
p457
I31
F134.88443692399508
F471.72707339950193
tp458
a((lp459
(g455
g450
F64.75743134210168
tp460
a(g450
g68
F375.362399322151
tp461
a(g68
S'1162'
p462
F27.914351149145627
tp463
aF120.35164675201673
g457
S'2012-03-02 08:28:39'
p464
I18
F468.03418181339833
F9.874109486034843
tp465
a((lp466
(S'994'
p467
g462
F400.09721016895656
tp468
a(g462
S'792'
p469
F393.5275279288238
tp470
a(g469
g66
F350.26427291339104
tp471
a(g66
S'1007'
p472
F199.64186826599462
tp473
aF40.6446316419983
g464
S'2012-03-02 08:30:38'
p474
I0
F1343.530879277166
F377.39271517399436
tp475
a((lp476
(S'814'
p477
g472
F199.64182178534386
tp478
a(g472
g450
F399.2836900504582
tp479
a(g450
g68
F375.362399322151
tp480
a(g68
g70
F40.76242431337713
tp481
aF96.1626633604418
g474
S'2012-03-02 08:31:16'
p482
I0
F1015.0503354713301
F91.54095993596083
tp483
a((lp484
(g467
g70
F480.97072076505526
tp485
a(g70
g72
F160.62148120597513
tp486
aF36.08956136087046
g482
S'2012-03-02 08:32:20'
p487
I51
F641.5922019710304
F468.4732146601867
tp488
a((lp489
(S'963'
p490
g490
F0.0
tp491
aF6.368995986399619
g487
S'2012-03-02 08:32:56'
p492
I0
F63.68995986399619
F63.65354035236856
tp493
a((lp494
(g490
g72
F289.5538085986906
tp495
a(g72
S'963'
p496
F265.52367617927626
tp497
aF86.88169326959482
g492
S'2012-03-02 08:33:19'
p498
I29
F555.0774847779669
F24.102684866050556
tp499
a((lp500
(S'778'
p501
g501
F0.0
tp502
aF13.971594713740515
g498
S'2012-03-02 08:33:34'
p503
I0
F58.21497797391881
F58.01500271139415
tp504
a((lp505
(g501
g496
F190.12659551673457
tp506
a(g496
g72
F513.8652496215955
tp507
a(g72
g74
F225.4618325325494
tp508
aF111.53444132050552
g503
S'2012-03-02 08:34:04'
p509
I29
F929.4536776708794
F119.01316752384179
tp510
a((lp511
(g501
g74
F77.0503059255232
tp512
a(g74
S'778'
p513
F302.5121384580218
tp514
a(g513
g496
F489.347452206418
tp515
aF53.932338409032184
g509
S'2012-03-02 08:35:02'
p516
I0
F868.909896589963
F47.087519963324596
tp517
a((lp518
(g501
g496
F24.517797423370506
tp519
a(g496
S'994'
p520
F521.73314507341
tp521
a(g520
S'814'
p522
F375.362399322151
tp523
a(g522
S'792'
p524
F350.26427291339104
tp525
a(g524
S'1186'
p526
F216.80608846292273
tp527
aF28.506709210121723
g516
S'2012-03-02 08:38:10'
p528
I18
F1488.6837031952455
F1437.0044017208509
tp529
a((lp530
(S'792'
p531
g526
F216.80608187240722
tp532
a(g526
S'1122'
p533
F682.0643108370471
tp534
a(g533
S'804'
p535
F468.363700761058
tp536
aF126.20622401266269
g528
S'2012-03-02 08:38:49'
p537
I31
F1367.2340934705123
F380.6867893098176
tp538
a((lp539
(S'1122'
p540
g535
F468.36172953026096
tp541
a(g535
S'1122'
p542
F936.7254302074238
tp543
a(g542
S'1186'
p544
F682.0643108370471
tp545
a(g544
g533
F484.75461101276596
tp546
aF771.5718244762494
g537
S'2012-03-02 08:39:01'
p547
I0
F2571.9060815874977
F72.17925344031813
tp548
a((lp549
(S'1186'
p550
g533
F197.30969983983303
tp551
a(g533
g535
F936.7254302074238
tp552
a(g535
S'888'
p553
F218.22493404278475
tp554
aF81.1356038454025
g547
S'2012-03-02 08:40:01'
p555
I46
F1352.2600640900416
F1022.3989765466173
tp556
a((lp557
(S'804'
p558
g553
F218.22489493061045
tp559
a(g553
S'923'
p560
F318.05554901056104
tp561
a(g560
g383
F930.3605400765287
tp562
a(g383
S'231'
p563
F2128.2368240663845
tp564
a(g563
S'5'
p565
F373.65454097386885
tp566
a(g565
S'26'
p567
F259.35658898200876
tp568
a(g567
g565
F154.9687852583881
tp569
aF58.438102977311345
g555
S'2012-03-02 08:44:31'
p570
I35
F4382.857723298351
F2111.458923938798
tp571
a((lp572
(S'26'
p573
g565
F104.38780372872465
tp574
a(g565
S'336'
p575
F276.60213113766173
tp576
a(g575
S'271'
p577
F145.7434125243181
tp578
a(g577
S'1072'
p579
F455.13887535379115
tp580
a(g579
S'1137'
p581
F827.5221670782628
tp582
a(g581
S'1303'
p583
F725.1210142806609
tp584
a(g583
S'463'
p585
F245.59864215196615
tp586
aF39.24866888831132
g570
S'2012-03-02 08:48:46'
p587
I37
F2780.1140462553853
F1869.286059444955
tp588
a((lp589
(S'1303'
p590
g585
F671.1467947977831
tp591
a(g585
S'1303'
p592
F916.7454369448138
tp593
a(g592
S'451'
p594
F558.7300773543896
tp595
a(g594
S'1303'
p596
F279.3645428285849
tp597
aF109.16940833665072
g587
S'2012-03-02 08:50:06'
p598
I0
F2425.9868519255715
F644.8167731185155
tp599
a((lp600
(S'451'
p601
g596
F279.3655345764445
tp602
a(g596
g594
F558.7300773543896
tp603
a(g594
S'99'
p604
F634.6465544405745
tp605
a(g604
S'172'
p606
F970.6293936388311
tp607
a(g606
S'350'
p608
F534.4646889578049
tp609
aF148.89181244840225
g598
S'2012-03-02 08:51:18'
p610
I0
F2977.8362489680444
F788.33764405632
tp611
a((lp612
(S'172'
p613
g613
F0.0
tp614
aF0.0
g610
S'2012-03-02 08:51:43'
p615
I55
F0.0
F129.12489839206225
tp616
a((lp617
(g613
g608
F534.4595814169045
tp618
a(g608
S'172'
p619
F1068.9242700134396
tp620
a(g619
S'128'
p621
F673.8897918142452
tp622
a(g621
S'463'
p623
F579.5406775008636
tp624
a(g623
S'25'
p625
F698.4005052534098
tp626
a(g625
g565
F1185.6258624438292
tp627
a(g565
S'231'
p628
F373.65454097386885
tp629
a(g628
S'101'
p630
F1064.1090796797437
tp631
aF49.42883447277043
g615
S'2012-03-02 08:59:13'
p632
I0
F6178.604309096304
F2784.749474016909
tp633
a((lp634
(S'231'
p635
g630
F1064.127747221737
tp636
a(g630
g376
F930.3605400765287
tp637
a(g376
S'1066'
p638
F203.7664193135748
tp639
aF30.43737286077933
g632
S'2012-03-02 09:03:33'
p640
I51
F2198.2547066118404
F2535.552387808962
tp641
a((lp642
(S'923'
p643
g638
F203.76793276645955
tp644
a(g638
S'1170'
p645
F134.29559832461862
tp646
a(g645
S'959'
p647
F135.9977572931447
tp648
a(g647
S'806'
p649
F197.56237677218394
tp650
a(g649
S'1207'
p651
F141.0377369821515
tp652
a(g651
S'818'
p653
F213.60182895150257
tp654
a(g653
S'1203'
p655
F115.08858076068931
tp656
aF43.25122655434422
g640
S'2012-03-02 09:05:08'
p657
I44
F1141.3518118507502
F840.5711096226013
tp658
a((lp659
(S'818'
p660
g655
F115.08878908444478
tp661
a(g655
S'818'
p662
F230.17736984156133
tp663
a(g662
S'1215'
p664
F104.64593136867637
tp665
a(g664
g258
F114.82317600956684
tp666
aF26.403207255783087
g657
S'2012-03-02 09:06:25'
p667
I0
F564.7352663042493
F540.2644316612901
tp668
a((lp669
(S'1215'
p670
g258
F114.82341001656353
tp671
a(g258
S'1203'
p672
F110.13414101381557
tp673
a(g672
S'772'
p674
F143.30202102050836
tp675
a(g674
S'819'
p676
F116.01913758038368
tp677
aF19.588801737894116
g667
S'2012-03-02 09:07:54'
p678
I37
F484.27870963127117
F441.3667084819036
tp679
a((lp680
(S'772'
p681
g676
F116.0193583447958
tp682
a(g676
S'1233'
p683
F280.1051964205321
tp684
a(g683
S'886'
p685
F101.97916629582802
tp686
aF29.886223263669354
g678
S'2012-03-02 09:08:54'
p687
I27
F498.1037210611559
F464.9918697605675
tp688
a((lp689
(S'1233'
p690
g685
F101.97913662171872
tp691
a(g685
S'1233'
p692
F203.95830291726205
tp693
a(g692
S'820'
p694
F255.3750506846333
tp695
a(g694
g299
F123.86886871137345
tp696
aF411.10881536099254
g687
S'2012-03-02 09:09:00'
p697
I0
F685.1813589349875
F0.9768222436664911
tp698
a((lp699
(g295
g299
F123.8689732074665
tp700
a(g299
g288
F247.7378419176489
tp701
a(g288
g290
F1042.7797147525323
tp702
a(g290
S'989'
p703
F345.4568716550513
tp704
aF39.10763114517109
g697
S'2012-03-02 09:11:42'
p705
I0
F1759.843401532699
F589.4032393476236
tp706
a((lp707
(S'887'
p708
g708
F0.0
tp709
aF0.0
g705
S'2012-03-02 09:12:42'
p710
I9
F0.0
F140.2051180934163
tp711
a((lp712
(g708
g703
F345.4594667980335
tp713
a(g703
S'1115'
p714
F1111.3964106739522
tp715
a(g714
S'263'
p716
F472.4206568274532
tp717
a(g716
S'140'
p718
F358.0744347809336
tp719
aF27.35702155710744
g710
S'2012-03-02 09:17:43'
p720
I7
F2287.350969080372
F1904.978909017588
tp721
a((lp722
(S'263'
p723
g718
F77.80409635178897
tp724
a(g718
S'263'
p725
F435.87853113202175
tp726
a(g725
S'393'
p727
F222.89953994766225
tp728
aF1325.8479013766514
g720
S'2012-03-02 09:17:45'
p729
I0
F736.582167431473
F0.8453308006009778
tp730
a((lp731
(g723
g727
F222.8988805181721
tp732
a(g727
S'414'
p733
F82.01156142123234
tp734
a(g733
S'371'
p735
F739.6760747221767
tp736
a(g735
S'1'
p737
F725.2487623614271
tp738
a(g737
S'333'
p739
F975.8745201557714
tp740
a(g739
S'117'
p741
F172.715636685259
tp742
a(g741
S'219'
p743
F140.91102649015764
tp744
aF4.958852437854619
g729
S'2012-03-02 09:54:46'
p745
I0
F3059.3364623541966
F2001.0456502104032
tp746
a((lp747
(S'117'
p748
g743
F298.1124237094465
tp749
a(g743
S'117'
p750
F439.0234501785394
tp751
a(g750
S'333'
p752
F172.715636685259
tp753
a(g752
g737
F242.13546912089407
tp754
aF30.719652791843707
g745
S'2012-03-02 09:57:01'
p755
I29
F1151.9869796941389
F336.6132330497589
tp756
a((lp757
(S'333'
p758
g737
F733.739051056606
tp759
a(g737
S'190'
p760
F133.23962227802784
tp761
a(g760
S'200'
p762
F65.9676834156334
tp763
a(g762
S'190'
p764
F1.8565032707895421
tp765
aF40.06297971518814
g755
S'2012-03-02 09:58:25'
p766
I33
F934.8028600210566
F864.755943911026
tp767
a((lp768
(S'200'
p769
g764
F64.11118014484391
tp770
a(g764
g737
F133.23962227802784
tp771
a(g737
S'371'
p772
F189.7365857754846
tp773
aF24.88418924132291
g766
S'2012-03-02 09:59:21'
p774
I0
F387.0873881983564
F64.29845447478519
tp775
a((lp776
(g737
g772
F535.5121766003429
tp777
a(g772
S'1158'
p778
F158.37844954593294
tp779
aF41.63343756877654
g774
S'2012-03-02 10:00:21'
p780
I35
F693.8906261462757
F713.7737727674887
tp781
a((lp782
(S'371'
p783
g778
F185.0375739357614
tp784
a(g778
S'233'
p785
F505.9919712639641
tp786
a(g785
S'324'
p787
F522.2079091612247
tp788
a(g787
S'12'
p789
F348.33486400960794
tp790
a(g789
g367
F168.43690802019574
tp791
aF51.90027679172262
g780
S'2012-03-02 10:02:21'
p792
I53
F1730.0092263907538
F1177.8284970321274
tp793
a((lp794
(g372
g367
F168.43627008119236
tp795
a(g367
S'12'
p796
F336.87317808984017
tp797
a(g796
S'324'
p798
F348.33486400960794
tp799
a(g798
S'233'
p800
F522.2079091612247
tp801
a(g800
S'1158'
p802
F505.9919712639641
tp803
a(g802
S'371'
p804
F343.4160234801613
tp805
a(g804
S'323'
p806
F502.52151206068487
tp807
a(g806
S'195'
p808
F899.3736486026992
tp809
a(g808
S'323'
p810
F449.68540163712623
tp811
aF244.6104467031901
g792
S'2012-03-02 10:03:21'
p812
I70
F4076.8407783865014
F528.809347931794
tp813
a((lp814
(S'195'
p815
g810
F449.68824717774197
tp816
a(g810
g808
F899.3736486026992
tp817
a(g808
S'160'
p818
F1654.504702992569
tp819
a(g818
S'348'
p820
F380.26404776431184
tp821
aF84.59576616343305
g812
S'2012-03-02 10:05:45'
p822
I0
F3383.830646537322
F1634.8846888134935
tp823
a((lp824
(S'160'
p825
g820
F369.6550410479566
tp826
a(g820
S'423'
p827
F401.7062149289834
tp828
a(g827
S'27'
p829
F360.14779166603097
tp830
a(g829
S'312'
p831
F335.3367748423742
tp832
a(g831
S'226'
p833
F203.12191604004383
tp834
a(g833
S'148'
p835
F466.65985419310493
tp836
a(g835
S'226'
p837
F253.51962710029485
tp838
aF46.013529365495394
g822
S'2012-03-02 10:08:52'
p839
I51
F2390.1472198187885
F1953.7478496116648
tp840
a((lp841
(S'148'
p842
g837
F213.14022709780767
tp843
a(g837
S'312'
p844
F203.12191604004383
tp845
a(g844
S'465'
p846
F475.1534412115984
tp847
a(g846
S'131'
p848
F418.863787732488
tp849
aF18.142329767288373
g839
S'2012-03-02 10:13:12'
p850
I0
F1310.279372081938
F31.925832832994583
tp851
a((lp852
(S'465'
p853
g848
F418.86098091513503
tp854
a(g848
S'107'
p855
F269.0371341692761
tp856
a(g855
S'27'
p857
F1377.9414749341843
tp858
a(g857
S'423'
p859
F360.14779166603097
tp860
a(g859
S'348'
p861
F401.7062149289834
tp862
a(g861
g827
F70.12990126768645
tp863
aF56.39007887769009
g850
S'2012-03-02 10:16:17'
p864
I14
F2897.823497881296
F1516.3719772648724
tp865
a((lp866
(S'348'
p867
g827
F331.5763136639522
tp868
a(g827
g861
F401.7062149289834
tp869
a(g861
S'40'
p870
F401.59962843252373
tp871
a(g870
S'400'
p872
F175.03635260490466
tp873
a(g872
S'359'
p874
F368.9484986175782
tp875
a(g874
S'149'
p876
F214.5001502809245
tp877
a(g876
S'115'
p878
F279.2751738259168
tp879
a(g878
S'448'
p880
F131.96675629555088
tp881
a(g880
S'115'
p882
F65.98330483756305
tp883
aF15.687743780434616
g864
S'2012-03-02 10:25:21'
p884
I0
F2370.5923934878974
F1203.7315603516486
tp885
a((lp886
(S'448'
p887
g887
F0.0
tp888
aF0.0
g884
S'2012-03-02 10:25:50'
p889
I33
F0.0
F147.54293807403886
tp890
a((lp891
(g887
g882
F65.98345145874035
tp892
a(g882
S'149'
p893
F279.2751738259168
tp894
a(g893
S'359'
p895
F214.5001502809245
tp896
a(g895
S'400'
p897
F368.9484986175782
tp898
a(g897
S'40'
p899
F175.03635260490466
tp900
a(g899
S'348'
p901
F28.288267265211353
tp902
aF42.45119602699785
g889
S'2012-03-02 10:27:26'
p903
I0
F1132.031894053276
F683.4875641354887
tp904
a((lp905
(S'40'
p906
g901
F373.31136117244097
tp907
a(g901
g827
F401.7062149289834
tp908
a(g827
S'87'
p909
F723.5563566983903
tp910
a(g909
S'322'
p911
F330.7949398264931
tp912
aF54.881066178789226
g903
S'2012-03-02 10:29:26'
p913
I37
F1829.3688726263076
F1041.9464228583172
tp914
a((lp915
(S'87'
p916
g911
F330.796659769374
tp917
a(g911
S'114'
p918
F293.16190634917444
tp919
a(g918
S'69'
p920
F138.59080145535074
tp921
aF45.75296205443395
g913
S'2012-03-02 10:30:26'
p922
I55
F762.5493675738992
F991.2792816407955
tp923
a((lp924
(S'114'
p925
g920
F138.59090513124823
tp926
a(g920
S'209'
p927
F560.4047888183237
tp928
a(g927
S'219'
p929
F348.12509298251837
tp930
a(g929
g750
F439.0234501785394
tp931
a(g750
S'97'
p932
F1160.876717687237
tp933
a(g932
S'372'
p934
F63.758701035611004
tp935
a(g934
S'433'
p936
F585.0976094380715
tp937
a(g936
S'60'
p938
F681.541364054803
tp939
aF51.879373425995894
g922
S'2012-03-02 10:35:02'
p940
I50
F3977.418629326352
F2482.305306709325
tp941
a((lp942
(S'433'
p943
g938
F681.524700982925
tp944
a(g938
S'97'
p945
F1020.3764292495448
tp946
a(g945
S'117'
p947
F1160.876717687237
tp948
a(g947
g743
F439.0234501785394
tp949
a(g743
g750
F219.5124180309608
tp950
aF4.360760019974251
g940
S'2012-03-02 11:23:29'
p951
I48
F3521.313716129207
F1602.8778503483973
tp952
a((lp953
(S'219'
p954
g750
F219.51103217178073
tp955
a(g750
g743
F439.0234501785394
tp956
a(g743
S'209'
p957
F348.12509298251837
tp958
a(g957
g929
F34.12907011664866
tp959
aF340.62173851074124
g951
S'2012-03-02 11:23:40'
p960
I0
F1040.7886454494871
F50.67759618412866
tp961
a((lp962
(S'209'
p963
g929
F313.9960228701065
tp964
a(g929
g750
F439.0234501785394
tp965
a(g750
g932
F1160.876717687237
tp966
a(g932
g934
F63.758701035611004
tp967
a(g934
g936
F585.0976094380715
tp968
a(g936
S'270'
p969
F307.35968977754516
tp970
aF2.4175020794463267
g960
S'2012-03-02 12:34:54'
p971
I25
F2870.112190987111
F1702.5701115390666
tp972
a((lp973
(g943
g969
F22.957143826136072
tp974
a(g969
S'392'
p975
F95.85961614434376
tp976
a(g975
S'431'
p977
F457.83618440901
tp978
a(g977
S'203'
p979
F125.02613848537139
tp980
aF22.35437786118142
g971
S'2012-03-02 12:36:47'
p981
I9
F701.6790828648612
F697.3301111795092
tp982
a((lp983
(S'431'
p984
g979
F244.95999759519503
tp985
a(g979
S'393'
p986
F126.8415116158981
tp987
a(g986
S'263'
p988
F445.7984204400668
tp989
a(g988
S'1115'
p990
F472.4206568274532
tp991
a(g990
S'989'
p992
F1111.3964106739522
tp993
a(g992
S'1230'
p994
F396.62742466432553
tp995
a(g994
S'812'
p996
F176.24844159783433
tp997
aF33.15001333836845
g981
S'2012-03-02 12:42:10'
p998
I29
F2974.292863414725
F1928.6048953346926
tp999
a((lp1000
(S'1230'
p1001
g996
F176.24913595514033
tp1002
a(g996
S'1230'
p1003
F352.49757753977093
tp1004
a(g1003
S'989'
p1005
F396.62742466432553
tp1006
a(g1005
g714
F1111.3964106739522
tp1007
a(g714
g716
F472.4206568274532
tp1008
a(g716
g718
F435.87853113202175
tp1009
a(g718
S'431'
p1010
F334.7646258643055
tp1011
a(g1010
g979
F113.06541529741357
tp1012
aF14.023466361235107
g998
S'2012-03-02 12:56:41'
p1013
I16
F3392.899777954383
F1943.1222589971972
tp1014
a((lp1015
(g984
g979
F256.9207207825563
tp1016
a(g979
S'414'
p1017
F110.55925503297553
tp1018
a(g1017
g735
F739.6760747221767
tp1019
a(g735
g778
F343.4160234801613
tp1020
a(g778
g785
F505.9919712639641
tp1021
a(g785
S'1222'
p1022
F314.42150737049457
tp1023
a(g1022
S'233'
p1024
F157.21078570864503
tp1025
aF30.888716671729693
g1013
S'2012-03-02 13:01:24'
p1026
I29
F2428.196338360973
F1593.2059518367896
tp1027
a((lp1028
(S'1222'
p1029
g1024
F157.21072166279825
tp1030
a(g1024
g1022
F314.42150737049457
tp1031
a(g1022
S'1209'
p1032
F264.90095175928997
tp1033
aF66.28798627133244
g1026
S'2012-03-02 13:02:04'
p1034
I0
F736.5331807925827
F51.433155738505825
tp1035
a((lp1036
(g1029
g1032
F264.89961452195024
tp1037
a(g1032
S'1222'
p1038
F529.8005662370716
tp1039
a(g1038
S'886'
p1040
F498.13109666342655
tp1041
a(g1040
g692
F203.95830291726205
tp1042
a(g692
g685
F101.97916629582802
tp1043
aF169.28139670258645
g1034
S'2012-03-02 13:02:38'
p1044
I33
F1598.7687466355385
F241.837648379796
tp1045
a((lp1046
(g690
g685
F101.97913662171872
tp1047
a(g685
g692
F203.95830291726205
tp1048
a(g692
S'819'
p1049
F280.1051964205321
tp1050
a(g1049
S'772'
p1051
F232.03849592151013
tp1052
a(g1051
S'1028'
p1053
F230.208379433524
tp1054
a(g1053
S'1145'
p1055
F210.6065185280842
tp1056
a(g1055
S'1020'
p1057
F138.3852165812993
tp1058
a(g1057
S'806'
p1059
F68.75480325342474
tp1060
aF44.72652354947864
g1044
S'2012-03-02 13:04:36'
p1061
I0
F1466.0360496773553
F847.2825443274669
tp1062
a((lp1063
(S'1020'
p1064
g1059
F68.75482386085511
tp1065
a(g1059
g319
F197.56237677218394
tp1066
a(g319
S'1170'
p1067
F135.9977572931447
tp1068
a(g1067
S'915'
p1069
F418.6803844186766
tp1070
a(g1069
S'121'
p1071
F158.62328613807864
tp1072
aF30.142111645628887
g1061
S'2012-03-02 13:06:33'
p1073
I0
F979.6186284829389
F815.259698010404
tp1074
a((lp1075
(g404
g1071
F158.62320526527418
tp1076
a(g1071
S'307'
p1077
F355.28771301773605
tp1078
a(g1077
g374
F516.3741780275716
tp1079
a(g374
g563
F2128.2368240663845
tp1080
a(g563
g565
F373.65454097386885
tp1081
a(g565
S'25'
p1082
F592.8151634353723
tp1083
aF77.34359296474139
g1073
S'2012-03-02 13:09:45'
p1084
I0
F4124.9916247862075
F2197.8462929672787
tp1085
a((lp1086
(g565
g1082
F592.8106994925537
tp1087
a(g1082
S'1137'
p1088
F909.535541555871
tp1089
a(g1088
g583
F3.5110247210005334
tp1090
aF35.431935665162946
g1084
S'2012-03-02 13:12:18'
p1091
I38
F1505.857265769425
F1162.3008636720133
tp1092
a((lp1093
(S'1137'
p1094
g583
F721.609989561793
tp1095
a(g583
g594
F558.7300773543896
tp1096
a(g594
g604
F634.6465544405745
tp1097
a(g604
S'250'
p1098
F714.166657688526
tp1099
a(g1098
S'99'
p1100
F31.242762589140707
tp1101
aF29.55995601816026
g1091
S'2012-03-02 13:17:42'
p1102
I38
F2660.3960416344235
F2602.0526773623797
tp1103
a((lp1104
(S'250'
p1105
g1100
F682.9238951169639
tp1106
a(g1100
S'1345'
p1107
F384.78659929766803
tp1108
a(g1107
S'1330'
p1109
F225.3777301642604
tp1110
a(g1109
S'1326'
p1111
F691.146827141222
tp1112
a(g1111
S'1343'
p1113
F335.7915781764397
tp1114
a(g1113
S'1239'
p1115
F393.6433366208233
tp1116
a(g1115
S'1385'
p1117
F774.24262055248
tp1118
a(g1117
S'1338'
p1119
F390.9239723160365
tp1120
a(g1119
S'1324'
p1121
F851.0803173901818
tp1122
a(g1121
S'1307'
p1123
F900.6330117955955
tp1124
a(g1123
S'347'
p1125
F1023.9191015438265
tp1126
a(g1125
S'355'
p1127
F494.86231964904096
tp1128
a(g1127
S'367'
p1129
F720.0000486655169
tp1130
a(g1129
S'216'
p1131
F97.57867161922725
tp1132
aF70.46898306677497
g1102
S'2012-03-02 13:24:29'
p1133
I0
F7966.910030049282
F4724.997203782267
tp1134
a((lp1135
(S'367'
p1136
g1131
F615.9406365681472
tp1137
a(g1131
S'8'
p1138
F797.9260092782116
tp1139
a(g1138
S'243'
p1140
F248.80307483467053
tp1141
aF105.01071920090712
g1133
S'2012-03-02 13:25:26'
p1142
I50
F1662.6697206810293
F558.4362508667962
tp1143
a((lp1144
(g1138
g1140
F248.80342239140634
tp1145
a(g1140
g1138
F497.6064972180614
tp1146
a(g1138
S'216'
p1147
F797.9260092782116
tp1148
a(g1147
S'346'
p1149
F0.547988363678441
tp1150
aF142.60466928474077
g1142
S'2012-03-02 13:26:05'
p1151
I0
F1544.883917251358
F57.588459233328614
tp1152
a((lp1153
(S'216'
p1154
g1149
F619.5872764920684
tp1155
a(g1149
S'216'
p1156
F620.135264855302
tp1157
a(g1156
g1138
F797.9260092782116
tp1158
a(g1138
g1140
F497.6064972180614
tp1159
a(g1140
S'1358'
p1160
F820.1452521497176
tp1161
a(g1160
S'1327'
p1162
F197.1367679524997
tp1163
a(g1162
S'1399'
p1164
F433.91775760016844
tp1165
a(g1164
S'1379'
p1166
F365.18936542563927
tp1167
a(g1166
S'1253'
p1168
F169.6879575593227
tp1169
a(g1168
S'1287'
p1170
F215.9995211997082
tp1171
a(g1170
S'1236'
p1172
F500.94138389154773
tp1173
a(g1172
S'1267'
p1174
F465.5891016569359
tp1175
a(g1174
S'1243'
p1176
F285.58268750573745
tp1177
a(g1176
S'1312'
p1178
F457.99147004036877
tp1179
a(g1178
S'1301'
p1180
F298.40658492761906
tp1181
a(g1180
S'1304'
p1182
F266.44641447656124
tp1183
a(g1182
S'1352'
p1184
F210.82265729695493
tp1185
aF23.834283309161442
g1151
S'2012-03-02 13:44:16'
p1186
I35
F7223.111969526425
F4287.665275611155
tp1187
a((lp1188
(S'1304'
p1189
g1189
F0.0
tp1190
aF10.131753486118908
g1186
S'2012-03-02 13:44:39'
p1191
I0
F64.73064727242637
F64.62863240167482
tp1192
a((lp1193
(g1189
g1184
F30.80172340225124
tp1194
a(g1184
S'1312'
p1195
F293.5402480655337
tp1196
a(g1195
S'1243'
p1197
F457.99147004036877
tp1198
a(g1197
S'1267'
p1199
F285.58268750573745
tp1200
a(g1199
S'1236'
p1201
F465.5891016569359
tp1202
a(g1201
S'1287'
p1203
F500.94138389154773
tp1204
a(g1203
S'1392'
p1205
F468.7311467128138
tp1206
a(g1205
S'1296'
p1207
F438.770309446354
tp1208
a(g1207
S'1383'
p1209
F404.85442362487805
tp1210
aF100.40407483039264
g1191
S'2012-03-02 13:46:39'
p1211
I31
F3346.802494346421
F1699.1193884760855
tp1212
a((lp1213
(S'1296'
p1214
g1209
F181.29658629875343
tp1215
a(g1209
S'1254'
p1216
F444.6992573236813
tp1217
a(g1216
S'1357'
p1218
F374.80718946134937
tp1219
a(g1218
S'1374'
p1220
F422.86218447973016
tp1221
a(g1220
S'1358'
p1222
F202.63878085578128
tp1223
aF97.57823990515773
g1211
S'2012-03-02 13:47:39'
p1224
I55
F1626.3039984192956
F782.1054966875108
tp1225
a((lp1226
(S'1374'
p1227
g1222
F202.63856527011754
tp1228
a(g1222
g1162
F197.1367679524997
tp1229
a(g1162
S'1337'
p1230
F390.641304498113
tp1231
a(g1230
S'1327'
p1232
F323.2903380665208
tp1233
aF22.39857604935253
g1224
S'2012-03-02 13:50:38'
p1234
I64
F1113.706975787251
F777.7412815602979
tp1235
a((lp1236
(S'1337'
p1237
g1232
F67.35096643370228
tp1238
a(g1232
S'1358'
p1239
F197.1367679524997
tp1240
a(g1239
S'1262'
p1241
F232.00833765223564
tp1242
a(g1241
S'1293'
p1243
F787.1783886964448
tp1244
a(g1243
S'1260'
p1245
F1024.1097312058519
tp1246
a(g1245
S'1400'
p1247
F867.3349765185505
tp1248
a(g1247
S'1349'
p1249
F192.7218930532529
tp1250
aF48.49691128578054
g1234
S'2012-03-02 13:54:48'
p1251
I68
F3367.8410615125376
F2870.3327282260534
tp1252
a((lp1253
(S'1400'
p1254
g1249
F192.72219143196102
tp1255
a(g1249
S'1400'
p1256
F385.4440844687764
tp1257
a(g1256
S'1324'
p1258
F744.7785653083077
tp1259
a(g1258
S'49'
p1260
F1748.1730382622231
tp1261
a(g1260
S'158'
p1262
F585.9315605109871
tp1263
a(g1262
S'49'
p1264
F51.88248611685787
tp1265
aF65.13246309247222
g1251
S'2012-03-02 13:58:13'
p1266
I42
F3708.931926099113
F3026.6450195876887
tp1267
a((lp1268
(S'158'
p1269
g1264
F534.0490743958454
tp1270
a(g1264
g1262
F585.9315605109871
tp1271
a(g1262
S'398'
p1272
F980.5492056374832
tp1273
a(g1272
S'340'
p1274
F30.39307713317842
tp1275
aF91.32526790046403
g1266
S'2012-03-02 13:59:37'
p1276
I0
F2130.922917677494
F1009.1718670027576
tp1277
a((lp1278
(S'398'
p1279
g1274
F1085.8322700544702
tp1280
a(g1274
S'235'
p1281
F551.7098879346082
tp1282
aF98.2525294793447
g1276
S'2012-03-02 14:00:37'
p1283
I66
F1637.5421579890785
F1025.1633640764185
tp1284
a((lp1285
(S'340'
p1286
g1281
F551.715397690219
tp1287
a(g1281
S'406'
p1288
F1280.716757645314
tp1289
a(g1288
S'37'
p1290
F709.895434390015
tp1291
a(g1290
S'231'
p1292
F1230.1532257749107
tp1293
a(g1292
g630
F2128.2368240663845
tp1294
a(g630
g385
F516.3741780275716
tp1295
a(g385
g796
F336.87317808984017
tp1296
a(g796
g798
F348.33486400960794
tp1297
a(g798
g800
F522.2079091612247
tp1298
a(g800
g802
F505.9919712639641
tp1299
a(g802
g804
F343.4160234801613
tp1300
a(g804
g806
F502.52151206068487
tp1301
a(g806
g808
F899.3736486026992
tp1302
a(g808
g818
F1654.504702992569
tp1303
a(g818
S'206'
p1304
F2977.933896935319
tp1305
a(g1304
S'79'
p1306
F340.8639244928786
tp1307
a(g1306
S'62'
p1308
F92.94979172416242
tp1309
aF224.1309486061129
g1283
S'2012-03-02 14:04:37'
p1310
I3
F14942.063240407528
F2974.2961144507963
tp1311
a((lp1312
(S'79'
p1313
g1308
F673.4897161822274
tp1314
a(g1308
S'120'
p1315
F311.3022233380913
tp1316
a(g1315
S'89'
p1317
F233.46831276379612
tp1318
a(g1317
S'311'
p1319
F72.12107931729122
tp1320
aF74.92536764137198
g1310
S'2012-03-02 14:05:39'
p1321
I68
F1290.3813316014061
F309.0990468081121
tp1322
a((lp1323
(S'89'
p1324
g1319
F331.8432449170011
tp1325
a(g1319
S'89'
p1326
F403.9643242216588
tp1327
a(g1326
S'120'
p1328
F233.46831276379612
tp1329
a(g1328
S'62'
p1330
F311.3022233380913
tp1331
a(g1330
S'79'
p1332
F421.4996699685935
tp1333
aF191.48374971102834
g1321
S'2012-03-02 14:06:11'
p1334
I0
F1702.0777752091408
F46.77599068876601
tp1335
a((lp1336
(S'62'
p1337
g1332
F344.9398380147753
tp1338
a(g1332
g1308
F766.4395078482208
tp1339
a(g1308
S'328'
p1340
F304.77298423724176
tp1341
a(g1340
S'196'
p1342
F104.36427714974283
tp1343
aF91.23099643499886
g1334
S'2012-03-02 14:07:11'
p1344
I24
F1520.5166072499808
F531.8043773716864
tp1345
a((lp1346
(S'328'
p1347
g1342
F104.36453134539046
tp1348
a(g1342
S'220'
p1349
F611.7560822228065
tp1350
a(g1349
S'359'
p1351
F423.40012907983873
tp1352
a(g1351
g897
F368.9484986175782
tp1353
a(g897
g899
F175.03635260490466
tp1354
a(g899
g901
F401.59962843252373
tp1355
a(g901
S'160'
p1356
F749.9190888032648
tp1357
a(g1356
S'195'
p1358
F1654.504702992569
tp1359
a(g1358
g810
F899.3736486026992
tp1360
a(g810
S'371'
p1361
F502.52151206068487
tp1362
a(g1361
g778
F343.4160234801613
tp1363
a(g778
g785
F505.9919712639641
tp1364
a(g785
g787
F522.2079091612247
tp1365
a(g787
g789
F348.33486400960794
tp1366
a(g789
g367
F336.87317808984017
tp1367
a(g367
g374
F516.3741780275716
tp1368
a(g374
g563
F2128.2368240663845
tp1369
a(g563
g565
F373.65454097386885
tp1370
a(g565
g1082
F1185.6258624438292
tp1371
a(g1082
S'463'
p1372
F349.2010672515617
tp1373
aF250.0268118706055
g1344
S'2012-03-02 14:10:11'
p1374
I70
F12501.340593530274
F1235.4875174553977
tp1375
a((lp1376
(S'25'
p1377
g1372
F349.1994381009939
tp1378
a(g1372
g625
F698.4005052534098
tp1379
a(g625
S'37'
p1380
F4.12916575235337
tp1381
aF99.63749454695595
g1374
S'2012-03-02 14:10:49'
p1382
I50
F1051.7291091067573
F361.56196207961295
tp1383
a((lp1384
(g1377
g1380
F473.86973449481303
tp1385
a(g1380
S'25'
p1386
F477.9989002471008
tp1387
a(g1386
g1372
F698.4005052534098
tp1388
a(g1372
g592
F916.7454369448138
tp1389
a(g592
g594
F558.7300773543896
tp1390
a(g594
g604
F197.54318344298738
tp1391
aF89.28235981981383
g1382
S'2012-03-02 14:13:03'
p1392
I0
F3323.2878377375146
F1569.8383004737434
tp1393
a((lp1394
(g601
g604
F437.10337106118953
tp1395
a(g604
S'451'
p1396
F634.6465544405745
tp1397
a(g1396
g596
F279.3645428285849
tp1398
aF108.08915746642792
g1392
S'2012-03-02 14:13:48'
p1399
I50
F1351.114468330349
F24.79301079481161
tp1400
a((lp1401
(g601
g596
F279.3655345764445
tp1402
a(g596
g585
F916.7454369448138
tp1403
a(g585
S'128'
p1404
F579.5406775008636
tp1405
a(g1404
S'268'
p1406
F438.9951921384647
tp1407
aF132.8788104696352
g1399
S'2012-03-02 14:14:48'
p1408
I29
F2214.6468411605865
F229.84954921385187
tp1409
a((lp1410
(S'128'
p1411
g1406
F272.82056839348024
tp1412
a(g1406
S'128'
p1413
F711.8157605305048
tp1414
a(g1413
g623
F579.5406775008636
tp1415
a(g623
g1404
F30.956811435001185
tp1416
aF47.85401453579549
g1408
S'2012-03-02 14:16:48'
p1417
I31
F1595.1338178598496
F524.173136503054
tp1418
a((lp1419
(S'463'
p1420
g1404
F548.58386607744
tp1421
a(g1404
g623
F579.5406775008636
tp1422
a(g623
g625
F698.4005052534098
tp1423
a(g625
g565
F1185.6258624438292
tp1424
a(g565
g628
F373.65454097386885
tp1425
a(g628
g630
F2128.2368240663845
tp1426
a(g630
g385
F516.3741780275716
tp1427
a(g385
g796
F336.87317808984017
tp1428
a(g796
g798
F348.33486400960794
tp1429
a(g798
g800
F522.2079091612247
tp1430
a(g800
g802
F505.9919712639641
tp1431
a(g802
g804
F343.4160234801613
tp1432
a(g804
g806
F502.52151206068487
tp1433
a(g806
g808
F899.3736486026992
tp1434
a(g808
g818
F1654.504702992569
tp1435
a(g818
g820
F749.9190888032648
tp1436
a(g820
g870
F401.59962843252373
tp1437
a(g870
g872
F175.03635260490466
tp1438
a(g872
g874
F368.9484986175782
tp1439
a(g874
S'461'
p1440
F575.8753506220564
tp1441
a(g1440
S'76'
p1442
F209.84399480520491
tp1443
a(g1442
S'39'
p1444
F384.48890299753157
tp1445
a(g1444
S'120'
p1446
F307.45722819200313
tp1447
a(g1446
g1317
F233.46831276379612
tp1448
a(g1317
g1319
F74.30793625989928
tp1449
aF157.63026350051013
g1417
S'2012-03-02 14:22:22'
p1450
I18
F14624.585558102883
F1822.543803693233
tp1451
a((lp1452
(g1324
g1319
F329.6563879746942
tp1453
a(g1319
S'171'
p1454
F197.878605692179
tp1455
a(g1454
S'79'
p1456
F258.8430387665728
tp1457
a(g1456
S'356'
p1458
F472.44389761074996
tp1459
aF174.2984210830425
g1450
S'2012-03-02 14:22:48'
p1460
I0
F1258.821930044196
F128.67680388178502
tp1461
a((lp1462
(g1313
g1458
F472.43871408277124
tp1463
a(g1458
S'91'
p1464
F373.21024831220325
tp1465
a(g1464
S'34'
p1466
F362.9857541263605
tp1467
a(g1466
S'171'
p1468
F361.50220986718784
tp1469
a(g1468
S'311'
p1470
F197.878605692179
tp1471
a(g1470
S'444'
p1472
F119.87242291813655
tp1473
a(g1472
S'249'
p1474
F96.00573607149724
tp1475
aF61.56911455045869
g1460
S'2012-03-02 14:24:44'
p1476
I35
F1983.8936910703355
F437.2942298795554
tp1477
a((lp1478
(S'444'
p1479
g1474
F96.00552980822815
tp1480
a(g1474
S'444'
p1481
F192.01126587807087
tp1482
a(g1481
S'311'
p1483
F119.87242291813655
tp1484
a(g1483
g1454
F197.878605692179
tp1485
a(g1454
g1456
F129.42135191882286
tp1486
aF220.55675286463125
g1476
S'2012-03-02 14:24:56'
p1487
I0
F735.1891762154374
F10.126064333603871
tp1488
a((lp1489
(S'171'
p1490
g1456
F129.42168685143156
tp1491
a(g1456
S'171'
p1492
F258.8430387665728
tp1493
a(g1492
S'34'
p1494
F43.53209416515787
tp1495
aF28.786454652210818
g1487
S'2012-03-02 14:25:50'
p1496
I16
F431.7968197831623
F283.52642322280127
tp1497
a((lp1498
(g1490
g1494
F317.97011570826027
tp1499
a(g1494
g1468
F361.50220986718784
tp1500
a(g1468
g1456
F129.42135191882286
tp1501
aF161.77873549885422
g1496
S'2012-03-02 14:26:08'
p1502
I0
F808.8936774942711
F69.29901641307296
tp1503
a((lp1504
(g1490
g1456
F129.42168685143156
tp1505
a(g1456
g1308
F766.4395078482208
tp1506
a(g1308
g1340
F152.38622218651932
tp1507
aF62.89484501317031
g1502
S'2012-03-02 14:27:08'
p1508
I38
F1048.2474168861718
F708.5786529662918
tp1509
a((lp1510
(g1337
g1340
F152.38676205931748
tp1511
a(g1340
g1342
F208.72880849237106
tp1512
a(g1342
g1349
F611.7560822228065
tp1513
a(g1349
g1351
F423.40012907983873
tp1514
a(g1351
g897
F368.9484986175782
tp1515
a(g897
g899
F175.03635260490466
tp1516
a(g899
g901
F401.59962843252373
tp1517
a(g901
g1356
F749.9190888032648
tp1518
a(g1356
g1358
F193.2418923014648
tp1519
aF98.5505172784221
g1508
S'2012-03-02 14:29:08'
p1520
I66
F3285.0172426140703
F2499.689547069159
tp1521
a((lp1522
(g825
g1358
F1461.2628112526777
tp1523
a(g1358
g810
F899.3736486026992
tp1524
a(g810
g1361
F502.52151206068487
tp1525
a(g1361
g778
F343.4160234801613
tp1526
a(g778
g785
F505.9919712639641
tp1527
a(g785
g1022
F314.42150737049457
tp1528
a(g1022
g1032
F529.8005662370716
tp1529
a(g1032
S'1104'
p1530
F340.0113446486208
tp1531
a(g1530
g356
F59.48164201257112
tp1532
aF99.1256205385789
g1520
S'2012-03-02 14:32:08'
p1533
I72
F4956.281026928945
F1799.8032848525663
tp1534
a((lp1535
(g361
g361
F0.0
tp1536
aF0.029943928566524416
g1533
S'2012-03-02 14:32:17'
p1537
I1
F0.07485982141631105
F0.4892576766242218
tp1538
a((lp1539
(g361
g356
F289.5452832050318
tp1540
a(g356
g363
F348.95206538914294
tp1541
a(g363
S'1145'
p1542
F725.1024325879025
tp1543
a(g1542
g1057
F69.19264734490093
tp1544
aF12.830976971883388
g1537
S'2012-03-02 14:38:59'
p1545
I0
F1432.7924285269783
F85.1124177346612
tp1546
a((lp1547
(g354
g1057
F69.19256923717653
tp1548
a(g1057
S'1170'
p1549
F201.74042609344684
tp1550
a(g1549
g1069
F418.6803844186766
tp1551
a(g1069
g1071
F158.62328613807864
tp1552
aF28.80803770938267
g1545
S'2012-03-02 14:40:45'
p1553
I0
F848.2366658873786
F796.4743134795697
tp1554
a((lp1555
(g404
g1071
F158.62320526527418
tp1556
a(g1071
g397
F317.2464914021481
tp1557
a(g397
g399
F418.6803844186766
tp1558
a(g399
g406
F134.29559832461862
tp1559
a(g406
g408
F407.53435205726896
tp1560
a(g408
g383
F285.29754556836866
tp1561
aF99.96837544082062
g1553
S'2012-03-02 14:41:47'
p1562
I0
F1721.6775770363552
F78.17573838560125
tp1563
a((lp1564
(g643
g383
F645.0629945270782
tp1565
a(g383
g376
F930.3605400765287
tp1566
a(g376
g638
F203.7664193135748
tp1567
aF278.48190583051536
g1562
S'2012-03-02 14:42:10'
p1568
I42
F1779.1899539171816
F136.23065610232473
tp1569
a((lp1570
(g643
g638
F203.76793276645955
tp1571
a(g638
g408
F407.53435205726896
tp1572
a(g408
g383
F930.3605400765287
tp1573
a(g383
g563
F2128.2368240663845
tp1574
a(g563
g565
F368.91927803499027
tp1575
aF74.94715534642205
g1568
S'2012-03-02 14:45:24'
p1576
I0
F4038.8189270016323
F1918.0229156776688
tp1577
a((lp1578
(g635
g565
F4.735262939022763
tp1579
a(g565
g575
F276.60213113766173
tp1580
a(g575
S'26'
p1581
F160.71189559140225
tp1582
aF25.667378109759877
g1576
S'2012-03-02 14:46:26'
p1583
I9
F442.0492896680868
F173.80545399969142
tp1584
a((lp1585
(S'336'
p1586
g1581
F160.71094618009516
tp1587
a(g1581
g565
F129.67853443572113
tp1588
aF30.747121476968786
g1583
S'2012-03-02 14:47:00'
p1589
I16
F290.3894806158163
F81.92696632263129
tp1590
a((lp1591
(g573
g565
F129.67805455175846
tp1592
a(g565
g567
F129.67805455175846
tp1593
aF311.2273309242203
g1589
S'2012-03-02 14:47:03'
p1594
I0
F259.3561091035169
F14.140665019302277
tp1595
a((lp1596
(g565
g567
F129.67853443572113
tp1597
a(g567
g565
F67.07718785359133
tp1598
aF11.80534333735875
g1594
S'2012-03-02 14:48:03'
p1599
I0
F196.75572228931247
F129.12370196194766
tp1600
a((lp1601
(g573
g573
F0.0
tp1602
aF5.181799751543759
g1599
S'2012-03-02 14:50:06'
p1603
I12
F177.04482484441175
F295.9691675728233
tp1604
a((lp1605
(g573
g565
F15.23457628858893
tp1606
a(g565
g628
F373.65454097386885
tp1607
a(g628
S'37'
p1608
F62.52846099230285
tp1609
aF10.093809203212038
g1603
S'2012-03-02 14:52:47'
p1610
I0
F451.4175782547606
F568.393435162939
tp1611
a((lp1612
(g635
g1608
F1167.6247648898486
tp1613
a(g1608
g1292
F1230.1532257749107
tp1614
a(g1292
g630
F2128.2368240663845
tp1615
a(g630
g385
F516.3741780275716
tp1616
a(g385
g796
F336.87317808984017
tp1617
a(g796
g798
F348.33486400960794
tp1618
a(g798
g800
F522.2079091612247
tp1619
a(g800
g802
F505.9919712639641
tp1620
a(g802
g804
F343.4160234801613
tp1621
a(g804
g806
F502.52151206068487
tp1622
a(g806
g808
F899.3736486026992
tp1623
a(g808
S'141'
p1624
F288.679793805085
tp1625
a(g1624
S'349'
p1626
F117.53663228306871
tp1627
aF177.16225575610045
g1610
S'2012-03-02 14:55:48'
p1628
I61
F8907.32452551505
F3154.559215460576
tp1629
a((lp1630
(S'141'
p1631
g1626
F27.221095526999065
tp1632
a(g1626
S'286'
p1633
F215.09626284539777
tp1634
a(g1633
S'290'
p1635
F181.32466665662517
tp1636
a(g1635
S'35'
p1637
F413.7189959181754
tp1638
a(g1637
S'200'
p1639
F774.7867391124779
tp1640
a(g1639
g764
F65.9676834156334
tp1641
a(g764
g737
F133.23962227802784
tp1642
a(g737
S'392'
p1643
F1075.0148639845097
tp1644
a(g1643
S'270'
p1645
F95.85961614434376
tp1646
a(g1645
S'365'
p1647
F683.1267423951847
tp1648
aF109.96068864832122
g1628
S'2012-03-02 14:57:48'
p1649
I70
F3665.356288277374
F2219.988509247121
tp1650
a((lp1651
(S'270'
p1652
g1647
F683.1318240690184
tp1653
a(g1647
S'270'
p1654
F1366.258565726773
tp1655
a(g1654
S'433'
p1656
F330.3168336032497
tp1657
a(g1656
S'372'
p1658
F585.0976094380715
tp1659
a(g1658
S'97'
p1660
F63.758701035611004
tp1661
a(g1660
S'413'
p1662
F1079.6824743926077
tp1663
a(g1662
S'333'
p1664
F703.8472677895601
tp1665
aF2.897881531247509
g1649
S'2012-03-02 16:37:26'
p1666
I70
F4812.093276054891
F2446.9458607793626
tp1667
a((lp1668
(S'413'
p1669
g1664
F703.8633656034007
tp1670
a(g1664
g737
F975.8745201557714
tp1671
a(g737
g1643
F1075.0148639845097
tp1672
a(g1643
g977
F228.9174100664983
tp1673
aF1.4161124028103689
g1666
S'2012-03-02 18:43:51'
p1674
I0
F2983.67015981018
F2492.93337426297
tp1675
a((lp1676
(S'392'
p1677
g977
F228.91877436788937
tp1678
a(g977
S'140'
p1679
F149.85080689075173
tp1680
aF22.726174875518467
g1674
S'2012-03-02 18:44:51'
p1681
I25
F378.7695812586411
F344.4832398504083
tp1682
a((lp1683
(g984
g1679
F184.91381898443606
tp1684
a(g1679
g1010
F334.7646258643055
tp1685
a(g1010
g979
F369.98613606887915
tp1686
a(g979
g1017
F110.55925503297553
tp1687
a(g1017
S'929'
p1688
F303.12038890948725
tp1689
a(g1688
S'842'
p1690
F138.91582185729666
tp1691
a(g1690
S'1027'
p1692
F108.42347341772006
tp1693
a(g1692
S'887'
p1694
F49.52619899504184
tp1695
aF32.00419438260284
g1681
S'2012-03-02 18:47:51'
p1696
I7
F1600.209719130142
F1211.8621761814045
tp1697
a((lp1698
(S'1027'
p1699
g1699
F0.0
tp1700
aF22.064306841982063
g1696
S'2012-03-02 18:48:51'
p1701
I7
F367.7384473663677
F367.06102216280345
tp1702
a((lp1703
(g1699
g1694
F557.0674045398944
tp1704
a(g1694
S'1189'
p1705
F211.8840444636607
tp1706
a(g1705
S'987'
p1707
F541.0596802687863
tp1708
a(g1707
S'1073'
p1709
F213.32187912762836
tp1710
aF22.755181868215317
g1701
S'2012-03-02 18:52:52'
p1711
I12
F1523.3330083999697
F1521.491330446919
tp1712
a((lp1713
(S'987'
p1714
g1709
F371.99461857291504
tp1715
a(g1709
S'1185'
p1716
F401.933419412357
tp1717
a(g1716
S'777'
p1718
F232.78220771594508
tp1719
aF60.40261474207304
g1711
S'2012-03-02 18:53:52'
p1720
I20
F1006.7102457012172
F615.7425120057
tp1721
a((lp1722
(S'1185'
p1723
g1718
F232.78232429736136
tp1724
a(g1718
S'988'
p1725
F428.69502991180303
tp1726
a(g1725
S'1127'
p1727
F76.24863198841386
tp1728
aF44.263559171854695
g1720
S'2012-03-02 18:54:52'
p1729
I44
F737.7259861975782
F843.8526923159744
tp1730
a((lp1731
(S'988'
p1732
g1727
F76.2486321030234
tp1733
a(g1727
S'967'
p1734
F190.65766483400054
tp1735
a(g1734
S'900'
p1736
F217.51739317672622
tp1737
a(g1736
S'1101'
p1738
F1058.824251630271
tp1739
a(g1738
S'996'
p1740
F65.73828785715855
tp1741
aF48.269586888035384
g1729
S'2012-03-02 18:56:52'
p1742
I50
F1608.9862296011795
F1888.7747979858782
tp1743
a((lp1744
(S'1101'
p1745
g1740
F1222.703367611514
tp1746
a(g1740
S'1101'
p1747
F1288.4416554530242
tp1748
a(g1747
S'900'
p1749
F1058.824251630271
tp1750
a(g1749
S'809'
p1751
F674.794246559625
tp1752
a(g1751
S'1114'
p1753
F639.1126192225747
tp1754
a(g1753
S'993'
p1755
F865.1525280555261
tp1756
a(g1755
S'918'
p1757
F353.8824181427403
tp1758
a(g1757
S'1141'
p1759
F333.92501272121706
tp1760
a(g1759
S'821'
p1761
F272.9196924326181
tp1762
a(g1761
S'1141'
p1763
F136.4598663466409
tp1764
aF89.95027872055734
g1742
S'2012-03-02 19:01:26'
p1765
I55
F6846.215658175752
F1258.1940284724828
tp1766
a((lp1767
(S'821'
p1768
g1763
F136.45982608649493
tp1769
a(g1763
S'1164'
p1770
F158.79109795386518
tp1771
aF48.313787570240756
g1765
S'2012-03-02 19:01:48'
p1772
I0
F295.25092404036013
F54.296552613553
tp1773
a((lp1774
(S'1141'
p1775
g1770
F158.79105622633665
tp1776
a(g1770
S'1141'
p1777
F317.58215417110415
tp1778
a(g1777
g1761
F272.9196924326181
tp1779
a(g1761
g1763
F19.218259241593678
tp1780
aF72.80632061731447
g1772
S'2012-03-02 19:02:26'
p1781
I25
F768.5111620716526
F148.87145388186218
tp1782
a((lp1783
(g1768
g1763
F253.70143319115746
tp1784
a(g1763
g1761
F272.9196924326181
tp1785
a(g1761
S'960'
p1786
F300.73395278664674
tp1787
a(g1786
S'1133'
p1788
F223.2303459052822
tp1789
aF108.06021507247247
g1781
S'2012-03-02 19:03:01'
p1790
I0
F1050.5854243157046
F77.45334568690618
tp1791
a((lp1792
(S'960'
p1793
g1788
F90.67133471983405
tp1794
a(g1788
S'1177'
p1795
F544.2648983785294
tp1796
a(g1795
S'969'
p1797
F296.4643422365224
tp1798
aF27.942017260046576
g1790
S'2012-03-02 19:05:01'
p1799
I31
F931.4005753348858
F1151.147944760846
tp1800
a((lp1801
(S'1177'
p1802
g1797
F552.4067429156864
tp1803
a(g1797
S'1177'
p1804
F848.8710851126325
tp1805
a(g1804
S'1133'
p1806
F272.1325597882723
tp1807
aF113.66561124791941
g1799
S'2012-03-02 19:05:54'
p1808
I3
F1673.4103878165913
F31.312159047935967
tp1809
a((lp1810
(g1802
g1806
F272.1323385959024
tp1811
a(g1806
S'960'
p1812
F313.9016806177561
tp1813
a(g1812
S'821'
p1814
F150.3669868853373
tp1815
aF44.18406036593974
g1808
S'2012-03-02 19:06:54'
p1816
I33
F736.4010060989957
F717.0274865650894
tp1817
a((lp1818
(g1793
g1814
F150.36696590160864
tp1819
a(g1814
g1763
F272.9196924326181
tp1820
a(g1763
S'918'
p1821
F333.92501272121706
tp1822
a(g1821
S'993'
p1823
F353.8824181427403
tp1824
a(g1823
S'1114'
p1825
F865.1525280555261
tp1826
a(g1825
S'809'
p1827
F639.1126192225747
tp1828
a(g1827
S'900'
p1829
F674.794246559625
tp1830
a(g1829
g1738
F1058.824251630271
tp1831
a(g1738
g1740
F1288.4416554530242
tp1832
a(g1740
S'906'
p1833
F449.506110149901
tp1834
aF91.3038825040366
g1816
S'2012-03-02 19:10:54'
p1835
I51
F6086.925500269106
F1062.04497031775
tp1836
a((lp1837
(S'996'
p1838
g1833
F449.50481231354973
tp1839
a(g1833
S'1010'
p1840
F1626.56736988427
tp1841
a(g1840
S'1154'
p1842
F507.7471347885134
tp1843
a(g1842
g91
F633.0663908294133
tp1844
a(g91
g1736
F217.51739317672622
tp1845
a(g1736
g1751
F674.794246559625
tp1846
a(g1751
g1753
F639.1126192225747
tp1847
a(g1753
g1755
F865.1525280555261
tp1848
a(g1755
g1825
F114.6234302262675
tp1849
aF177.76818388106273
g1835
S'2012-03-02 19:12:50'
p1850
I59
F5728.085925056465
F817.6966703735776
tp1851
a((lp1852
(S'993'
p1853
g1825
F750.5290978415063
tp1854
a(g1825
g1827
F639.1126192225747
tp1855
a(g1827
g1829
F674.794246559625
tp1856
a(g1829
S'967'
p1857
F217.51739317672622
tp1858
a(g1857
g93
F190.65766483400054
tp1859
a(g93
g95
F152.49726409143645
tp1860
a(g95
S'777'
p1861
F75.34171926279161
tp1862
aF46.738557778649906
g1850
S'2012-03-02 19:16:18'
p1863
I50
F2700.450004988661
F2184.1526110365153
tp1864
a((lp1865
(g1732
g1861
F353.3533106490266
tp1866
a(g1861
g1725
F428.69502991180303
tp1867
a(g1725
g102
F84.85729485795852
tp1868
a(g102
S'796'
p1869
F58.86018516433739
tp1870
aF107.50828884191134
g1863
S'2012-03-02 19:16:49'
p1871
I0
F925.7658205831254
F14.755256190170146
tp1872
a((lp1873
(S'937'
p1874
g1869
F58.86023953587936
tp1875
a(g1869
S'1032'
p1876
F361.8967412680692
tp1877
a(g1876
S'1068'
p1878
F287.5482508719534
tp1879
a(g1878
S'834'
p1880
F128.40964248009593
tp1881
a(g1880
S'791'
p1882
F344.3991517532198
tp1883
a(g1882
S'1107'
p1884
F226.13434667854332
tp1885
a(g1884
S'1044'
p1886
F278.424131296127
tp1887
a(g1886
g513
F302.5121384580218
tp1888
a(g513
g496
F513.8652496215955
tp1889
a(g496
g520
F52.08499557452371
tp1890
aF16.59726641721463
g1871
S'2012-03-02 19:26:03'
p1891
I24
F2554.134887538029
F2430.488195505213
tp1892
a((lp1893
(g490
g520
F469.6481495051284
tp1894
a(g520
g70
F260.86620785541925
tp1895
aF36.02536556846536
g1891
S'2012-03-02 19:27:16'
p1896
I33
F730.5143573605476
F688.4319827192841
tp1897
a((lp1898
(g467
g70
F260.866937235092
tp1899
a(g70
g520
F521.73314507341
tp1900
a(g520
g462
F428.01156131254
tp1901
a(g462
S'1211'
p1902
F43.071464853778224
tp1903
aF300.8839460339568
g1896
S'2012-03-02 19:27:31'
p1904
I0
F1253.68310847482
F82.01883490277693
tp1905
a((lp1906
(S'1162'
p1907
g1902
F363.7835092019752
tp1908
a(g1902
S'1162'
p1909
F406.8549740484425
tp1910
a(g1909
S'994'
p1911
F214.00601497593834
tp1912
aF95.8032484760779
g1904
S'2012-03-02 19:28:08'
p1913
I48
F984.6444982263561
F319.25557046647526
tp1914
a((lp1915
(g1907
g1911
F214.00554635916873
tp1916
a(g1911
g522
F375.362399322151
tp1917
a(g522
g524
F350.26427291339104
tp1918
a(g524
S'1013'
p1919
F441.0365406997711
tp1920
a(g1919
S'1211'
p1921
F220.82454388044877
tp1922
aF71.17748014110802
g1913
S'2012-03-02 19:29:29'
p1923
I0
F1601.4933031749306
F127.28349468284037
tp1924
a((lp1925
(S'1013'
p1926
g1921
F134.2021234280352
tp1927
a(g1921
S'1013'
p1928
F355.0266673083767
tp1929
a(g1928
g64
F441.0365406997711
tp1930
a(g64
g526
F216.80608846292273
tp1931
aF68.82428519394634
g1923
S'2012-03-02 19:30:29'
p1932
I42
F1147.0714198991056
F416.6143221323833
tp1933
a((lp1934
(g531
g526
F216.80608187240722
tp1935
a(g526
S'1007'
p1936
F322.0478439414783
tp1937
a(g1936
S'1009'
p1938
F158.17035753691005
tp1939
aF41.82145700104774
g1932
S'2012-03-02 19:31:29'
p1940
I48
F697.0242833507956
F749.0331555683316
tp1941
a((lp1942
(g455
g1938
F523.1848561735898
tp1943
a(g1938
S'1122'
p1944
F403.0050862783067
tp1945
a(g1944
g544
F25.267037370469705
tp1946
aF39.370633647822046
g1940
S'2012-03-02 19:32:56'
p1947
I48
F951.4569798223662
F564.6842458450978
tp1948
a((lp1949
(g540
g544
F656.7972734693187
tp1950
a(g544
g1936
F322.0478439414783
tp1951
a(g1936
g1938
F681.3552137071262
tp1952
a(g1938
g233
F171.77317802179044
tp1953
aF329.7552316451485
g1947
S'2012-03-02 19:33:16'
p1954
I0
F1831.9735091397138
F50.90875775912168
tp1955
a((lp1956
(g426
g233
F171.77315194931623
tp1957
a(g233
g446
F343.5463299595581
tp1958
a(g446
g1944
F403.0050862783067
tp1959
a(g1944
g535
F175.5476525761816
tp1960
aF71.59890899542009
g1954
S'2012-03-02 19:34:11'
p1961
I33
F1093.8722207633625
F314.1478658828138
tp1962
a((lp1963
(g540
g535
F761.177777682381
tp1964
a(g535
g553
F436.4498289725836
tp1965
a(g553
S'1213'
p1966
F398.42229143270566
tp1967
a(g1966
S'1066'
p1968
F63.003045058211704
tp1969
aF39.817270635501174
g1961
S'2012-03-02 19:36:41'
p1970
I0
F1659.052943145882
F932.9456208462767
tp1971
a((lp1972
(S'1213'
p1973
g1968
F63.0029958985286
tp1974
a(g1968
g645
F134.29559832461862
tp1975
a(g645
g647
F135.9977572931447
tp1976
a(g647
g649
F197.56237677218394
tp1977
a(g649
g651
F141.0377369821515
tp1978
a(g651
g317
F70.51891718618961
tp1979
aF15.721737510850243
g1970
S'2012-03-02 19:39:31'
p1980
I0
F742.4153824568169
F911.5411525488863
tp1981
a((lp1982
(S'1207'
p1983
g317
F70.51881979679669
tp1984
a(g317
S'1020'
p1985
F137.50962711414766
tp1986
a(g1985
S'1145'
p1987
F138.3852165812993
tp1988
a(g1987
S'1028'
p1989
F210.6065185280842
tp1990
a(g1989
S'772'
p1991
F230.208379433524
tp1992
a(g1991
g676
F232.03849592151013
tp1993
a(g676
g683
F280.1051964205321
tp1994
a(g683
g685
F101.97916629582802
tp1995
aF42.75309417228982
g1980
S'2012-03-02 19:41:29'
p1996
I0
F1401.351420091722
F619.7995954522985
tp1997
a((lp1998
(g690
g685
F101.97913662171872
tp1999
a(g685
g692
F203.95830291726205
tp2000
a(g692
g1049
F280.1051964205321
tp2001
a(g1049
g683
F240.18161019234773
tp2002
aF123.93363692277909
g1996
S'2012-03-02 19:41:53'
p2003
I0
F826.2242461518606
F65.43999763864241
tp2004
a((lp2005
(S'819'
p2006
g683
F39.92358623122181
tp2007
a(g683
g694
F255.3750506846333
tp2008
a(g694
g290
F1042.7797147525323
tp2009
a(g290
S'1027'
p2010
F974.3320508593303
tp2011
a(g2010
S'842'
p2012
F108.42347341772006
tp2013
a(g2012
S'1115'
p2014
F254.80585084508155
tp2015
aF55.04173152254782
g2003
S'2012-03-02 19:44:48'
p2016
I33
F2675.639726790519
F1110.156658802429
tp2017
a((lp2018
(S'842'
p2019
g2014
F254.80707880381686
tp2020
a(g2014
S'842'
p2021
F509.6129296096181
tp2022
a(g2021
S'929'
p2023
F138.91582185729666
tp2024
a(g2023
S'414'
p2025
F303.12038890948725
tp2026
a(g2025
S'203'
p2027
F109.85555919872729
tp2028
aF39.489353351368386
g2016
S'2012-03-02 19:46:48'
p2029
I14
F1316.3117783789462
F960.2153159038155
tp2030
a((lp2031
(S'414'
p2032
g2027
F0.7036958342533617
tp2033
a(g2027
S'431'
p2034
F369.98613606887915
tp2035
a(g2034
S'392'
p2036
F457.83618440901
tp2037
a(g2036
g1645
F95.85961614434376
tp2038
a(g1645
g1656
F330.3168336032497
tp2039
a(g1656
g1658
F292.5489900400001
tp2040
aF92.83508736598417
g2029
S'2012-03-02 19:47:48'
p2041
I59
F1547.251456099736
F1035.5439398821977
tp2042
a((lp2043
(g943
g1658
F292.54861940819825
tp2044
a(g1658
g1660
F63.758701035611004
tp2045
a(g1660
g1662
F1079.6824743926077
tp2046
a(g1662
S'182'
p2047
F250.84028944705156
tp2048
aF50.604902528504056
g2041
S'2012-03-02 19:49:48'
p2049
I53
F1686.8300842834685
F1712.7179138699992
tp2050
a((lp2051
(g1669
g2047
F250.84023165653164
tp2052
a(g2047
S'413'
p2053
F501.6805211022033
tp2054
a(g2053
S'97'
p2055
F1079.6824743926077
tp2056
a(g2055
g934
F63.758701035611004
tp2057
a(g934
g936
F585.0976094380715
tp2058
a(g936
g969
F330.3168336032497
tp2059
a(g969
g975
F95.85961614434376
tp2060
a(g975
g737
F273.2210869364131
tp2061
aF24.41289012262796
g2049
S'2012-03-02 19:57:37'
p2062
I59
F3180.457074309031
F1846.9947310424734
tp2063
a.