(lp0
((lp1
(S'392'
p2
S'1'
p3
F537.506149808377
tp4
a(g3
S'392'
p5
F1075.0148639845097
tp6
a(g5
S'431'
p7
F457.83618440901
tp8
a(g7
S'203'
p9
F319.8546338054716
tp10
aF143.4127099204421
S'2012-03-02 12:45:52'
p11
S'2012-03-02 12:46:52'
p12
I20
F2390.2118320073682
F525.7640677548198
tp13
a((lp14
(S'431'
p15
g9
F50.131502269576295
tp16
a(g9
S'414'
p17
F110.55925503297553
tp18
a(g17
S'929'
p19
F303.12038890948725
tp20
a(g19
S'842'
p21
F138.91582185729666
tp22
a(g21
S'1027'
p23
F108.42347341772006
tp24
a(g23
S'887'
p25
F106.73342974190464
tp26
aF49.07303227373763
g12
S'2012-03-02 12:47:52'
p27
I25
F817.8838712289605
F809.0618191594424
tp28
a((lp29
(S'1027'
p30
g30
F0.0
tp31
aF14.189705229353411
g27
S'2012-03-02 12:48:38'
p32
I50
F181.31290015284915
F181.34059474953884
tp33
a((lp34
(g30
g25
F686.2857210001151
tp35
a(g25
S'820'
p36
F1042.7797147525323
tp37
a(g36
S'1233'
p38
F255.3750506846333
tp39
a(g38
S'886'
p40
F203.95830291726205
tp41
a(g40
S'1222'
p42
F498.13109666342655
tp43
a(g42
S'233'
p44
F314.42150737049457
tp45
a(g44
S'324'
p46
F522.2079091612247
tp47
a(g46
S'12'
p48
F348.33486400960794
tp49
a(g48
S'307'
p50
F37.55313756286951
tp51
aF48.029250153036855
g32
S'2012-03-02 12:53:31'
p52
I0
F3909.047304122166
F2207.6469232450613
tp53
a((lp54
(S'12'
p55
g50
F299.3200405315229
tp56
a(g50
S'101'
p57
F516.3741780275716
tp58
a(g57
S'231'
p59
F2128.2368240663845
tp60
a(g59
S'306'
p61
F795.5882439156834
tp62
a(g61
S'231'
p63
F397.79547294198665
tp64
aF91.37627689656036
g52
S'2012-03-02 12:56:14'
p65
I75
F4137.314759483149
F2012.0663425398595
tp66
a((lp67
(S'306'
p68
g63
F397.7927711221466
tp69
a(g63
S'37'
p70
F1230.1532257749107
tp71
a(g70
S'406'
p72
F709.895434390015
tp73
a(g72
S'37'
p74
F25.973433372756954
tp75
aF47.80749164480554
g65
S'2012-03-02 12:59:12'
p76
I79
F2363.8148646598293
F2843.096154610737
tp77
a((lp78
(S'406'
p79
g79
F0.0
tp80
aF0.0
g76
S'2012-03-02 13:00:38'
p81
I0
F0.0
F0.0
tp82
a((lp83
(g79
g79
F0.0
tp84
aF0.0
g81
S'2012-03-02 13:00:39'
p85
I0
F0.0
F0.0
tp86
a((lp87
(g79
g74
F683.9220010323644
tp88
a(g74
g72
F709.895434390015
tp89
a(g72
S'235'
p90
F1280.716757645314
tp91
a(g90
S'340'
p92
F551.715397690219
tp93
aF159.1027195442258
g85
S'2012-03-02 13:01:52'
p94
I0
F3226.2495907579123
F1174.6088593823035
tp95
a((lp96
(S'235'
p97
g92
F551.7098879346082
tp98
a(g92
S'398'
p99
F558.1150884934332
tp100
aF66.58949858568248
g94
S'2012-03-02 13:02:52'
p101
I55
F1109.8249764280413
F1143.5734324237374
tp102
a((lp103
(S'340'
p104
g99
F558.1102590589925
tp105
a(g99
S'158'
p106
F490.2764816755373
tp107
aF62.90320444407178
g101
S'2012-03-02 13:03:52'
p108
I77
F1048.3867407345297
F1161.870817560433
tp109
a((lp110
(S'398'
p111
g106
F490.27272423862246
tp112
a(g106
S'49'
p113
F165.58826547131738
tp114
aF39.351659382596395
g108
S'2012-03-02 13:04:52'
p115
I31
F655.8609897099399
F712.7393124807194
tp116
a((lp117
(S'158'
p118
g113
F420.3432950439612
tp119
a(g113
S'294'
p120
F1053.9451846404916
tp121
a(g120
S'350'
p122
F565.4087424404298
tp123
aF62.75991452691946
g115
S'2012-03-02 13:06:49'
p124
I46
F2039.6972221248825
F691.3008506608134
tp125
a((lp126
(S'294'
p127
g127
F0.0
tp128
aF0.0
g124
S'2012-03-02 13:07:49'
p129
I0
F0.0
F0.0
tp130
a((lp131
(g127
g127
F0.0
tp132
aF0.0
g129
S'2012-03-02 13:09:49'
p133
I0
F0.0
F0.0
tp134
a((lp135
(g127
g127
F0.0
tp136
aF0.0
g133
S'2012-03-02 13:10:18'
p137
I0
F0.0
F0.0
tp138
a((lp139
(g127
g122
F565.4134526020373
tp140
a(g122
S'294'
p141
F1130.8221946196147
tp142
a(g141
S'398'
p143
F290.98974240657583
tp144
aF198.7225389628228
g137
S'2012-03-02 13:10:54'
p145
I0
F1987.2253896282277
F122.98228548723452
tp146
a((lp147
(g127
g143
F290.9897363248604
tp148
a(g143
S'294'
p149
F581.9794787312672
tp150
a(g149
g122
F8.921412805785932
tp151
aF96.20625031220877
g145
S'2012-03-02 13:11:27'
p152
I0
F881.8906278619137
F64.5119889649497
tp153
a((lp154
(g127
g122
F1121.90078182697
tp155
a(g122
S'172'
p156
F534.4595814169045
tp157
aF51.404287135154725
g152
S'2012-03-02 13:13:23'
p158
I40
F1656.3603632438744
F1126.3325637635267
tp159
a((lp160
(S'350'
p161
g156
F534.4646889578049
tp162
a(g156
S'350'
p163
F61.598645239868326
tp164
aF35.76380005186039
g158
S'2012-03-02 13:14:23'
p165
I35
F596.0633341976733
F1015.6941851500636
tp166
a((lp167
(S'172'
p168
g163
F1007.3256248519169
tp169
a(g163
g156
F1068.9242700134396
tp170
a(g156
S'128'
p171
F673.8897918142452
tp172
a(g171
S'463'
p173
F289.7696490998742
tp174
aF93.53567187013773
g165
S'2012-03-02 13:16:20'
p175
I1
F3039.909335779476
F730.5046536177585
tp176
a((lp177
(S'128'
p178
g173
F289.7710284582303
tp179
a(g173
S'1303'
p180
F10.865510982092669
tp181
aF18.03819236641938
g175
S'2012-03-02 13:17:20'
p182
I12
F300.63653944032296
F580.7689610356707
tp183
a((lp184
(S'463'
p185
g185
F0.0
tp186
aF0.0
g182
S'2012-03-02 13:17:21'
p187
I0
F0.0
F0.0
tp188
a((lp189
(g185
g180
F905.8799259630438
tp190
a(g180
S'463'
p191
F916.7454369448138
tp192
a(g191
S'25'
p193
F16.904660056500948
tp194
aF236.5110029525604
g187
S'2012-03-02 13:17:49'
p195
I0
F1839.5300229643585
F61.664770218487966
tp196
a((lp197
(g185
g193
F681.4958452062654
tp198
a(g193
S'5'
p199
F17.837281490175855
tp200
aF38.145443274351344
g195
S'2012-03-02 13:18:55'
p201
I38
F699.3331266964412
F698.8675055636519
tp202
a((lp203
(S'25'
p204
g199
F1167.7885809822822
tp205
a(g199
S'26'
p206
F129.67805455175846
tp207
aF74.14095060194516
g201
S'2012-03-02 13:19:58'
p208
I33
F1297.4666355340405
F738.2012382120224
tp209
a((lp210
(g199
g206
F129.67853443572113
tp211
a(g206
g199
F259.35658898200876
tp212
a(g199
S'25'
p213
F102.52747324284813
tp214
aF30.51078186169105
g208
S'2012-03-02 13:20:56'
p215
I44
F491.56259666057804
F340.2583814781931
tp216
a((lp217
(g199
g213
F1083.0983893538842
tp218
a(g213
g199
F1185.6258624438292
tp219
a(g199
S'231'
p220
F373.65454097386885
tp221
a(g220
S'101'
p222
F2128.2368240663845
tp223
a(g222
S'307'
p224
F516.3741780275716
tp225
a(g224
S'12'
p226
F336.87317808984017
tp227
a(g226
S'324'
p228
F348.33486400960794
tp229
a(g228
S'233'
p230
F522.2079091612247
tp231
a(g230
S'1158'
p232
F505.9919712639641
tp233
a(g232
S'371'
p234
F343.4160234801613
tp235
a(g234
S'323'
p236
F502.52151206068487
tp237
a(g236
S'195'
p238
F899.3736486026992
tp239
a(g238
S'160'
p240
F1654.504702992569
tp241
a(g240
S'348'
p242
F749.9190888032648
tp243
a(g242
S'40'
p244
F401.59962843252373
tp245
a(g244
S'400'
p246
F175.03635260490466
tp247
a(g246
S'359'
p248
F368.9484986175782
tp249
a(g248
S'461'
p250
F575.8753506220564
tp251
a(g250
S'76'
p252
F209.84399480520491
tp253
a(g252
S'39'
p254
F384.48890299753157
tp255
a(g254
S'120'
p256
F307.45722819200313
tp257
a(g256
S'89'
p258
F116.73438435055078
tp259
aF335.26817226004664
g215
S'2012-03-02 13:23:23'
p260
I0
F13690.117033951905
F1482.5797324935813
tp261
a((lp262
(S'120'
p263
g258
F116.73392841740345
tp264
a(g258
S'311'
p265
F403.9643242216588
tp266
a(g265
S'171'
p267
F197.878605692179
tp268
a(g267
S'34'
p269
F180.75157604473165
tp270
aF15.948681594844842
g260
S'2012-03-02 13:26:46'
p271
I64
F899.328434375973
F382.10286292479253
tp272
a((lp273
(S'171'
p274
g269
F180.75063383732103
tp275
a(g269
S'171'
p276
F361.50220986718784
tp277
a(g276
S'79'
p278
F258.8430387665728
tp279
a(g278
S'171'
p280
F26.6115804401316
tp281
aF70.94635396381828
g271
S'2012-03-02 13:27:28'
p282
I0
F827.7074629112133
F65.92752331929607
tp283
a((lp284
(S'79'
p285
g280
F232.2314583276617
tp286
a(g280
g269
F361.50220986718784
tp287
a(g269
S'91'
p288
F362.9857541263605
tp289
a(g288
S'356'
p290
F373.21024831220325
tp291
a(g290
S'162'
p292
F781.0709827778445
tp293
a(g292
S'205'
p294
F154.37951709209202
tp295
a(g294
S'436'
p296
F620.423409350397
tp297
aF41.2257654264821
g282
S'2012-03-02 13:31:40'
p298
I27
F2885.8035798537467
F1461.7030218751208
tp299
a((lp300
(S'205'
p301
g296
F620.4144968294399
tp302
a(g296
S'123'
p303
F374.6187732028866
tp304
a(g303
S'257'
p305
F372.01760288122136
tp306
aF41.01152618740643
g298
S'2012-03-02 13:33:40'
p307
I51
F1367.050872913548
F1898.9571915959705
tp308
a((lp309
(S'123'
p310
g305
F124.09718200568116
tp311
a(g305
S'318'
p312
F60.20368934456126
tp313
aF33.17415684304364
g307
S'2012-03-02 13:34:00'
p314
I57
F184.30087135024243
F93.53999223827579
tp315
a((lp316
(S'257'
p317
g312
F60.20362329768061
tp318
a(g312
S'257'
p319
F120.4073126418999
tp320
a(g319
S'197'
p321
F723.3936380880388
tp322
a(g321
S'257'
p323
F37.82508008551077
tp324
aF53.81883737789314
g314
S'2012-03-02 13:35:03'
p325
I0
F941.82965411313
F716.492749882441
tp326
a((lp327
(S'197'
p328
g323
F685.5685580266431
tp329
a(g323
g321
F723.3936380880388
tp330
a(g321
S'192'
p331
F355.644672162357
tp332
a(g331
S'404'
p333
F1958.8057646923883
tp334
a(g333
S'63'
p335
F674.0824370101584
tp336
aF86.03794702133972
g325
S'2012-03-02 13:38:07'
p337
I0
F4397.495069979585
F2067.0803639126693
tp338
a((lp339
(S'404'
p340
g335
F674.094741598965
tp341
a(g335
S'334'
p342
F178.2721027153018
tp343
a(g342
S'417'
p344
F174.76247190390242
tp345
aF30.813879486545076
g337
S'2012-03-02 13:40:07'
p346
I46
F1027.1293162181692
F1510.96071739174
tp347
a((lp348
(S'334'
p349
g344
F174.76252787476503
tp350
a(g344
S'50'
p351
F238.32169032146035
tp352
aF22.878510546252482
g346
S'2012-03-02 13:41:12'
p353
I61
F413.0842181962254
F210.56272107458017
tp354
a((lp355
(S'417'
p356
g351
F759.9201882504142
tp357
a(g351
S'102'
p358
F588.549644893829
tp359
aF80.9081899886546
g353
S'2012-03-02 13:42:12'
p360
I42
F1348.4698331442432
F696.2465944086174
tp361
a((lp362
(S'50'
p363
g358
F588.5453956595128
tp364
a(g358
S'50'
p365
F1177.0950400791444
tp366
a(g365
S'296'
p367
F449.5389707434266
tp368
aF664.5538219446252
g360
S'2012-03-02 13:42:24'
p369
I7
F2215.179406482084
F4.774718360181791
tp370
a((lp371
(g363
g363
F0.0
tp372
aF0.0
g369
S'2012-03-02 13:43:24'
p373
I0
F0.0
F0.0
tp374
a((lp375
(g363
g367
F449.5404064271564
tp376
a(g367
S'358'
p377
F271.20428853774837
tp378
a(g377
S'146'
p379
F569.3222432001658
tp380
a(g379
S'151'
p381
F821.2557690646038
tp382
a(g381
S'269'
p383
F1881.5720827321088
tp384
a(g383
S'1289'
p385
F551.5358329944986
tp386
aF7.716957661623875
g373
S'2012-03-02 14:18:44'
p387
I0
F4544.430622956282
F4103.0102962729725
tp388
a((lp389
(S'269'
p390
g385
F551.53845730894
tp391
a(g385
S'269'
p392
F1103.0742901715685
tp393
a(g392
S'428'
p394
F877.6751615116247
tp395
a(g394
S'1236'
p396
F1389.6055465674801
tp397
a(g396
S'1267'
p398
F465.5891016569359
tp399
a(g398
S'1243'
p400
F285.58268750573745
tp401
a(g400
S'1312'
p402
F457.99147004036877
tp403
a(g402
S'1352'
p404
F146.7703490165185
tp405
aF72.79761467281618
g387
S'2012-03-02 14:23:05'
p406
I74
F5277.827063779174
F2712.0844335086817
tp407
a((lp408
(S'1312'
p409
g404
F146.76989905658027
tp410
a(g404
S'1312'
p411
F293.5402480655337
tp412
a(g411
S'1243'
p413
F457.99147004036877
tp414
a(g413
S'1267'
p415
F285.58268750573745
tp416
a(g415
S'1236'
p417
F465.5891016569359
tp418
a(g417
S'1287'
p419
F500.94138389154773
tp420
a(g419
S'1392'
p421
F468.7311467128138
tp422
a(g421
S'1296'
p423
F438.770309446354
tp424
a(g423
S'1392'
p425
F80.72366837210996
tp426
aF112.99103693092736
g406
S'2012-03-02 14:24:45'
p427
I0
F3138.639914747982
F949.1607229944774
tp428
a((lp429
(S'1296'
p430
g425
F358.0466410761226
tp431
a(g425
g423
F12.321841852586276
tp432
aF37.036848292870886
g427
S'2012-03-02 14:25:21'
p433
I57
F370.3684829287089
F345.37429209537714
tp434
a((lp435
(S'1392'
p436
g423
F426.44846759416384
tp437
a(g423
g425
F438.770309446354
tp438
a(g425
S'1254'
p439
F32.93119626334019
tp440
aF153.96856685208996
g433
S'2012-03-02 14:25:42'
p441
I0
F898.149973303858
F56.644325530649475
tp442
a((lp443
(g436
g439
F582.1274361790045
tp444
a(g439
S'1387'
p445
F110.33782217998294
tp446
aF41.547915501539244
g441
S'2012-03-02 14:26:42'
p447
I38
F692.4652583589874
F827.6998073019536
tp448
a((lp449
(S'1254'
p450
g445
F110.33788895505575
tp451
a(g445
S'1375'
p452
F505.13359300430295
tp453
a(g452
S'1272'
p454
F218.26520770382325
tp455
a(g454
S'1368'
p456
F147.3421200313114
tp457
a(g456
S'1357'
p458
F13.328677943988676
tp459
aF25.03403465383591
g447
S'2012-03-02 14:29:05'
p460
I55
F994.4074876384819
F497.38771207925976
tp461
a((lp462
(S'1368'
p463
g463
F0.0
tp464
aF0.0
g460
S'2012-03-02 14:30:05'
p465
I0
F0.0
F0.0
tp466
a((lp467
(g463
g463
F0.0
tp468
aF0.0
g465
S'2012-03-02 14:34:05'
p469
I0
F0.0
F0.0
tp470
a((lp471
(g463
g463
F0.0
tp472
aF0.0
g469
S'2012-03-02 14:38:05'
p473
I0
F0.0
F0.0
tp474
a((lp475
(g463
g463
F0.0
tp476
aF0.0
g473
S'2012-03-02 14:39:02'
p477
I0
F0.0
F0.0
tp478
a((lp479
(g463
g463
F0.0
tp480
aF0.0
g477
S'2012-03-02 14:39:05'
p481
I0
F0.0
F0.0
tp482
a((lp483
(g463
g458
F653.7984434687702
tp484
a(g458
S'1368'
p485
F667.1271214060235
tp486
a(g485
S'1272'
p487
F147.3421200313114
tp488
a(g487
S'1375'
p489
F109.13259929967963
tp490
aF50.7021519923288
g481
S'2012-03-02 14:40:57'
p491
I0
F1577.4002842057848
F54.038821321470934
tp492
a((lp493
(S'1272'
p494
g489
F109.13260840423804
tp495
a(g489
S'1322'
p496
F251.1499504038258
tp497
a(g496
S'1244'
p498
F267.73326804549595
tp499
a(g498
S'1340'
p500
F434.2460432841478
tp501
a(g500
S'1320'
p502
F115.50308099243091
tp503
aF39.62573667353737
g491
S'2012-03-02 14:42:44'
p504
I29
F1177.7649511301383
F667.3227461973746
tp505
a((lp506
(S'1340'
p507
g507
F0.0
tp508
aF0.0
g504
S'2012-03-02 14:45:52'
p509
I0
F0.0
F0.0
tp510
a((lp511
(g507
g507
F0.0
tp512
aF0.0
g509
S'2012-03-02 14:46:52'
p513
I0
F0.0
F0.0
tp514
a((lp515
(g507
g507
F0.0
tp516
aF0.0
g513
S'2012-03-02 14:49:52'
p517
I0
F0.0
F0.0
tp518
a((lp519
(g507
g507
F0.0
tp520
aF0.0
g517
S'2012-03-02 14:51:52'
p521
I0
F0.0
F0.0
tp522
a((lp523
(g507
g507
F0.0
tp524
aF12.43459136460501
g521
S'2012-03-02 14:52:11'
p525
I0
F65.62700997985978
F65.61903339598862
tp526
a((lp527
(g507
g502
F183.20515893157045
tp528
a(g502
S'1359'
p529
F1026.9145089181752
tp530
a(g529
S'1276'
p531
F349.5677960977179
tp532
a(g531
S'1323'
p533
F465.79683676082647
tp534
aF121.52905804249741
g525
S'2012-03-02 14:53:11'
p535
I37
F2025.48430070829
F812.2448363407749
tp536
a((lp537
(S'1276'
p538
g533
F465.7977495901969
tp539
a(g533
S'1276'
p540
F931.5945861203788
tp541
a(g540
S'1275'
p542
F8.56984348486053
tp543
aF84.35773075172617
g535
S'2012-03-02 14:54:11'
p544
I72
F1405.9621791954362
F781.6711102869525
tp545
a((lp546
(g538
g542
F797.0930291331221
tp547
a(g542
S'1321'
p548
F887.5300557829405
tp549
a(g548
S'1323'
p550
F729.4014589530278
tp551
a(g550
S'1342'
p552
F1214.1386040288944
tp553
a(g552
S'1285'
p554
F589.1455717449389
tp555
a(g554
S'1252'
p556
F309.4833923636865
tp557
aF82.30531112739293
g544
S'2012-03-02 14:57:29'
p558
I29
F4526.79211200661
F1834.276305946406
tp559
a((lp560
(S'1285'
p561
g556
F309.48343880233705
tp562
a(g556
S'1297'
p563
F1125.1436614787262
tp564
a(g563
S'1280'
p565
F165.1169630243286
tp566
aF44.64402037131327
g558
S'2012-03-02 14:59:38'
p567
I0
F1599.744063305392
F1204.144261088138
tp568
a((lp569
(S'1297'
p570
g565
F165.11696291112148
tp571
a(g565
S'1297'
p572
F330.23392593544827
tp573
a(g572
S'1353'
p574
F907.6544528091619
tp575
a(g574
S'1286'
p576
F16.633821726164957
tp577
aF35.004801288868684
g567
S'2012-03-02 15:02:04'
p578
I0
F1419.6391633818967
F977.2211917687674
tp579
a((lp580
(S'1353'
p581
g576
F1445.2521905283236
tp582
a(g576
S'1292'
p583
F873.144134384409
tp584
a(g583
S'873'
p585
F101.57396101147256
tp586
aF72.59910857772616
g578
S'2012-03-02 15:04:04'
p587
I46
F2419.970285924205
F2419.3232636792673
tp588
a((lp589
(S'1292'
p590
g590
F0.0
tp591
aF0.0
g587
S'2012-03-02 15:05:04'
p592
I0
F0.0
F0.0
tp593
a((lp594
(g590
g585
F5479.4498978060765
tp595
a(g585
S'936'
p596
F117.95681148015007
tp597
a(g596
S'838'
p598
F690.8846058389883
tp599
a(g598
S'1082'
p600
F138.78451297831458
tp601
aF96.40613742155294
g592
S'2012-03-02 15:09:04'
p602
I0
F6427.07582810353
F6408.244424240488
tp603
a((lp604
(S'838'
p605
g600
F288.7192768915805
tp606
a(g600
S'1127'
p607
F6.8306029289612695
tp608
a(g607
S'988'
p609
F152.49726409143645
tp610
a(g609
S'937'
p611
F84.85729485795852
tp612
a(g611
S'901'
p613
F654.3387647481585
tp614
a(g613
S'1232'
p615
F381.17959418835153
tp616
aF29.40792745699588
g602
S'2012-03-02 15:12:16'
p617
I57
F1568.4227977064468
F1493.3394688929384
tp618
a((lp619
(S'901'
p620
g620
F0.0
tp621
aF18.271194210963326
g617
S'2012-03-02 15:12:28'
p622
I0
F60.90398070321108
F61.02092564289602
tp623
a((lp624
(g620
g615
F58.33304495654284
tp625
a(g615
S'1031'
p626
F536.64824962327
tp627
a(g626
S'1232'
p628
F38.884559913426216
tp629
aF39.34339786509759
g622
S'2012-03-02 15:13:26'
p630
I31
F633.865854493239
F513.5044216922148
tp631
a((lp632
(S'1031'
p633
g628
F497.763689721936
tp634
a(g628
g626
F536.64824962327
tp635
a(g626
S'824'
p636
F232.11631470971224
tp637
aF25.190617207722134
g630
S'2012-03-02 15:16:27'
p638
I0
F1266.5282540549183
F460.1243201411254
tp639
a((lp640
(g633
g636
F232.11675073755046
tp641
a(g636
S'1031'
p642
F464.2330654185904
tp643
a(g642
g628
F536.64824962327
tp644
a(g628
S'1151'
p645
F572.8013873462398
tp646
a(g645
S'1036'
p647
F175.42386792479263
tp648
aF45.72053817808715
g638
S'2012-03-02 15:19:03'
p649
I0
F1981.2233210504432
F770.1164807909777
tp650
a((lp651
(S'1151'
p652
g647
F323.8803213750194
tp653
a(g647
S'989'
p654
F405.5992643980948
tp655
aF22.068289989774886
g649
S'2012-03-02 15:21:02'
p656
I31
F729.4795857731142
F729.5943065306029
tp657
a((lp658
(S'1036'
p659
g654
F381.1867496823562
tp660
a(g654
S'887'
p661
F119.83775739169549
tp662
aF30.0614704244431
g656
S'2012-03-02 15:22:02'
p663
I20
F501.0245070740517
F462.25512716767304
tp664
a((lp665
(S'989'
p666
g661
F571.0785810192331
tp667
a(g661
S'989'
p668
F690.9163383539549
tp669
a(g668
S'1230'
p670
F198.31332307168913
tp671
aF131.42774182003896
g663
S'2012-03-02 15:22:42'
p672
I18
F1460.3082424448771
F109.15474362430544
tp673
a((lp674
(g666
g670
F198.31410161121252
tp675
a(g670
S'989'
p676
F396.62742466432553
tp677
a(g676
S'1036'
p678
F393.39264051199774
tp679
aF177.90015002175647
g672
S'2012-03-02 15:23:02'
p680
I0
F988.3341667875359
F49.48572841077628
tp681
a((lp682
(g666
g678
F393.39337356847
tp683
a(g678
S'987'
p684
F258.49486746199665
tp685
aF19.556647230914
g680
S'2012-03-02 15:25:02'
p686
I31
F651.8882410304666
F908.755676136111
tp687
a((lp688
(g659
g684
F441.6946241301349
tp689
a(g684
S'1229'
p690
F59.02676101662175
tp691
aF19.80875809371785
g686
S'2012-03-02 15:26:33'
p692
I44
F500.7213851467567
F499.3108496982057
tp693
a((lp694
(S'987'
p695
g690
F769.5789794267329
tp696
a(g690
S'987'
p697
F828.6057404004235
tp698
a(g697
S'1189'
p699
F173.73086177953917
tp700
aF53.15746744820086
g692
S'2012-03-02 15:28:33'
p701
I38
F1771.9155816066955
F189.017468447532
tp702
a((lp703
(g695
g699
F367.3288184973752
tp704
a(g699
S'987'
p705
F541.0596802687863
tp706
a(g705
S'1036'
p707
F700.189491494048
tp708
a(g707
S'1151'
p709
F499.30418929770127
tp710
a(g709
S'1232'
p711
F572.8013873462398
tp712
a(g711
S'901'
p713
F207.47185648560938
tp714
aF6.244660374896779
g701
S'2012-03-02 15:56:18'
p715
I51
F2888.15542338976
F1700.5265168318826
tp716
a((lp717
(S'1232'
p718
g713
F292.944763363249
tp719
a(g713
S'1157'
p720
F164.71879650241303
tp721
aF13.845284164003221
g715
S'2012-03-02 15:58:17'
p722
I27
F457.663559865662
F348.38015672601654
tp723
a((lp724
(g620
g720
F164.71978913128245
tp725
a(g720
S'901'
p726
F329.43858562166434
tp727
a(g726
S'937'
p728
F654.3387647481585
tp729
a(g728
S'796'
p730
F17.298291314968466
tp731
aF107.61188592148373
g722
S'2012-03-02 15:58:56'
p732
I18
F1165.7954308160738
F463.6765534132899
tp733
a((lp734
(S'937'
p735
g730
F100.42213338486229
tp736
a(g730
S'937'
p737
F117.72042469973982
tp738
a(g737
S'988'
p739
F42.42864828415052
tp740
aF9.670683947706284
g732
S'2012-03-02 16:00:33'
p741
I0
F260.57120636875266
F70.57816255251348
tp742
a((lp743
(g735
g739
F42.42864657398181
tp744
a(g739
S'796'
p745
F18.73009511928202
tp746
aF4.077249446217588
g741
S'2012-03-02 16:01:27'
p747
I16
F61.15874169326383
F423.61062031403696
tp748
a((lp749
(S'988'
p750
g745
F18.730107971690703
tp751
a(g745
S'988'
p752
F37.46020309095503
tp753
a(g752
S'777'
p754
F428.69502991180303
tp755
a(g754
S'903'
p756
F350.9006773558848
tp757
a(g756
S'1158'
p758
F109.56732098219621
tp759
aF89.5597900401344
g747
S'2012-03-02 16:02:05'
p760
I0
F945.3533393125298
F65.49341417870113
tp761
a((lp762
(S'903'
p763
g758
F3376.449441791344
tp764
a(g758
S'903'
p765
F3486.0167626901602
tp766
a(g765
S'777'
p767
F350.9006773558848
tp768
a(g767
S'1185'
p769
F435.90731916920095
tp770
aF382.4637100503295
g760
S'2012-03-02 16:03:17'
p771
I35
F7649.27420100659
F386.2420302778183
tp772
a((lp773
(S'777'
p774
g769
F29.65721284214251
tp775
a(g769
S'1073'
p776
F401.933419412357
tp777
a(g776
S'987'
p778
F585.3164976896943
tp779
a(g778
g699
F17.782100370231124
tp780
aF22.85203208056399
g771
S'2012-03-02 16:06:00'
p781
I40
F1034.689230314425
F1040.1057948388384
tp782
a((lp783
(g695
g699
F523.2775798996984
tp784
a(g699
S'887'
p785
F105.94205205410044
tp786
aF37.75317791722793
g781
S'2012-03-02 16:07:00'
p787
I35
F629.2196319537989
F751.042326321958
tp788
a((lp789
(S'1189'
p790
g785
F105.9419924101466
tp791
a(g785
S'1027'
p792
F116.54519615445327
tp793
aF17.412040844186077
g787
S'2012-03-02 16:07:46'
p794
I31
F222.48718856459988
F97.6991483508596
tp795
a((lp796
(S'887'
p797
g792
F857.7868547223584
tp798
a(g792
S'842'
p799
F54.21176934563721
tp800
aF69.85521375839966
g794
S'2012-03-02 16:08:33'
p801
I33
F911.9986240679956
F480.7155845268163
tp802
a((lp803
(g30
g799
F54.21170407237851
tp804
a(g799
S'1115'
p805
F509.6129296096181
tp806
a(g805
S'842'
p807
F254.80707880381686
tp808
aF16.19271519202708
g801
S'2012-03-02 16:11:35'
p809
I0
F818.6317124858135
F733.0287202439459
tp810
a((lp811
(S'1115'
p812
g807
F254.80585084508155
tp813
a(g807
g23
F108.42347341772006
tp814
a(g23
g25
F974.3320508593303
tp815
a(g25
S'1189'
p816
F211.8840444636607
tp817
a(g816
g705
F541.0596802687863
tp818
a(g705
S'1073'
p819
F585.3164976896943
tp820
a(g819
S'1185'
p821
F401.933419412357
tp822
a(g821
S'777'
p823
F465.5645320107461
tp824
a(g823
S'988'
p825
F428.69502991180303
tp826
a(g825
S'1127'
p827
F152.49726409143645
tp828
a(g827
S'967'
p829
F190.65766483400054
tp830
a(g829
S'900'
p831
F217.51739317672622
tp832
a(g831
S'809'
p833
F674.794246559625
tp834
a(g833
S'900'
p835
F169.84880187747174
tp836
aF2.077526059015495
g809
S'2012-03-02 18:46:53'
p837
I42
F5377.329949418439
F4100.463046686372
tp838
a((lp839
(S'809'
p840
g835
F504.9454447556083
tp841
a(g835
S'967'
p842
F217.51739317672622
tp843
a(g842
S'1154'
p844
F633.0663908294133
tp845
a(g844
S'873'
p846
F112.70309109050305
tp847
aF88.09393919113505
g837
S'2012-03-02 18:47:53'
p848
I57
F1468.2323198522508
F1114.4351837901313
tp849
a((lp850
(S'1154'
p851
g846
F546.9611069963502
tp852
a(g846
S'817'
p853
F214.99477288859876
tp854
a(g853
S'909'
p855
F286.06989179438705
tp856
a(g855
S'1139'
p857
F192.3180838338234
tp858
aF74.42063133078958
g848
S'2012-03-02 18:48:53'
p859
I62
F1240.3438555131595
F554.5965448968531
tp860
a((lp861
(S'909'
p862
g857
F192.31810921858602
tp863
a(g857
S'909'
p864
F384.6361930519455
tp865
a(g864
S'817'
p866
F286.06989179438705
tp867
a(g866
S'873'
p868
F214.99477288859876
tp869
a(g868
g596
F117.95681148015007
tp870
a(g596
S'791'
p871
F263.909236928096
tp872
a(g871
S'852'
p873
F252.5830223782035
tp874
a(g873
S'833'
p875
F363.99526731937345
tp876
a(g875
S'1128'
p877
F152.1318868399602
tp878
aF28.859506082149217
g859
S'2012-03-02 18:53:31'
p879
I53
F2228.5951918993005
F1132.4035327049041
tp880
a((lp881
(S'833'
p882
g877
F152.13159950076542
tp883
a(g877
S'833'
p884
F304.26348633257396
tp885
a(g884
S'974'
p886
F480.1669052301094
tp887
a(g886
S'1062'
p888
F183.41867360754313
tp889
a(g888
S'1061'
p890
F221.44961548283868
tp891
aF24.267080444993923
g879
S'2012-03-02 18:56:50'
p892
I53
F1341.4302801538306
F558.477192182847
tp893
a((lp894
(S'1062'
p895
g890
F221.44968267532803
tp896
a(g890
S'1062'
p897
F442.8992981334369
tp898
a(g897
S'1150'
p899
F194.7563084101235
tp900
a(g899
S'1016'
p901
F437.2154444869053
tp902
aF77.77924402234763
g892
S'2012-03-02 18:57:50'
p903
I40
F1296.3207337057938
F644.8515635570295
tp904
a((lp905
(S'1150'
p906
g901
F39.357447529485334
tp907
a(g901
S'895'
p908
F364.23495779569595
tp909
a(g908
S'774'
p910
F268.4210662990969
tp911
a(g910
S'986'
p912
F15.93581102544473
tp913
aF32.16386256544159
g903
S'2012-03-02 18:59:07'
p914
I66
F687.9492826497229
F635.2950384947615
tp915
a((lp916
(S'774'
p917
g912
F447.3795001826304
tp918
a(g912
S'774'
p919
F463.31531120431856
tp920
a(g919
S'970'
p921
F377.3364418971982
tp922
a(g921
S'820'
p923
F247.7378419176489
tp924
a(g923
g38
F255.3750506846333
tp925
a(g38
g40
F203.95830291726205
tp926
a(g40
g42
F180.540437132455
tp927
aF56.755901372247294
g914
S'2012-03-02 19:01:25'
p928
I0
F2175.6428859361463
F1279.3626951435335
tp929
a((lp930
(S'886'
p931
g42
F317.5906595340502
tp932
a(g42
g44
F157.21078570864503
tp933
aF32.87086928603275
g928
S'2012-03-02 19:02:17'
p934
I0
F474.8014452426952
F198.2987804666843
tp935
a((lp936
(S'1222'
p937
g44
F157.21072166279825
tp938
a(g44
g46
F522.2079091612247
tp939
a(g46
g48
F348.33486400960794
tp940
a(g48
g50
F168.43690802019574
tp941
aF71.7714241712296
g934
S'2012-03-02 19:03:17'
p942
I33
F1196.1904028538265
F755.6908734512158
tp943
a((lp944
(g55
g50
F168.43627008119236
tp945
a(g50
g57
F516.3741780275716
tp946
a(g57
g59
F1064.127747221737
tp947
aF104.93629171983007
g942
S'2012-03-02 19:04:17'
p948
I66
F1748.938195330501
F894.0240693817417
tp949
a((lp950
(S'101'
p951
g59
F1064.1090796797437
tp952
a(g59
g222
F2128.2368240663845
tp953
a(g222
g224
F516.3741780275716
tp954
a(g224
S'121'
p955
F355.28771301773605
tp956
a(g955
S'1104'
p957
F174.4757442789197
tp958
aF1089.89576718952
g948
S'2012-03-02 19:04:31'
p959
I24
F4238.483539070356
F14.298523309650694
tp960
a((lp961
(S'121'
p962
g957
F174.47632112283912
tp963
a(g957
S'12'
p964
F340.35709427387536
tp965
a(g964
g50
F336.87317808984017
tp966
a(g50
g57
F516.3741780275716
tp967
a(g57
g59
F2128.2368240663845
tp968
a(g59
g70
F615.0803976398846
tp969
aF70.81833863920299
g959
S'2012-03-02 19:08:00'
p970
I0
F4111.397993220396
F2151.0979138592556
tp971
a((lp972
(S'231'
p973
g70
F615.0728286907475
tp974
a(g70
S'231'
p975
F1230.1532257749107
tp976
a(g975
g199
F373.65454097386885
tp977
a(g199
g206
F22.80037396634678
tp978
aF504.37821811632165
g970
S'2012-03-02 19:08:16'
p979
I25
F2241.680969405874
F27.50606294864753
tp980
a((lp981
(g199
g206
F236.55621501726026
tp982
a(g206
g199
F259.35658898200876
tp983
a(g199
g220
F373.65454097386885
tp984
a(g220
g70
F43.639221427928824
tp985
aF78.27484854866286
g979
S'2012-03-02 19:08:58'
p986
I0
F913.2065664010667
F78.15236091882286
tp987
a((lp988
(g973
g70
F1186.5140044230363
tp989
a(g70
S'25'
p990
F477.9989002471008
tp991
a(g990
S'463'
p992
F698.4005052534098
tp993
a(g992
g180
F916.7454369448138
tp994
a(g180
S'451'
p995
F22.38022791103403
tp996
aF47.171986782562776
g986
S'2012-03-02 19:13:10'
p997
I46
F3302.0390747793945
F2446.930002999639
tp998
a((lp999
(S'1303'
p1000
g995
F536.3498494510686
tp1001
a(g995
S'1402'
p1002
F391.4745659135401
tp1003
a(g1002
S'1264'
p1004
F228.23448105151797
tp1005
a(g1004
S'1344'
p1006
F368.4326560017038
tp1007
a(g1006
S'1240'
p1008
F281.08875341763786
tp1009
a(g1008
S'1377'
p1010
F450.20487229242497
tp1011
a(g1010
S'1328'
p1012
F328.35338240576175
tp1013
a(g1012
S'1300'
p1014
F128.23521970451935
tp1015
aF67.34169385418915
g997
S'2012-03-02 19:15:35'
p1016
I0
F2712.3737802381743
F1461.9207738507346
tp1017
a((lp1018
(S'1328'
p1019
g1014
F895.1769683825117
tp1020
a(g1014
S'1378'
p1021
F195.5525912949026
tp1022
a(g1021
S'1373'
p1023
F624.039937192576
tp1024
aF102.88616981219941
g1016
S'2012-03-02 19:16:35'
p1025
I51
F1714.7694968699902
F725.5938964243876
tp1026
a((lp1027
(S'1378'
p1028
g1023
F624.0399593767115
tp1029
a(g1023
S'1378'
p1030
F1248.079896567967
tp1031
a(g1030
S'1300'
p1032
F97.77629567204323
tp1033
aF322.3466429918272
g1025
S'2012-03-02 19:16:57'
p1034
I50
F1969.8961516167217
F120.1173104039136
tp1035
a((lp1036
(g1028
g1032
F97.77629562285988
tp1037
a(g1032
g1021
F195.5525912949026
tp1038
a(g1021
g1023
F1248.079896567967
tp1039
a(g1023
S'1292'
p1040
F384.22281782747393
tp1041
aF43.057601023152365
g1034
S'2012-03-02 19:19:38'
p1042
I0
F1925.6316013132032
F1261.6136406447451
tp1043
a((lp1044
(S'1373'
p1045
g1040
F384.22282759274657
tp1046
a(g1040
S'1286'
p1047
F873.144134384409
tp1048
a(g1047
S'1367'
p1049
F722.8074771960407
tp1050
a(g1049
S'1347'
p1051
F114.07094449168864
tp1052
aF62.827361509946556
g1042
S'2012-03-02 19:21:38'
p1053
I51
F2094.245383664885
F1034.303562582254
tp1054
a((lp1055
(S'1367'
p1056
g1051
F574.6808913608648
tp1057
a(g1051
S'1354'
p1058
F263.90845312637975
tp1059
a(g1058
S'1347'
p1060
F9.027782935933
tp1061
aF50.85702764539066
g1053
S'2012-03-02 19:22:38'
p1062
I40
F847.6171274231776
F291.481063422634
tp1063
a((lp1064
(S'1354'
p1065
g1060
F254.8806701911625
tp1066
a(g1060
S'1394'
p1067
F257.0060428400835
tp1068
aF34.125780868749736
g1062
S'2012-03-02 19:23:32'
p1069
I31
F511.886713031246
F246.82385222066398
tp1070
a((lp1071
(S'1347'
p1072
g1067
F257.00597265301525
tp1073
a(g1067
S'1347'
p1074
F514.0120154544768
tp1075
a(g1074
g1058
F263.90845312637975
tp1076
a(g1058
S'1294'
p1077
F247.93670054049184
tp1078
aF104.96152978153884
g1069
S'2012-03-02 19:24:16'
p1079
I0
F1282.8631417743636
F27.050662383967797
tp1080
a((lp1081
(g1065
g1077
F247.93657684377476
tp1082
a(g1077
S'1354'
p1083
F495.8732773813718
tp1084
a(g1083
g1060
F263.90845312637975
tp1085
a(g1060
g1067
F272.421104548067
tp1086
aF76.80836471397559
g1079
S'2012-03-02 19:25:16'
p1087
I27
F1280.1394118995931
F547.9586717736516
tp1088
a((lp1089
(g1072
g1067
F241.59091094488792
tp1090
a(g1067
g1074
F514.0120154544768
tp1091
a(g1074
g1058
F131.95451459140395
tp1092
aF84.08438914649388
g1087
S'2012-03-02 19:25:54'
p1093
I12
F887.5574409907687
F214.5475219623688
tp1094
a((lp1095
(g1072
g1058
F131.95393854093794
tp1096
a(g1058
g1060
F263.90845312637975
tp1097
a(g1060
g1067
F514.0120154544768
tp1098
a(g1067
S'1360'
p1099
F152.9873464367894
tp1100
a(g1099
S'1291'
p1101
F242.12341002881828
tp1102
a(g1101
S'1245'
p1103
F258.2952799614472
tp1104
aF70.34761995969824
g1093
S'2012-03-02 19:27:14'
p1105
I0
F1563.2804435488495
F679.9448205015087
tp1106
a((lp1107
(S'1291'
p1108
g1103
F519.6835353191673
tp1109
a(g1103
S'1280'
p1110
F291.41203018864644
tp1111
a(g1110
g572
F330.23392593544827
tp1112
a(g572
S'1351'
p1113
F163.32333970999719
tp1114
aF78.27916986919556
g1105
S'2012-03-02 19:28:14'
p1115
I55
F1304.6528311532593
F594.3812402411684
tp1116
a((lp1117
(g570
g1113
F163.32338583542776
tp1118
a(g1113
S'1297'
p1119
F326.64672554471304
tp1120
a(g1119
g565
F330.23392593544827
tp1121
a(g565
S'1245'
p1122
F291.41203018864644
tp1123
a(g1122
S'1365'
p1124
F140.2950331480198
tp1125
aF75.11466603913532
g1115
S'2012-03-02 19:29:14'
p1126
I29
F1251.9111006522553
F105.29838171151938
tp1127
a((lp1128
(S'1245'
p1129
g1124
F140.2950331381758
tp1130
a(g1124
S'1245'
p1131
F280.5900662861954
tp1132
a(g1131
S'1291'
p1133
F777.978815161816
tp1134
a(g1133
S'1360'
p1135
F242.12341002881828
tp1136
a(g1135
S'1394'
p1137
F152.9873464367894
tp1138
a(g1137
g1074
F514.0120154544768
tp1139
a(g1074
S'1367'
p1140
F688.7518358012903
tp1141
a(g1140
S'1234'
p1142
F213.48016964232446
tp1143
aF59.21741689081745
g1126
S'2012-03-02 19:32:17'
p1144
I40
F3010.2186919498868
F1962.7017632080788
tp1145
a((lp1146
(g1056
g1142
F213.48021277664893
tp1147
a(g1142
S'1367'
p1148
F426.9603823968392
tp1149
a(g1148
g1051
F688.7518358012903
tp1150
a(g1051
g1067
F514.0120154544768
tp1151
a(g1067
g1099
F76.49367283350698
tp1152
aF115.18188715576572
g1144
S'2012-03-02 19:33:17'
p1153
I33
F1919.698119262762
F405.6796477163766
tp1154
a((lp1155
(S'1394'
p1156
g1156
F0.0
tp1157
aF0.0
g1153
S'2012-03-02 19:34:17'
p1158
I46
F0.0
F598.0209910324
tp1159
a((lp1160
(g1156
g1099
F76.49367360430062
tp1161
a(g1099
g1101
F242.12341002881828
tp1162
a(g1101
g1103
F777.978815161816
tp1163
a(g1103
S'1348'
p1164
F780.823649611878
tp1165
a(g1164
S'1285'
p1166
F148.23761299524173
tp1167
aF60.76971484206164
g1158
S'2012-03-02 19:36:17'
p1168
I51
F2025.6571614020545
F1429.18107330459
tp1169
a((lp1170
(S'1348'
p1171
g1171
F0.0
tp1172
aF0.0
g1168
S'2012-03-02 19:36:32'
p1173
I61
F0.0
F243.26772238045157
tp1174
a((lp1175
(g1171
g1166
F148.23762203362713
tp1176
a(g1166
S'1342'
p1177
F589.1455717449389
tp1178
a(g1177
S'1323'
p1179
F1214.1386040288944
tp1180
a(g1179
S'1321'
p1181
F729.4014589530278
tp1182
a(g1181
S'1275'
p1183
F887.5300557829405
tp1184
a(g1183
S'1276'
p1185
F24.303066579716678
tp1186
aF40.80101881654046
g1173
S'2012-03-02 19:41:49'
p1187
I51
F3592.756379123146
F2988.0659041488434
tp1188
a((lp1189
(S'1275'
p1190
g1185
F781.3598060383993
tp1191
a(g1185
g542
F805.6628726179206
tp1192
a(g542
S'1260'
p1193
F40.72402997986859
tp1194
aF325.54934172723773
g1187
S'2012-03-02 19:42:07'
p1195
I0
F1627.7467086361885
F63.50905089248103
tp1196
a((lp1197
(g1190
g1193
F693.6687034315057
tp1198
a(g1193
S'1293'
p1199
F512.0559085617177
tp1200
aF72.3434767195934
g1195
S'2012-03-02 19:43:07'
p1201
I35
F1205.7246119932233
F699.5750157382051
tp1202
a((lp1203
(S'1260'
p1204
g1199
F512.0538229524329
tp1205
a(g1199
S'1262'
p1206
F393.58983723682456
tp1207
aF17.719115090659386
g1201
S'2012-03-02 19:46:11'
p1208
I48
F905.6436601892575
F1366.2595812335417
tp1209
a((lp1210
(S'1293'
p1211
g1211
F0.0
tp1212
aF0.0
g1208
S'2012-03-02 19:47:11'
p1213
I0
F0.0
F0.0
tp1214
a((lp1215
(g1211
g1211
F0.0
tp1216
aF0.0
g1213
S'2012-03-02 19:47:52'
p1217
I0
F0.0
F0.0
tp1218
a((lp1219
(g1211
g1211
F0.0
tp1220
aF0.0
g1217
S'2012-03-02 19:48:11'
p1221
I0
F0.0
F0.0
tp1222
a((lp1223
(g1211
g1211
F0.0
tp1224
aF0.0
g1221
S'2012-03-02 19:48:20'
p1225
I0
F0.0
F0.0
tp1226
a((lp1227
(g1211
g1211
F0.0
tp1228
aF0.0
g1225
S'2012-03-02 19:48:24'
p1229
I0
F0.0
F0.0
tp1230
a((lp1231
(g1211
g1206
F393.5885515997225
tp1232
a(g1206
S'1293'
p1233
F787.1783886964448
tp1234
a(g1233
S'347'
p1235
F395.247086877697
tp1236
aF183.02098380083586
g1229
S'2012-03-02 19:48:55'
p1237
I0
F1576.0140271738644
F27.187159564579623
tp1238
a((lp1239
(g1211
g1235
F395.24703711019026
tp1240
a(g1235
S'243'
p1241
F867.6743928870746
tp1242
a(g1241
S'1358'
p1243
F820.1452521497176
tp1244
a(g1243
S'1374'
p1245
F405.2773461218431
tp1246
a(g1245
S'1337'
p1247
F97.24620005480884
tp1248
aF83.85698037806382
g1237
S'2012-03-02 19:50:46'
p1249
I27
F2585.5902283236346
F1032.7088871813112
tp1250
a((lp1251
(S'1374'
p1252
g1247
F97.24606171996811
tp1253
a(g1247
S'1327'
p1254
F390.641304498113
tp1255
a(g1254
S'1358'
p1256
F197.1367679524997
tp1257
a(g1256
S'243'
p1258
F820.1452521497176
tp1259
a(g1258
S'8'
p1260
F248.80342239140634
tp1261
aF105.23836852270232
g1249
S'2012-03-02 19:51:46'
p1262
I18
F1753.972808711705
F798.4194089245442
tp1263
a((lp1264
(S'243'
p1265
g1260
F248.80307483467053
tp1266
a(g1260
S'243'
p1267
F13.10136249292073
tp1268
aF20.06076541232614
g1262
S'2012-03-02 19:52:33'
p1269
I29
F261.90443732759127
F487.6082484766738
tp1270
a.