(lp0
((lp1
(S'988'
p2
S'777'
p3
F214.3475143337428
tp4
a(g3
S'1185'
p5
F465.5645320107461
tp6
a(g5
S'1061'
p7
F373.27393365369306
tp8
a(g7
S'1062'
p9
F442.8992981334369
tp10
a(g9
S'1150'
p11
F194.7563084101235
tp12
a(g11
S'1016'
p13
F238.2864461633493
tp14
aF50.32507911404587
S'2012-03-02 11:19:05'
p15
S'2012-03-02 11:21:23'
p16
I64
F1929.1280327050918
F1316.1814079102885
tp17
a((lp18
(S'1150'
p19
g19
F0.0
tp20
aF0.0
g16
S'2012-03-02 11:22:19'
p21
I0
F0.0
F60.66507278392186
tp22
a((lp23
(g19
g13
F238.28644585304824
tp24
a(g13
S'920'
p25
F448.76378212167555
tp26
a(g25
S'867'
p27
F15.782961001251268
tp28
aF42.1699913385585
g21
S'2012-03-02 11:23:19'
p29
I35
F702.8331889759751
F787.9333288448072
tp30
a((lp31
(S'920'
p32
g27
F393.0591505929781
tp33
a(g27
S'1191'
p34
F360.6074231124015
tp35
a(g34
S'973'
p36
F412.40913364934164
tp37
a(g36
S'895'
p38
F444.35669521011835
tp39
a(g38
S'1229'
p40
F249.3697768587104
tp41
a(g40
S'987'
p42
F828.6057404004235
tp43
a(g42
S'1189'
p44
F541.0596802687863
tp45
a(g44
S'887'
p46
F211.8840444636607
tp47
a(g46
S'1027'
p48
F974.3320508593303
tp49
a(g48
S'842'
p50
F108.42347341772006
tp51
a(g50
S'929'
p52
F138.91582185729666
tp53
a(g52
S'414'
p54
F303.12038890948725
tp55
a(g54
S'203'
p56
F110.55925503297553
tp57
a(g56
S'431'
p58
F369.98613606887915
tp59
a(g58
S'140'
p60
F167.38210388707625
tp61
aF25.648039528580036
g29
S'2012-03-02 11:36:27'
p62
I85
F5614.070874589185
F3709.121874402991
tp63
a((lp64
(S'431'
p65
g65
F0.0
tp66
aF22.119426898925333
g62
S'2012-03-02 11:36:42'
p67
I0
F92.16427874552221
F91.2785749726945
tp68
a((lp69
(g65
g60
F259.5468007290547
tp70
a(g60
S'431'
p71
F334.7646258643055
tp72
a(g71
S'203'
p73
F369.98613606887915
tp74
a(g73
S'414'
p75
F110.55925503297553
tp76
a(g75
S'929'
p77
F303.12038890948725
tp78
a(g77
S'842'
p79
F138.91582185729666
tp80
a(g79
S'1027'
p81
F108.42347341772006
tp82
a(g81
S'887'
p83
F974.3320508593303
tp84
a(g83
S'1189'
p85
F211.8840444636607
tp86
a(g85
S'987'
p87
F541.0596802687863
tp88
a(g87
S'1073'
p89
F585.3164976896943
tp90
a(g89
S'1185'
p91
F401.933419412357
tp92
a(g91
S'777'
p93
F465.5645320107461
tp94
a(g93
S'988'
p95
F428.69502991180303
tp96
a(g95
S'1127'
p97
F152.49726409143645
tp98
a(g97
S'967'
p99
F190.65766483400054
tp100
a(g99
S'900'
p101
F217.51739317672622
tp102
a(g101
S'1101'
p103
F1058.824251630271
tp104
a(g103
S'996'
p105
F1288.4416554530242
tp106
a(g105
S'1101'
p107
F420.70042535194483
tp108
aF1.9120373080089694
g67
S'2012-03-02 16:05:24'
p109
I33
F8562.740411033501
F6961.6863532006155
tp110
a((lp111
(S'996'
p112
g107
F867.7412301719102
tp113
a(g107
S'900'
p114
F1058.824251630271
tp115
a(g114
S'967'
p116
F217.51739317672622
tp117
a(g116
S'1127'
p118
F190.65766483400054
tp119
a(g118
S'988'
p120
F152.49726409143645
tp121
a(g120
g97
F76.24863198841386
tp122
aF35.90875941328377
g109
S'2012-03-02 16:09:41'
p123
I38
F2563.486435892758
F2553.890753730784
tp124
a((lp125
(g2
g97
F76.2486321030234
tp126
a(g97
g120
F152.49726409143645
tp127
a(g120
S'937'
p128
F84.85729485795852
tp129
a(g128
S'901'
p130
F654.3387647481585
tp131
a(g130
S'1157'
p132
F329.43858562166434
tp133
a(g132
S'809'
p134
F222.29314436962713
tp135
aF82.89129195228372
g123
S'2012-03-02 16:10:47'
p136
I0
F1519.6736857918681
F167.06391061528166
tp137
a((lp138
(S'1157'
p139
g134
F532.7073261223629
tp140
a(g134
S'900'
p141
F674.794246559625
tp142
a(g141
g116
F217.51739317672622
tp143
a(g116
g118
F190.65766483400054
tp144
a(g118
g120
F152.49726409143645
tp145
a(g120
g128
F84.85729485795852
tp146
a(g128
S'988'
p147
F42.42864828415052
tp148
aF174.96552350088555
g136
S'2012-03-02 16:11:26'
p149
I0
F1895.4598379262602
F41.850312682970475
tp150
a((lp151
(S'937'
p152
g147
F42.42864657398181
tp153
a(g147
g3
F214.34751557808576
tp154
aF4.381015088850442
g149
S'2012-03-02 16:14:57'
p155
I22
F256.77616215206757
F524.3133574940116
tp156
a((lp157
(g2
g3
F214.3475143337428
tp158
a(g3
g95
F428.69502991180303
tp159
a(g95
S'796'
p160
F37.46020309095503
tp161
a(g160
S'988'
p162
F37.209960479492786
tp163
aF7.040233646151437
g155
S'2012-03-02 16:21:04'
p164
I0
F717.7127078159937
F290.4196663729737
tp165
a((lp166
(S'796'
p167
g162
F0.25024261186800995
tp168
a(g162
g128
F84.85729485795852
tp169
a(g128
g130
F654.3387647481585
tp170
a(g130
g132
F329.43858562166434
tp171
a(g132
S'1075'
p172
F42.87757714138974
tp173
a(g172
S'1159'
p174
F326.6148380020008
tp175
aF86.3026381789824
g164
S'2012-03-02 16:22:04'
p176
I7
F1438.3773029830402
F692.6092130891857
tp177
a((lp178
(S'1075'
p179
g174
F326.6147058422016
tp180
a(g174
S'1075'
p181
F653.229543764915
tp182
a(g181
S'1157'
p183
F21.438786953608957
tp184
aF360.4618931618612
g176
S'2012-03-02 16:22:14'
p185
I7
F1001.2830365607256
F1.3017447812841911
tp186
a((lp187
(g179
g183
F21.438790187803328
tp188
a(g183
S'901'
p189
F329.43858562166434
tp190
a(g189
S'1232'
p191
F500.4166198457959
tp192
a(g191
S'1151'
p193
F286.4008585376268
tp194
aF273.0467650062937
g185
S'2012-03-02 16:22:29'
p195
I0
F1137.6948541928903
F53.40700753877874
tp196
a((lp197
(S'1232'
p198
g193
F286.4005288174328
tp199
a(g193
S'1232'
p200
F572.8013873462398
tp201
a(g200
S'1031'
p202
F536.64824962327
tp203
a(g202
S'824'
p204
F232.11631470971224
tp205
aF97.67798882979929
g195
S'2012-03-02 16:23:29'
p206
I24
F1627.9664804966549
F482.04372193707957
tp207
a((lp208
(S'1031'
p209
g204
F232.11675073755046
tp210
a(g204
S'1031'
p211
F464.2330654185904
tp212
a(g211
S'1232'
p213
F536.64824962327
tp214
a(g213
g193
F572.8013873462398
tp215
a(g193
S'1036'
p216
F499.30418929770127
tp217
a(g216
S'987'
p218
F700.189491494048
tp219
a(g218
g44
F541.0596802687863
tp220
a(g44
g46
F211.8840444636607
tp221
a(g46
S'820'
p222
F1042.7797147525323
tp223
a(g222
S'1233'
p224
F90.54769854642115
tp225
aF14.785584701104689
g206
S'2012-03-02 16:43:20'
p226
I40
F4891.5642719488005
F2705.8170518984166
tp227
a((lp228
(S'820'
p229
g224
F164.82735213821704
tp230
a(g224
S'819'
p231
F280.1051964205321
tp232
a(g231
S'790'
p233
F145.5823712882947
tp234
a(g233
S'860'
p235
F108.13434072706384
tp236
a(g235
S'1030'
p237
F115.27419551153403
tp238
aF42.465571621859574
g226
S'2012-03-02 16:44:29'
p239
I37
F813.9234560856418
F298.89973531757937
tp240
a((lp241
(S'860'
p242
g237
F115.27397627173178
tp243
a(g237
S'1215'
p244
F229.64658602255514
tp245
a(g244
S'799'
p246
F216.60117519723585
tp247
a(g246
S'1207'
p248
F101.1060544565955
tp249
a(g248
S'806'
p250
F141.0377369821515
tp251
a(g250
S'1020'
p252
F68.75482386085511
tp253
aF32.37848732008299
g239
S'2012-03-02 16:46:06'
p254
I20
F872.420352791125
F674.0053622790131
tp255
a((lp256
(S'806'
p257
g252
F68.75480325342474
tp258
a(g252
S'806'
p259
F137.50962711414766
tp260
a(g259
S'959'
p261
F197.56237677218394
tp262
a(g261
S'1213'
p263
F79.63684457582836
tp264
aF16.419520246944384
g254
S'2012-03-02 16:47:52'
p265
I0
F483.46365171558466
F347.34025880806183
tp266
a((lp267
(S'959'
p268
g263
F79.63669663332959
tp269
a(g263
S'1066'
p270
F126.00604095646439
tp271
a(g270
S'923'
p272
F407.53435205726896
tp273
a(g272
S'888'
p274
F47.44106446189077
tp275
aF10.163356217060828
g265
S'2012-03-02 16:51:46'
p276
I0
F660.6181541089537
F898.4963211966619
tp277
a((lp278
(S'923'
p279
g274
F270.6144845510477
tp280
a(g274
S'923'
p281
F318.05554901056104
tp282
a(g281
S'1066'
p283
F203.7664193135748
tp284
aF55.936690791189434
g276
S'2012-03-02 16:52:37'
p285
I0
F792.4364528751836
F22.64913043716279
tp286
a((lp287
(g279
g279
F0.0
tp288
aF0.0
g285
S'2012-03-02 16:53:37'
p289
I5
F0.0
F290.78943267049806
tp290
a((lp291
(g279
g283
F203.76793276645955
tp292
a(g283
g272
F10.572301616854572
tp293
aF5.285101669725553
g289
S'2012-03-02 16:56:03'
p294
I18
F214.3402343833141
F625.0437622153192
tp295
a((lp296
(S'1066'
p297
g272
F396.96205044260574
tp298
a(g272
g283
F407.53435205726896
tp299
a(g283
S'1170'
p300
F134.29559832461862
tp301
a(g300
S'1020'
p302
F201.74042609344684
tp303
a(g302
S'1145'
p304
F138.3852165812993
tp305
a(g304
S'1104'
p306
F725.1024325879025
tp307
a(g306
S'1209'
p308
F170.00539867792003
tp309
aF62.11501356471606
g294
S'2012-03-02 16:58:09'
p310
I0
F2174.025474765062
F492.5767585613526
tp311
a((lp312
(S'1104'
p313
g313
F0.0
tp314
aF3.720194057496203
g310
S'2012-03-02 16:58:49'
p315
I11
F41.33548952773559
F212.58357786758683
tp316
a((lp317
(g313
g308
F128.67045645572526
tp318
a(g308
S'324'
p319
F329.50645089237776
tp320
a(g319
S'233'
p321
F261.1032256207329
tp322
aF43.15680797813015
g315
S'2012-03-02 16:59:49'
p323
I0
F719.2801329688359
F4.087856725357062
tp324
a((lp325
(S'324'
p326
g321
F261.1046835832608
tp327
a(g321
S'1222'
p328
F314.42150737049457
tp329
a(g328
S'1209'
p330
F529.8005662370716
tp331
a(g330
S'1104'
p332
F340.0113446486208
tp333
a(g332
S'1145'
p334
F7.351270539945261
tp335
aF261.4840870282908
g323
S'2012-03-02 17:00:09'
p336
I0
F1452.6893723793933
F27.982912198554256
tp337
a((lp338
(g313
g334
F717.7511620484852
tp339
a(g334
g306
F725.1024325879025
tp340
a(g306
g308
F223.22617895028992
tp341
aF4.916300971239377
g336
S'2012-03-02 17:20:29'
p342
I16
F1666.0797735866777
F32.16867690593117
tp343
a((lp344
(g313
g313
F0.0
tp345
aF0.01198466263956707
g342
S'2012-03-02 17:27:55'
p346
I0
F1.4847665381241424
F2.0933332936698132
tp347
a((lp348
(g313
g308
F115.30039917078994
tp349
a(g308
g332
F129.98695099793267
tp350
aF3.9072321265814223
g346
S'2012-03-02 17:31:41'
p351
I0
F245.2873501687226
F30.523982280205747
tp352
a((lp353
(S'1209'
p354
g332
F210.0243936617445
tp355
a(g332
S'121'
p356
F174.47632112283912
tp357
aF23.07004288707502
g351
S'2012-03-02 17:32:41'
p358
I14
F384.50071478458364
F186.11419792715301
tp359
a((lp360
(g313
g356
F174.4757442789197
tp361
a(g356
S'1104'
p362
F348.95206538914294
tp363
a(g362
g334
F725.1024325879025
tp364
a(g334
S'1028'
p365
F210.6065185280842
tp366
a(g365
S'772'
p367
F177.24056826734693
tp368
aF56.10436556747645
g358
S'2012-03-02 17:34:26'
p369
I9
F1636.3773290513964
F312.07685958035154
tp370
a((lp371
(S'1028'
p372
g367
F52.96781116885746
tp373
a(g367
S'1028'
p374
F230.208379433524
tp375
a(g374
S'1145'
p376
F210.6065185280842
tp377
a(g376
g306
F725.1024325879025
tp378
a(g306
g308
F340.0113446486208
tp379
a(g308
S'1222'
p380
F61.202384034585904
tp381
aF224.32138205560267
g369
S'2012-03-02 17:34:52'
p382
I0
F1620.0988704015747
F44.30189736325736
tp383
a((lp384
(g354
g380
F468.59818222065695
tp385
a(g380
g330
F264.90095175928997
tp386
aF15.624833623241473
g382
S'2012-03-02 17:37:41'
p387
I27
F733.4991339799469
F815.113462273326
tp388
a((lp389
(S'1222'
p390
g330
F264.89961452195024
tp391
a(g330
g380
F529.8005662370716
tp392
a(g380
S'886'
p393
F253.43628535498925
tp394
aF23.583070487565248
g387
S'2012-03-02 17:40:21'
p395
I27
F1048.136466114011
F53.778621433639245
tp396
a((lp397
(g390
g393
F244.69481131176767
tp398
a(g393
S'1233'
p399
F203.95830291726205
tp400
a(g399
S'820'
p401
F255.3750506846333
tp402
a(g401
S'887'
p403
F1042.7797147525323
tp404
a(g403
g48
F974.3320508593303
tp405
a(g48
g83
F313.80323584038706
tp406
aF45.906703356795326
g395
S'2012-03-02 17:44:19'
p407
I0
F3034.943166365913
F708.668621939144
tp408
a((lp409
(S'1027'
p410
g83
F660.5288150551502
tp411
a(g83
g48
F974.3320508593303
tp412
a(g48
g50
F108.42347341772006
tp413
a(g50
g52
F138.91582185729666
tp414
a(g52
g54
F150.13840889802265
tp415
aF60.970157102625585
g407
S'2012-03-02 17:46:19'
p416
I0
F2032.3385700875197
F703.3529312091352
tp417
a((lp418
(S'929'
p419
g54
F152.98198001401005
tp420
a(g54
g56
F110.55925503297553
tp421
a(g56
g75
F58.66356198321195
tp422
aF19.33228782181185
g416
S'2012-03-02 17:47:19'
p423
I38
F322.2047970301975
F219.97958971969086
tp424
a((lp425
(S'203'
p426
g75
F51.89569304989252
tp427
a(g75
g56
F110.55925503297553
tp428
a(g56
S'393'
p429
F83.62622378931731
tp430
aF5.94558536067025
g423
S'2012-03-02 17:49:48'
p431
I11
F246.08117187218534
F108.06569849012674
tp432
a((lp433
(g426
g429
F43.21528782675112
tp434
a(g429
S'203'
p435
F63.42078105971044
tp436
aF3.0711187839300935
g431
S'2012-03-02 17:51:53'
p437
I5
F106.63606888646157
F324.49515782445616
tp438
a((lp439
(S'393'
p440
g435
F63.420730556472776
tp441
a(g435
g429
F126.8415116158981
tp442
a(g429
S'263'
p443
F445.7984204400668
tp444
a(g443
S'1115'
p445
F472.4206568274532
tp446
a(g445
S'842'
p447
F248.49707342196072
tp448
aF44.81763499360244
g437
S'2012-03-02 17:53:42'
p449
I0
F1356.9783928618515
F56.10073541638206
tp450
a((lp451
(S'1115'
p452
g447
F261.1158562267931
tp453
a(g447
g52
F138.91582185729666
tp454
a(g52
g54
F151.56028654025312
tp455
aF19.660703689580536
g449
S'2012-03-02 17:55:23'
p456
I35
F551.5919646243428
F173.65104709288136
tp457
a((lp458
(g419
g54
F151.56010237178626
tp459
a(g54
g77
F36.79561277116538
tp460
aF11.301342908577098
g456
S'2012-03-02 17:56:23'
p461
I22
F188.35571514295162
F86.33659025627824
tp462
a((lp463
(S'414'
p464
g77
F266.3247761394043
tp465
a(g77
g79
F138.91582185729666
tp466
a(g79
g81
F54.21170407237851
tp467
aF127.23294518836049
g461
S'2012-03-02 17:56:36'
p468
I0
F459.4523020690795
F8.17280468148893
tp469
a((lp470
(S'842'
p471
g81
F54.21176934563721
tp472
a(g81
g83
F487.1655712218048
tp473
aF12.655574195083059
g468
S'2012-03-02 17:59:10'
p474
I0
F541.3773405674419
F195.9213865846888
tp475
a((lp476
(g410
g83
F487.166479678937
tp477
a(g83
g48
F974.3320508593303
tp478
a(g48
g50
F54.21176934563721
tp479
aF181.88523598606855
g474
S'2012-03-02 17:59:40'
p480
I1
F1515.7102998839046
F26.995529032699356
tp481
a((lp482
(g410
g50
F54.21170407237851
tp483
a(g50
S'1115'
p484
F424.3995678470365
tp485
aF9.959540918554302
g480
S'2012-03-02 18:02:33'
p486
I0
F478.611271919415
F470.63344546847253
tp487
a.