(lp0
((lp1
(S'1325'
p2
S'1371'
p3
F304.17094095948363
tp4
a(g3
S'1250'
p5
F429.9676858938447
tp6
a(g5
S'1286'
p7
F204.88150175530103
tp8
a(g7
S'1367'
p9
F722.8074771960407
tp10
a(g9
S'1234'
p11
F426.9603823968392
tp12
a(g11
S'1373'
p13
F449.5842240737909
tp14
aF17.81313833175649
S'2012-03-02 08:49:56'
p15
S'2012-03-02 08:58:29'
p16
I5
F2538.3722122752997
F794.1118128333576
tp17
a((lp18
(S'1234'
p19
g13
F10.057420985506209
tp20
a(g13
S'1234'
p21
F49.58679552324504
tp22
aF5.803221065716337
g16
S'2012-03-02 08:59:06'
p23
I0
F59.64421650875124
F48.6757437198901
tp24
a((lp25
(S'1373'
p26
g21
F410.0548495443216
tp27
a(g21
g13
F404.89863460783505
tp28
aF48.8972090491294
g23
S'2012-03-02 09:00:06'
p29
I27
F814.9534841521566
F15.204725004545255
tp30
a((lp31
(g19
g13
F54.743010460690506
tp32
a(g13
S'1292'
p33
F384.22281782747393
tp34
aF12.541880808233271
g29
S'2012-03-02 09:02:12'
p35
I5
F438.96582828816446
F99.19857756967401
tp36
a((lp37
(g26
g33
F384.22282759274657
tp38
a(g33
S'873'
p39
F5581.023855259741
tp40
a(g39
S'936'
p41
F117.95681148015007
tp42
a(g41
S'838'
p43
F690.8846058389883
tp44
a(g43
S'1082'
p45
F427.5037898483401
tp46
a(g45
S'796'
p47
F68.64253555349875
tp48
aF62.31629507634398
g35
S'2012-03-02 09:09:12'
p49
I25
F7270.234425573464
F6675.850149607534
tp50
a((lp51
(S'1082'
p52
g47
F68.64252291770168
tp53
a(g47
S'937'
p54
F117.72042469973982
tp55
a(g54
S'1061'
p56
F930.5990375079346
tp57
a(g56
S'1062'
p58
F442.8992981334369
tp59
a(g58
S'1150'
p60
F194.7563084101235
tp61
a(g60
S'1016'
p62
F476.5728920163904
tp63
a(g62
S'895'
p64
F364.23495779569595
tp65
a(g64
S'774'
p66
F268.4210662990969
tp67
a(g66
S'970'
p68
F377.3364418971982
tp69
a(g68
S'820'
p70
F247.7378419176489
tp71
a(g70
S'1233'
p72
F255.3750506846333
tp73
a(g72
S'886'
p74
F203.95830291726205
tp75
a(g74
S'1222'
p76
F498.13109666342655
tp77
a(g76
S'233'
p78
F314.42150737049457
tp79
a(g78
S'324'
p80
F522.2079091612247
tp81
a(g80
S'12'
p82
F348.33486400960794
tp83
a(g82
S'307'
p84
F336.87317808984017
tp85
a(g84
S'101'
p86
F516.3741780275716
tp87
a(g86
S'923'
p88
F85.21241711225095
tp89
aF13.561532949697595
g49
S'2012-03-02 09:38:16'
p90
I27
F6569.809295631279
F5177.050575091953
tp91
a((lp92
(S'101'
p93
g88
F845.1481229717003
tp94
a(g88
S'1066'
p95
F407.53435205726896
tp96
a(g95
S'1170'
p97
F134.29559832461862
tp98
a(g97
S'915'
p99
F418.6803844186766
tp100
a(g99
S'121'
p101
F317.2464914021481
tp102
a(g101
S'1104'
p103
F25.737241188392243
tp104
aF46.04233265063153
g90
S'2012-03-02 09:41:04'
p105
I37
F2148.6421903628047
F788.6349375079485
tp106
a((lp107
(S'121'
p108
g103
F323.21482420411394
tp109
a(g103
S'1209'
p110
F340.0113446486208
tp111
a(g110
S'1222'
p112
F264.89961452195024
tp113
aF32.43934776843559
g105
S'2012-03-02 09:42:47'
p114
I20
F928.1257833746849
F322.70409551834194
tp115
a((lp116
(S'1209'
p117
g112
F264.90095175928997
tp118
a(g112
S'886'
p119
F498.13109666342655
tp120
a(g119
S'1233'
p121
F203.95830291726205
tp122
a(g121
S'819'
p123
F280.1051964205321
tp124
a(g123
S'772'
p125
F232.03849592151013
tp126
a(g125
S'819'
p127
F31.410096838648634
tp128
aF82.39331675567286
g114
S'2012-03-02 09:43:53'
p129
I29
F1510.544140520669
F442.97680534176027
tp130
a((lp131
(S'772'
p132
g127
F200.62839908465506
tp133
a(g127
S'1233'
p134
F220.2441243457989
tp135
aF18.939263554370427
g129
S'2012-03-02 09:45:13'
p136
I29
F420.87252343045395
F413.7600500378535
tp137
a((lp138
(S'819'
p139
g134
F59.8610720789448
tp140
a(g134
S'820'
p141
F255.3750506846333
tp142
a(g141
S'970'
p143
F247.7378419176489
tp144
a(g143
S'774'
p145
F377.3364418971982
tp146
a(g145
S'895'
p147
F268.4210662990969
tp148
a(g147
S'1016'
p149
F364.23495779569595
tp150
a(g149
S'1150'
p151
F476.5728920163904
tp152
a(g151
S'1062'
p153
F194.7563084101235
tp154
a(g153
S'1061'
p155
F442.8992981334369
tp156
a(g155
S'937'
p157
F930.5990375079346
tp158
a(g157
S'988'
p159
F84.85729485795852
tp160
a(g159
S'1127'
p161
F152.49726409143645
tp162
a(g161
S'967'
p163
F190.65766483400054
tp164
a(g163
S'900'
p165
F217.51739317672622
tp166
a(g165
S'809'
p167
F674.794246559625
tp168
a(g167
S'1114'
p169
F639.1126192225747
tp170
a(g169
S'993'
p171
F865.1525280555261
tp172
a(g171
S'918'
p173
F353.8824181427403
tp174
a(g173
S'1141'
p175
F333.92501272121706
tp176
a(g175
S'918'
p177
F166.96268838258965
tp178
aF4.671008383433106
g136
S'2012-03-02 11:18:57'
p179
I31
F7297.153096785497
F6320.8516485622295
tp180
a((lp181
(S'1141'
p182
g177
F166.96232434940242
tp183
a(g177
g175
F333.92501272121706
tp184
a(g175
S'1164'
p185
F317.58215417110415
tp186
a(g185
S'1105'
p187
F344.4627028827358
tp188
a(g187
S'1188'
p189
F149.6260824032563
tp190
aF429.56452686361615
g179
S'2012-03-02 11:19:08'
p191
I0
F1312.5582765277159
F47.258799128478095
tp192
a((lp193
(S'1105'
p194
g189
F149.6261004281319
tp195
a(g189
S'1105'
p196
F299.2521828311323
tp197
a(g196
S'811'
p198
F197.68424745612614
tp199
a(g198
S'810'
p200
F139.00711405340928
tp201
a(g200
S'815'
p202
F185.33946276272223
tp203
a(g202
S'933'
p204
F264.6371495932836
tp205
a(g204
S'1152'
p206
F252.16482039578787
tp207
a(g206
S'1114'
p208
F1003.2970238685477
tp209
a(g208
S'809'
p210
F639.1126192225747
tp211
a(g210
S'900'
p212
F674.794246559625
tp213
a(g212
S'967'
p214
F217.51739317672622
tp215
a(g214
S'1154'
p216
F633.0663908294133
tp217
a(g216
S'873'
p218
F659.6641980397137
tp219
a(g218
S'1292'
p220
F5581.023855259741
tp221
a(g220
S'1286'
p222
F873.144134384409
tp223
a(g222
S'1353'
p224
F1461.886012214432
tp225
a(g224
S'1361'
p226
F982.0953103065008
tp227
a(g226
S'1266'
p228
F466.3004837010707
tp229
a(g228
S'1281'
p230
F183.30758133931698
tp231
aF49.22402316018545
g191
S'2012-03-02 11:37:15'
p232
I22
F14862.920326422663
F11136.017604398157
tp233
a((lp234
(S'1266'
p235
g230
F183.30795292756864
tp236
a(g230
S'1266'
p237
F366.61553426078075
tp238
a(g237
S'1361'
p239
F466.3004837010707
tp240
a(g239
S'1353'
p241
F0.6955424540494123
tp242
aF32.98117340573414
g232
S'2012-03-02 11:39:06'
p243
I50
F1016.9195133434694
F556.4736238384446
tp244
a((lp245
(S'1361'
p246
g241
F981.3997678526831
tp247
a(g241
S'1394'
p248
F356.32415866945047
tp249
aF80.263435591328
g243
S'2012-03-02 11:40:06'
p250
I27
F1337.7239265221335
F967.2795371020603
tp251
a((lp252
(S'1353'
p253
g248
F356.3226315389232
tp254
a(g248
S'1265'
p255
F551.3303873579385
tp256
a(g255
S'1269'
p257
F289.65962116902546
tp258
aF32.40846243787364
g250
S'2012-03-02 11:42:19'
p259
I31
F1197.3126400658873
F1242.4879272859978
tp260
a((lp261
(S'1265'
p262
g257
F289.6596179649204
tp263
a(g257
S'1251'
p264
F313.16976264900904
tp265
a(g264
S'1346'
p266
F267.5354876044723
tp267
a(g266
S'1249'
p268
F297.2745740412477
tp269
aF42.45961608216907
g259
S'2012-03-02 11:43:58'
p270
I37
F1167.6394422596495
F560.102370793933
tp271
a((lp272
(S'1346'
p273
g268
F45.44540438838882
tp274
a(g268
S'1346'
p275
F342.7199784240905
tp276
a(g275
S'1255'
p277
F414.37654574297574
tp278
a(g277
S'1263'
p279
F704.9230554192377
tp280
a(g279
S'1398'
p281
F249.41022046390572
tp282
a(g281
S'1365'
p283
F320.68857719991286
tp284
a(g283
S'1245'
p285
F140.2950331381758
tp286
aF21.57916684647588
g270
S'2012-03-02 11:50:08'
p287
I27
F2217.8588147766873
F1533.1962265481116
tp288
a((lp289
(S'1365'
p290
g285
F140.2950331480198
tp291
a(g285
S'1348'
p292
F780.823649611878
tp293
a(g292
S'1285'
p294
F296.4752350214587
tp295
a(g294
S'1342'
p296
F1.3442717645740174
tp297
aF54.852218529566876
g287
S'2012-03-02 11:51:28'
p298
I18
F1218.9381895459305
F798.774145634345
tp299
a((lp300
(S'1285'
p301
g296
F587.80129998038
tp302
a(g296
S'1285'
p303
F589.1455717449389
tp304
a(g303
S'1348'
p305
F296.4752350214587
tp306
a(g305
g294
F5.764614030875287
tp307
aF156.61977043528088
g298
S'2012-03-02 11:52:02'
p308
I0
F1479.186720777653
F95.033741709058
tp309
a((lp310
(S'1348'
p311
g294
F290.7106209912453
tp312
a(g294
S'1252'
p313
F309.4833923636865
tp314
aF93.94341078598933
g308
S'2012-03-02 11:52:25'
p315
I0
F600.1940133549318
F21.66413848284072
tp316
a((lp317
(g301
g313
F309.48343880233705
tp318
a(g313
S'1297'
p319
F1125.1436614787262
tp320
a(g319
S'1353'
p321
F907.6544528091619
tp322
a(g321
g248
F712.646790159864
tp323
a(g248
S'1347'
p324
F257.00597265301525
tp325
aF82.7983578975776
g315
S'2012-03-02 11:54:49'
p326
I24
F3311.934315903104
F1779.1100315015315
tp327
a((lp328
(S'1394'
p329
g324
F257.0060428400835
tp330
a(g324
S'1394'
p331
F514.0120154544768
tp332
a(g331
S'1353'
p333
F46.767577660939295
tp334
aF147.20141447198995
g326
S'2012-03-02 11:55:09'
p335
I61
F817.7856359554996
F121.63608974058808
tp336
a((lp337
(g329
g333
F665.8792125108648
tp338
a(g333
g248
F712.646790159864
tp339
a(g248
S'1360'
p340
F152.9873464367894
tp341
a(g340
S'1394'
p342
F76.49367360430062
tp343
aF175.41894793219845
g335
S'2012-03-02 11:55:42'
p344
I0
F1608.007022711819
F65.89097995080414
tp345
a((lp346
(S'1360'
p347
g342
F76.49367283350698
tp348
a(g342
g324
F514.0120154544768
tp349
a(g324
S'1367'
p350
F417.4955466643859
tp351
aF60.480074097142186
g344
S'2012-03-02 11:56:42'
p352
I37
F1008.0012349523697
F921.5124924269974
tp353
a((lp354
(S'1347'
p355
g350
F271.2562892255399
tp356
a(g350
S'1286'
p357
F722.8074771960407
tp358
a(g357
S'1292'
p359
F873.144134384409
tp360
a(g359
g39
F191.8731008297557
tp361
aF33.54159097687187
g352
S'2012-03-02 12:00:23'
p362
I38
F2059.0810016357455
F1521.9738070562346
tp363
a((lp364
(S'1292'
p365
g39
F5389.150761039915
tp366
a(g39
g41
F117.95681148015007
tp367
a(g41
g43
F690.8846058389883
tp368
a(g43
g45
F427.5037898483401
tp369
a(g45
S'1127'
p370
F6.8306029289612695
tp371
a(g370
S'988'
p372
F152.49726409143645
tp373
a(g372
S'937'
p374
F84.85729485795852
tp375
a(g374
S'901'
p376
F654.3387647481585
tp377
a(g376
S'1232'
p378
F500.4166198457959
tp379
a(g378
S'1151'
p380
F572.8013873462398
tp381
a(g380
S'1073'
p382
F376.9504164752288
tp383
aF1.2833000177399887
g362
S'2012-03-02 18:59:58'
p384
I53
F8974.188318501172
F8090.146335396749
tp385
a((lp386
(S'1151'
p387
g382
F376.94818222012105
tp388
a(g382
S'1151'
p389
F753.8985985699695
tp390
a(g389
S'1036'
p391
F499.30418929770127
tp392
a(g391
S'989'
p393
F393.39337356847
tp394
aF60.70633030968786
g384
S'2012-03-02 19:01:58'
p395
I22
F2023.5443436562618
F554.1612854817753
tp396
a((lp397
(S'1036'
p398
g393
F393.39264051199774
tp399
a(g393
S'887'
p400
F690.9163383539549
tp401
a(g400
S'1189'
p402
F211.8840444636607
tp403
a(g402
S'987'
p404
F541.0596802687863
tp405
a(g404
S'1189'
p406
F96.50532516525982
tp407
aF58.01274086290979
g395
S'2012-03-02 19:03:58'
p408
I12
F1933.7580287636597
F754.0253447880696
tp409
a((lp410
(S'987'
p411
g406
F444.5543551089744
tp412
a(g406
S'887'
p413
F211.8840444636607
tp414
a(g413
S'820'
p415
F32.90155860891353
tp416
aF42.786618094027155
g408
S'2012-03-02 19:04:56'
p417
I48
F689.3399581815486
F611.6888720845845
tp418
a((lp419
(S'887'
p420
g420
F0.0
tp421
aF0.8174882105322842
g417
S'2012-03-02 19:06:58'
p422
I0
F27.703767134705185
F275.20092876573494
tp423
a((lp424
(g420
g415
F1037.5819232850317
tp425
a(g415
S'887'
p426
F1042.7797147525323
tp427
a(g426
g402
F211.8840444636607
tp428
a(g402
g413
F105.94205205410044
tp429
aF507.85152025877477
g422
S'2012-03-02 19:07:15'
p430
I0
F2398.1877345553253
F30.901518396548536
tp431
a((lp432
(S'1189'
p433
g413
F105.9419924101466
tp434
a(g413
S'1027'
p435
F974.3320508593303
tp436
a(g435
S'842'
p437
F54.21176934563721
tp438
aF60.06101360903544
g430
S'2012-03-02 19:08:23'
p439
I9
F1134.485812615114
F325.87829996693114
tp440
a((lp441
(S'1027'
p442
g442
F0.0
tp443
aF0.0
g439
S'2012-03-02 19:08:43'
p444
I5
F0.0
F7.046874294499757
tp445
a((lp446
(g442
g437
F54.21170407237851
tp447
a(g437
S'929'
p448
F138.91582185729666
tp449
a(g448
S'414'
p450
F151.56028654025312
tp451
aF10.884878288524051
g444
S'2012-03-02 19:10:37'
p452
I0
F344.6878124699283
F576.6095174246426
tp453
a.