(lp0
((lp1
(S'987'
p2
S'1073'
p3
F513.5294512070992
tp4
a(g3
S'1185'
p5
F401.933419412357
tp6
a(g5
S'777'
p7
F465.5645320107461
tp8
a(g7
S'988'
p9
F428.69502991180303
tp10
a(g9
S'1127'
p11
F152.49726409143645
tp12
a(g11
S'967'
p13
F190.65766483400054
tp14
a(g13
S'900'
p15
F46.777552830529274
tp16
aF65.98964742893915
S'2012-03-02 10:58:58'
p17
S'2012-03-02 11:00:58'
p18
I68
F2199.6549142979716
F2163.022287207917
tp19
a((lp20
(S'967'
p21
g15
F170.73984034643732
tp22
a(g15
S'967'
p23
F217.51739317672622
tp24
a(g23
S'1154'
p25
F633.0663908294133
tp26
a(g25
S'873'
p27
F392.2310406288335
tp28
aF42.762998268345186
g18
S'2012-03-02 11:02:57'
p29
I38
F1413.5546649814103
F947.9184815726524
tp30
a((lp31
(S'1154'
p32
g27
F267.4331574910833
tp33
a(g27
S'1292'
p34
F5581.023855259741
tp35
a(g34
S'1325'
p36
F459.79492426068333
tp37
a(g36
S'1235'
p38
F389.26882422869335
tp39
aF79.83799582935339
g29
S'2012-03-02 11:07:59'
p40
I79
F6697.520761240201
F5834.4752715807335
tp41
a((lp42
(S'1325'
p43
g38
F389.2695563777924
tp44
a(g38
S'1247'
p45
F1077.4775717248071
tp46
a(g45
S'1332'
p47
F425.15130105731214
tp48
aF56.756952874797356
g40
S'2012-03-02 11:09:59'
p49
I42
F1891.8984291599118
F1077.8950425302392
tp50
a((lp51
(S'1247'
p52
g47
F425.1503755352136
tp53
a(g47
S'1278'
p54
F443.0096384527584
tp55
a(g54
S'1261'
p56
F856.423275392782
tp57
a(g56
S'1250'
p58
F150.4850403704399
tp59
aF54.001967896834394
g49
S'2012-03-02 11:12:04'
p60
I35
F1875.0683297511941
F175.55457818357056
tp61
a((lp62
(S'1261'
p63
g58
F149.05147953838915
tp64
a(g58
S'1286'
p65
F204.88150175530103
tp66
a(g65
S'1367'
p67
F722.8074771960407
tp68
a(g67
S'1279'
p69
F341.78005737059686
tp70
aF57.378357944912146
g60
S'2012-03-02 11:13:33'
p71
I48
F1418.520515860328
F1005.0635886005823
tp72
a((lp73
(S'1367'
p74
g69
F341.7800573568124
tp75
a(g69
S'1294'
p76
F383.85231039779774
tp77
a(g76
S'1354'
p78
F495.8732773813718
tp79
a(g78
S'1294'
p80
F257.2360626294663
tp81
aF88.72450246592689
g71
S'2012-03-02 11:14:33'
p82
I0
F1478.7417077654482
F347.92191729266403
tp83
a((lp84
(S'1354'
p85
g80
F238.63721475483584
tp86
a(g80
S'1279'
p87
F383.85231039779774
tp88
a(g87
S'1381'
p89
F595.3972903281316
tp90
a(g89
S'1378'
p91
F486.319094641144
tp92
a(g91
S'1376'
p93
F136.455510672744
tp94
aF31.554195785051196
g82
S'2012-03-02 11:18:03'
p95
I0
F1840.6614207946532
F977.2359636513771
tp96
a((lp97
(S'1378'
p98
g93
F136.4548267147406
tp99
a(g93
S'1378'
p100
F272.91033738062805
tp101
a(g100
S'1381'
p102
F486.319094641144
tp103
a(g102
S'1334'
p104
F276.2100637300567
tp105
aF46.36065451516098
g95
S'2012-03-02 11:19:34'
p106
I50
F1171.8943224665693
F271.13887518235674
tp107
a((lp108
(S'1381'
p109
g104
F276.20845938461025
tp110
a(g104
S'1381'
p111
F552.4185230642412
tp112
a(g111
g91
F486.319094641144
tp113
a(g91
S'1373'
p114
F624.039937192576
tp115
aF76.70713902656327
g106
S'2012-03-02 11:21:05'
p116
I16
F1938.9860142825714
F120.7799613423483
tp117
a((lp118
(g98
g98
F0.0
tp119
aF65.353451965852
g116
S'2012-03-02 11:21:37'
p120
I22
F580.9195730297955
F144.76041798185068
tp121
a((lp122
(g98
g114
F1204.9595324053223
tp123
a(g114
S'1378'
p124
F1248.079896567967
tp125
a(g124
g93
F272.91033738062805
tp126
a(g93
S'1013'
p127
F3427.8290189273157
tp128
a(g127
S'792'
p129
F441.0365406997711
tp130
a(g129
S'1186'
p131
F433.61217033519375
tp132
a(g131
S'1122'
p133
F682.0643108370471
tp134
a(g133
S'804'
p135
F936.7254302074238
tp136
a(g135
S'888'
p137
F436.4498289725836
tp138
a(g137
S'1213'
p139
F398.42229143270566
tp140
a(g139
S'1066'
p141
F126.00604095646439
tp142
a(g141
S'923'
p143
F393.01935792027143
tp144
aF42.45756264612464
g120
S'2012-03-02 11:35:45'
p145
I0
F10001.114756642693
F5016.343153216301
tp146
a((lp147
(S'1066'
p148
g143
F14.514994140015448
tp149
a(g143
S'1066'
p150
F407.53435205726896
tp151
a(g150
S'1213'
p152
F126.00604095646439
tp153
a(g152
g141
F98.75658942413136
tp154
aF48.51089824334101
g145
S'2012-03-02 11:36:33'
p155
I0
F646.8119765778802
F66.59430175213222
tp156
a((lp157
(S'1213'
p158
g141
F27.249451532590648
tp159
a(g141
S'1170'
p160
F134.29559832461862
tp161
a(g160
S'915'
p162
F418.6803844186766
tp163
a(g162
S'121'
p164
F158.62328613807864
tp165
aF28.600595628927667
g155
S'2012-03-02 11:38:06'
p166
I37
F738.8487204139647
F305.7779308458608
tp167
a((lp168
(S'915'
p169
g164
F158.62320526527418
tp170
a(g164
S'307'
p171
F177.64391791538793
tp172
aF13.158278733156344
g166
S'2012-03-02 11:39:38'
p173
I12
F336.2671231806621
F479.2051193991164
tp174
a((lp175
(S'121'
p176
g171
F177.64379510438962
tp177
a(g171
S'12'
p178
F336.87317808984017
tp179
a(g178
S'1104'
p180
F340.35709427387536
tp181
a(g180
S'1145'
p182
F366.09780160503766
tp183
aF81.3981246048762
g173
S'2012-03-02 11:40:32'
p184
I0
F1220.971869073143
F62.272795916544744
tp185
a((lp186
(S'1104'
p187
g182
F359.0046309964781
tp188
a(g182
S'1020'
p189
F138.3852165812993
tp190
a(g189
S'1170'
p191
F201.74042609344684
tp192
a(g191
S'1066'
p193
F134.29559832461862
tp194
a(g193
g152
F63.0029958985286
tp195
aF80.67859811049343
g184
S'2012-03-02 11:41:12'
p196
I37
F896.4288678943715
F321.91389814432523
tp197
a((lp198
(g148
g152
F63.003045058211704
tp199
a(g152
g141
F126.00604095646439
tp200
a(g141
g160
F134.29559832461862
tp201
a(g160
S'1020'
p202
F201.74042609344684
tp203
a(g202
S'1145'
p204
F138.3852165812993
tp205
a(g204
S'1104'
p206
F266.16720898622384
tp207
aF12.724529009889554
g196
S'2012-03-02 11:45:35'
p208
I0
F929.5975360002647
F391.57417360007895
tp209
a((lp210
(S'1145'
p211
g206
F458.9352236143294
tp212
a(g206
g182
F725.1024325879025
tp213
a(g182
S'1028'
p214
F210.6065185280842
tp215
a(g214
S'772'
p216
F230.208379433524
tp217
a(g216
S'819'
p218
F116.01913758038368
tp219
aF104.45230150465342
g208
S'2012-03-02 11:46:35'
p220
I40
F1740.8716917442237
F443.6850104643188
tp221
a((lp222
(S'772'
p223
g218
F116.0193583447958
tp224
a(g218
S'1233'
p225
F280.1051964205321
tp226
a(g225
S'886'
p227
F203.95830291726205
tp228
a(g227
S'1222'
p229
F498.13109666342655
tp230
a(g229
S'233'
p231
F314.42150737049457
tp232
a(g231
S'1158'
p233
F505.9919712639641
tp234
a(g233
S'371'
p235
F343.4160234801613
tp236
a(g235
S'414'
p237
F739.6760747221767
tp238
a(g237
S'203'
p239
F110.55925503297553
tp240
a(g239
S'431'
p241
F369.98613606887915
tp242
a(g241
S'392'
p243
F457.83618440901
tp244
a(g243
S'270'
p245
F47.92982535677327
tp246
aF47.697379918211375
g220
S'2012-03-02 11:51:36'
p247
I3
F3988.030932050451
F2680.1601435224297
tp248
a.